
FPGA_Ram.elf:     file format elf32-tradlittlemips


Disassembly of section .bootrom:

9fc00000 <__reset_vector>:
C:\Users\Matt\Projects\mipsfpga-display\src\c\basic_dot/boot.S:65
/**************************************************************************************
    R E S E T   E X C E P T I O N   H A N D L E R
**************************************************************************************/

LEAF(__reset_vector)
    la a2,__cpu_init
9fc00000:	3c069fc0 	lui	a2,0x9fc0
9fc00004:	24c60014 	addiu	a2,a2,20
C:\Users\Matt\Projects\mipsfpga-display\src\c\basic_dot/boot.S:66
    jr a2
9fc00008:	00c00008 	jr	a2
C:\Users\Matt\Projects\mipsfpga-display\src\c\basic_dot/boot.S:67
    mtc0    $0, C0_COUNT        # Clear cp0 Count (Used to measure boot time.)
9fc0000c:	40804800 	mtc0	zero,c0_count
C:\Users\Matt\Projects\mipsfpga-display\src\c\basic_dot/boot.S:68
    nop
9fc00010:	00000000 	nop

9fc00014 <__cpu_init>:
C:\Users\Matt\Projects\mipsfpga-display\src\c\basic_dot/boot.S:77
LEAF(__cpu_init)

    # Verify the code is here due to a reset and not NMI. If this is an NMI then trigger
    # a debugger breakpoint using a sdbp instruction.

    mfc0    s1, C0_STATUS       # Read CP0 Status
9fc00014:	40116000 	mfc0	s1,c0_status
C:\Users\Matt\Projects\mipsfpga-display\src\c\basic_dot/boot.S:78
    ext     s1, s1, 19, 1       # extract NMI
9fc00018:	7e3104c0 	ext	s1,s1,0x13,0x1
C:\Users\Matt\Projects\mipsfpga-display\src\c\basic_dot/boot.S:79
    beqz    s1, init_resources  # Branch if this is NOT an NMI exception.
9fc0001c:	12200002 	beqz	s1,9fc00028 <init_resources>
C:\Users\Matt\Projects\mipsfpga-display\src\c\basic_dot/boot.S:80
    nop
9fc00020:	00000000 	nop
C:\Users\Matt\Projects\mipsfpga-display\src\c\basic_dot/boot.S:81
    sdbbp                       # Failed assertion: NMI.
9fc00024:	7000003f 	sdbbp

9fc00028 <init_resources>:
C:\Users\Matt\Projects\mipsfpga-display\src\c\basic_dot/boot.S:87

init_resources:                 # initializes resources for "cpu".

    # Initialize CP0 registers

    la a2,      init_cp0        # Init CP0 Status, Count, Compare, Watch*, and Cause.
9fc00028:	3c069fc0 	lui	a2,0x9fc0
9fc0002c:	24c60288 	addiu	a2,a2,648
C:\Users\Matt\Projects\mipsfpga-display\src\c\basic_dot/boot.S:88
    jalr a2
9fc00030:	00c0f809 	jalr	a2
C:\Users\Matt\Projects\mipsfpga-display\src\c\basic_dot/boot.S:89
    nop
9fc00034:	00000000 	nop
C:\Users\Matt\Projects\mipsfpga-display\src\c\basic_dot/boot.S:93

    # Initialize the TLB

    la      a2, init_tlb        # Generate unique EntryHi contents per entry pair.
9fc00038:	3c069fc0 	lui	a2,0x9fc0
9fc0003c:	24c60308 	addiu	a2,a2,776
C:\Users\Matt\Projects\mipsfpga-display\src\c\basic_dot/boot.S:94
    jalr    a2
9fc00040:	00c0f809 	jalr	a2
C:\Users\Matt\Projects\mipsfpga-display\src\c\basic_dot/boot.S:95
    nop
9fc00044:	00000000 	nop
C:\Users\Matt\Projects\mipsfpga-display\src\c\basic_dot/boot.S:99

    #Initialize the Instruction cache

    la      a2, init_icache     # Initialize the L1 instruction cache. (Executing using I$ on return.)
9fc00048:	3c069fc0 	lui	a2,0x9fc0
9fc0004c:	24c600a8 	addiu	a2,a2,168
C:\Users\Matt\Projects\mipsfpga-display\src\c\basic_dot/boot.S:100
    jalr    a2
9fc00050:	00c0f809 	jalr	a2
C:\Users\Matt\Projects\mipsfpga-display\src\c\basic_dot/boot.S:101
    nop
9fc00054:	00000000 	nop
C:\Users\Matt\Projects\mipsfpga-display\src\c\basic_dot/boot.S:106

    # The changing of Kernel mode cacheability must be done from KSEG1
    # Since the code is executing from KSEG0 It needs to do a jump to KSEG1 change K0 and jump back to KSEG0

    la          a2, change_k0_cca
9fc00058:	3c069fc0 	lui	a2,0x9fc0
9fc0005c:	24c60160 	addiu	a2,a2,352
C:\Users\Matt\Projects\mipsfpga-display\src\c\basic_dot/boot.S:107
    li          a1, 0xf
9fc00060:	2405000f 	li	a1,15
C:\Users\Matt\Projects\mipsfpga-display\src\c\basic_dot/boot.S:108
    ins         a2, a1, 29, 1   # changed to KSEG1 address by setting bit 29
9fc00064:	7ca6ef44 	ins	a2,a1,0x1d,0x1
C:\Users\Matt\Projects\mipsfpga-display\src\c\basic_dot/boot.S:109
    jalr        a2
9fc00068:	00c0f809 	jalr	a2
C:\Users\Matt\Projects\mipsfpga-display\src\c\basic_dot/boot.S:110
    nop
9fc0006c:	00000000 	nop
C:\Users\Matt\Projects\mipsfpga-display\src\c\basic_dot/boot.S:114

    # Initialize the Data cache

    la      a2, init_dcache     # Initialize the L1 data cache
9fc00070:	3c069fc0 	lui	a2,0x9fc0
9fc00074:	24c60100 	addiu	a2,a2,256
C:\Users\Matt\Projects\mipsfpga-display\src\c\basic_dot/boot.S:115
    jalr    a2
9fc00078:	00c0f809 	jalr	a2
C:\Users\Matt\Projects\mipsfpga-display\src\c\basic_dot/boot.S:116
    nop
9fc0007c:	00000000 	nop
C:\Users\Matt\Projects\mipsfpga-display\src\c\basic_dot/boot.S:120

    # Prepare for eret to main.

    la      ra, all_done        # If main returns then go to all_done:.
9fc00080:	3c1f9fc0 	lui	ra,0x9fc0
9fc00084:	27ff00a0 	addiu	ra,ra,160
C:\Users\Matt\Projects\mipsfpga-display\src\c\basic_dot/boot.S:121
    move    a0, zero            # Indicate that there are no arguments available.
9fc00088:	00002021 	move	a0,zero
C:\Users\Matt\Projects\mipsfpga-display\src\c\basic_dot/boot.S:122
    la      v0, _start          # load the address of the CRT entry point _start.
9fc0008c:	3c028000 	lui	v0,0x8000
9fc00090:	24420324 	addiu	v0,v0,804
C:\Users\Matt\Projects\mipsfpga-display\src\c\basic_dot/boot.S:123
    mtc0    v0, $30             # Write ErrorEPC with the address of main
9fc00094:	4082f000 	mtc0	v0,c0_errorepc
C:\Users\Matt\Projects\mipsfpga-display\src\c\basic_dot/boot.S:124
    ehb                         # clear hazards (makes sure write to ErrorPC has completed)
9fc00098:	000000c0 	ehb
C:\Users\Matt\Projects\mipsfpga-display\src\c\basic_dot/boot.S:128

    # Return from exception will now execute code in main

    eret                        # Exit reset exception handler and start execution of _start.
9fc0009c:	42000018 	eret

9fc000a0 <all_done>:
C:\Users\Matt\Projects\mipsfpga-display\src\c\basic_dot/boot.S:134


/**************************************************************************************/
all_done:
    # If main returns it will return to this point.  Just spin here.
    b       all_done
9fc000a0:	1000ffff 	b	9fc000a0 <all_done>
C:\Users\Matt\Projects\mipsfpga-display\src\c\basic_dot/boot.S:135
    nop
9fc000a4:	00000000 	nop

9fc000a8 <init_icache>:
C:\Users\Matt\Projects\mipsfpga-display\src\c\basic_dot/init_caches.S:63
LEAF(init_icache)

	// Can be skipped if using magic simulation cache flush

	// Determine how big the I$ is
	mfc0	v0, C0_CONFIG1		// read C0_Config1
9fc000a8:	40028001 	mfc0	v0,c0_config1
C:\Users\Matt\Projects\mipsfpga-display\src\c\basic_dot/init_caches.S:66

	// Isolate I$ Line Size
	ext	    v1, v0, CFG1_ILSHIFT, 3		// extract IL
9fc000ac:	7c4314c0 	ext	v1,v0,0x13,0x3
C:\Users\Matt\Projects\mipsfpga-display\src\c\basic_dot/init_caches.S:69

	// Skip ahead if No I$
	beq	    v1, zero, done_icache
9fc000b0:	10600011 	beqz	v1,9fc000f8 <done_icache>
C:\Users\Matt\Projects\mipsfpga-display\src\c\basic_dot/init_caches.S:70
	nop
9fc000b4:	00000000 	nop
C:\Users\Matt\Projects\mipsfpga-display\src\c\basic_dot/init_caches.S:72

	li	    a2, 2
9fc000b8:	24060002 	li	a2,2
C:\Users\Matt\Projects\mipsfpga-display\src\c\basic_dot/init_caches.S:73
	sllv    v1, a2, v1			// Now have true I$ line size in bytes
9fc000bc:	00661804 	sllv	v1,a2,v1
C:\Users\Matt\Projects\mipsfpga-display\src\c\basic_dot/init_caches.S:75

	ext	    a0, v0, CFG1_ISSHIFT, 3		// extract IS
9fc000c0:	7c441580 	ext	a0,v0,0x16,0x3
C:\Users\Matt\Projects\mipsfpga-display\src\c\basic_dot/init_caches.S:76
	li	    a2, 64
9fc000c4:	24060040 	li	a2,64
C:\Users\Matt\Projects\mipsfpga-display\src\c\basic_dot/init_caches.S:77
	sllv    a0, a2, a0			// I$ Sets per way
9fc000c8:	00862004 	sllv	a0,a2,a0
C:\Users\Matt\Projects\mipsfpga-display\src\c\basic_dot/init_caches.S:80

	// Config1IA == I$ Assoc - 1
	ext	    a1, v0, CFG1_IASHIFT, 3		// extract IA
9fc000cc:	7c451400 	ext	a1,v0,0x10,0x3
C:\Users\Matt\Projects\mipsfpga-display\src\c\basic_dot/init_caches.S:81
	add	    a1, 1
9fc000d0:	20a50001 	addi	a1,a1,1
C:\Users\Matt\Projects\mipsfpga-display\src\c\basic_dot/init_caches.S:83

	mul	    a0, a0, a1			// Total number of sets
9fc000d4:	70852002 	mul	a0,a0,a1
C:\Users\Matt\Projects\mipsfpga-display\src\c\basic_dot/init_caches.S:85

	lui	    a2, 0x8000			// Get a KSeg0 address for cacheops
9fc000d8:	3c068000 	lui	a2,0x8000
C:\Users\Matt\Projects\mipsfpga-display\src\c\basic_dot/init_caches.S:88

	// Clear TagLo/TagHi registers
	mtc0    zero, C0_TAGLO		// write C0_ITagLo
9fc000dc:	4080e000 	mtc0	zero,c0_taglo
C:\Users\Matt\Projects\mipsfpga-display\src\c\basic_dot/init_caches.S:89
	mtc0    zero, C0_TAGHI		// write C0_ITagHi
9fc000e0:	4080e800 	mtc0	zero,c0_taghi
C:\Users\Matt\Projects\mipsfpga-display\src\c\basic_dot/init_caches.S:91

	move    a3, a0
9fc000e4:	00803821 	move	a3,a0

9fc000e8 <next_icache_tag>:
C:\Users\Matt\Projects\mipsfpga-display\src\c\basic_dot/init_caches.S:96

next_icache_tag:
	// Index Store Tag Cache Op
	// Will invalidate the tag entry, clear the lock bit, and clear the LRF bit
	cache   0x8, 0(a2)			// ICIndexStTag
9fc000e8:	bcc80000 	cache	0x8,0(a2)
C:\Users\Matt\Projects\mipsfpga-display\src\c\basic_dot/init_caches.S:97
	add	    a3, -1				// Decrement set counter
9fc000ec:	20e7ffff 	addi	a3,a3,-1
C:\Users\Matt\Projects\mipsfpga-display\src\c\basic_dot/init_caches.S:98
	bne     a3, zero, next_icache_tag
9fc000f0:	14e0fffd 	bnez	a3,9fc000e8 <next_icache_tag>
C:\Users\Matt\Projects\mipsfpga-display\src\c\basic_dot/init_caches.S:99
	add     a2, v1				// Get next line address
9fc000f4:	00c33020 	add	a2,a2,v1

9fc000f8 <done_icache>:
C:\Users\Matt\Projects\mipsfpga-display\src\c\basic_dot/init_caches.S:103

done_icache:

    jr      ra
9fc000f8:	03e00008 	jr	ra
C:\Users\Matt\Projects\mipsfpga-display\src\c\basic_dot/init_caches.S:104
    nop
9fc000fc:	00000000 	nop

9fc00100 <init_dcache>:
C:\Users\Matt\Projects\mipsfpga-display\src\c\basic_dot/init_caches.S:113
* init_dcache invalidates all data cache entries
**************************************************************************************/

LEAF(init_dcache)

	mfc0	v0, C0_CONFIG1		// read C0_Config1
9fc00100:	40028001 	mfc0	v0,c0_config1
C:\Users\Matt\Projects\mipsfpga-display\src\c\basic_dot/init_caches.S:116

	// Isolate D$ Line Size
	ext	    v1, v0, CFG1_DLSHIFT, 3		// extract DL
9fc00104:	7c431280 	ext	v1,v0,0xa,0x3
C:\Users\Matt\Projects\mipsfpga-display\src\c\basic_dot/init_caches.S:119

	// Skip ahead if No D$
	beq	    v1, zero, done_dcache
9fc00108:	10600013 	beqz	v1,9fc00158 <done_dcache>
C:\Users\Matt\Projects\mipsfpga-display\src\c\basic_dot/init_caches.S:120
	nop
9fc0010c:	00000000 	nop
C:\Users\Matt\Projects\mipsfpga-display\src\c\basic_dot/init_caches.S:122

	li	    a2, 2
9fc00110:	24060002 	li	a2,2
C:\Users\Matt\Projects\mipsfpga-display\src\c\basic_dot/init_caches.S:123
	sllv	v1, a2, v1			// Now have true D$ line size in bytes
9fc00114:	00661804 	sllv	v1,a2,v1
C:\Users\Matt\Projects\mipsfpga-display\src\c\basic_dot/init_caches.S:125

	ext	    a0, v0, CFG1_DSSHIFT, 3		// extract DS
9fc00118:	7c441340 	ext	a0,v0,0xd,0x3
C:\Users\Matt\Projects\mipsfpga-display\src\c\basic_dot/init_caches.S:126
	li	    a2, 64
9fc0011c:	24060040 	li	a2,64
C:\Users\Matt\Projects\mipsfpga-display\src\c\basic_dot/init_caches.S:127
	sllv	a0, a2, a0	// D$ Sets per way
9fc00120:	00862004 	sllv	a0,a2,a0
C:\Users\Matt\Projects\mipsfpga-display\src\c\basic_dot/init_caches.S:130

	// Config1DA == D$ Assoc - 1
	ext	    a1, v0, CFG1_DASHIFT, 3		// extract DA
9fc00124:	7c4511c0 	ext	a1,v0,0x7,0x3
C:\Users\Matt\Projects\mipsfpga-display\src\c\basic_dot/init_caches.S:131
	add	    a1, 1
9fc00128:	20a50001 	addi	a1,a1,1
C:\Users\Matt\Projects\mipsfpga-display\src\c\basic_dot/init_caches.S:133

	mul	    a0, a0, a1			// Get total number of sets
9fc0012c:	70852002 	mul	a0,a0,a1
C:\Users\Matt\Projects\mipsfpga-display\src\c\basic_dot/init_caches.S:135

	lui	    a2, 0x8000		    // Get a KSeg0 address for cacheops
9fc00130:	3c068000 	lui	a2,0x8000
C:\Users\Matt\Projects\mipsfpga-display\src\c\basic_dot/init_caches.S:138

	// Clear TagLo/TagHi registers
	mtc0	zero, C0_TAGLO		// write C0_TagLo
9fc00134:	4080e000 	mtc0	zero,c0_taglo
C:\Users\Matt\Projects\mipsfpga-display\src\c\basic_dot/init_caches.S:139
	mtc0	zero, C0_TAGHI		// write C0_TagHi
9fc00138:	4080e800 	mtc0	zero,c0_taghi
C:\Users\Matt\Projects\mipsfpga-display\src\c\basic_dot/init_caches.S:140
	mtc0	zero, C0_TAGLO, 2	// write C0_DTagLo
9fc0013c:	4080e002 	mtc0	zero,c0_taglo1
C:\Users\Matt\Projects\mipsfpga-display\src\c\basic_dot/init_caches.S:141
	mtc0	zero, C0_TAGHI, 2	// write C0_DTagHi
9fc00140:	4080e802 	mtc0	zero,c0_taghi1
C:\Users\Matt\Projects\mipsfpga-display\src\c\basic_dot/init_caches.S:143

	move	a3, a0
9fc00144:	00803821 	move	a3,a0

9fc00148 <next_dcache_tag>:
C:\Users\Matt\Projects\mipsfpga-display\src\c\basic_dot/init_caches.S:149

next_dcache_tag:
	// Index Store Tag Cache Op
	// Will invalidate the tag entry, clear the lock bit, and clear the LRF bit

    cache	0x9, 0(a2)			// DCIndexStTag
9fc00148:	bcc90000 	cache	0x9,0(a2)
C:\Users\Matt\Projects\mipsfpga-display\src\c\basic_dot/init_caches.S:150
	add	    a3, -1			    // Decrement set counter
9fc0014c:	20e7ffff 	addi	a3,a3,-1
C:\Users\Matt\Projects\mipsfpga-display\src\c\basic_dot/init_caches.S:152

	bne	    a3, zero, next_dcache_tag
9fc00150:	14e0fffd 	bnez	a3,9fc00148 <next_dcache_tag>
C:\Users\Matt\Projects\mipsfpga-display\src\c\basic_dot/init_caches.S:153
	add	    a2, v1		    	// Get next line address
9fc00154:	00c33020 	add	a2,a2,v1

9fc00158 <done_dcache>:
C:\Users\Matt\Projects\mipsfpga-display\src\c\basic_dot/init_caches.S:156

done_dcache:
    jr      ra
9fc00158:	03e00008 	jr	ra
C:\Users\Matt\Projects\mipsfpga-display\src\c\basic_dot/init_caches.S:157
    nop
9fc0015c:	00000000 	nop

9fc00160 <change_k0_cca>:
C:\Users\Matt\Projects\mipsfpga-display\src\c\basic_dot/init_caches.S:163
END(init_dcache)

LEAF(change_k0_cca)
	// NOTE! This code must be executed in KSEG1 (not KSGE0 uncached)
    // Set CCA for kseg0 to cacheable
	mfc0	v0, C0_CONFIG	// read C0_Config
9fc00160:	40028000 	mfc0	v0,c0_config
C:\Users\Matt\Projects\mipsfpga-display\src\c\basic_dot/init_caches.S:164
	li	v1, 3			// CCA for single-core processors
9fc00164:	24030003 	li	v1,3
C:\Users\Matt\Projects\mipsfpga-display\src\c\basic_dot/init_caches.S:165
      ins	v0, v1, 0, 3	// insert K0
9fc00168:	7c621004 	ins	v0,v1,0x0,0x3
C:\Users\Matt\Projects\mipsfpga-display\src\c\basic_dot/init_caches.S:166
	mtc0	v0, C0_CONFIG	// write C0_Config
9fc0016c:	40828000 	mtc0	v0,c0_config
C:\Users\Matt\Projects\mipsfpga-display\src\c\basic_dot/init_caches.S:167
	jr.hb   ra
9fc00170:	03e00408 	jr.hb	ra
C:\Users\Matt\Projects\mipsfpga-display\src\c\basic_dot/init_caches.S:168
    	nop
9fc00174:	00000000 	nop
	...
C:\Users\Matt\Projects\mipsfpga-display\src\c\basic_dot/boot.S:150
**************************************************************************************/
/* NOTE: the linker script must insure that this code starts at start + 0x200 so the exception */
/* vectors will be addressed properly. All .org assume this! */
/* TLB refill, 32 bit task. */
.org 0x200                      # TLB refill, 32 bit task.
    sdbbp                       # This has the effect of starting the debugger
9fc00200:	7000003f 	sdbbp
	...
C:\Users\Matt\Projects\mipsfpga-display\src\c\basic_dot/boot.S:154
    nop

.org 0x280                      # XTLB refill, 64 bit task. start + 0x280
    sdbbp                       # This has the effect of starting the debugger
9fc00280:	7000003f 	sdbbp
C:\Users\Matt\Projects\mipsfpga-display\src\c\basic_dot/boot.S:155
    nop
9fc00284:	00000000 	nop

9fc00288 <init_cp0>:
C:\Users\Matt\Projects\mipsfpga-display\src\c\basic_dot/init_cp0.S:59
/**************************************************************************************
**************************************************************************************/
LEAF(init_cp0)

    // Initialize Status
	li	v1, 0x00400404		// (M_StatusERL | M_StatusIPL1 | M_StatusBEV)
9fc00288:	3c030040 	lui	v1,0x40
9fc0028c:	34630404 	ori	v1,v1,0x404
C:\Users\Matt\Projects\mipsfpga-display\src\c\basic_dot/init_cp0.S:60
	mtc0	v1, C0_STATUS		// write C0_Status
9fc00290:	40836000 	mtc0	v1,c0_status
C:\Users\Matt\Projects\mipsfpga-display\src\c\basic_dot/init_cp0.S:63

	// Initialize Watch registers if implemented.
	mfc0	v0, C0_CONFIG1		// read C0_Config1
9fc00294:	40028001 	mfc0	v0,c0_config1
C:\Users\Matt\Projects\mipsfpga-display\src\c\basic_dot/init_cp0.S:64
	ext	v1, v0, 3, 1		// extract bit 3 WR (Watch registers implemented)
9fc00298:	7c4300c0 	ext	v1,v0,0x3,0x1
C:\Users\Matt\Projects\mipsfpga-display\src\c\basic_dot/init_cp0.S:65
	beq 	v1, zero, done_wr
9fc0029c:	10600011 	beqz	v1,9fc002e4 <done_wr>
C:\Users\Matt\Projects\mipsfpga-display\src\c\basic_dot/init_cp0.S:66
	li    	v1, 0x7				// (M_WatchHiI | M_WatchHiR | M_WatchHiW)
9fc002a0:	24030007 	li	v1,7
C:\Users\Matt\Projects\mipsfpga-display\src\c\basic_dot/init_cp0.S:69

	// Clear all possible Watch Status bits and disable watch exceptions
	mtc0	v1, C0_WATCHHI		// write C0_WatchHi0
9fc002a4:	40839800 	mtc0	v1,c0_watchhi
C:\Users\Matt\Projects\mipsfpga-display\src\c\basic_dot/init_cp0.S:70
	mtc0	zero, C0_WATCHLO	// write C0_WatchLo0
9fc002a8:	40809000 	mtc0	zero,c0_watchlo
C:\Users\Matt\Projects\mipsfpga-display\src\c\basic_dot/init_cp0.S:72

	mtc0	v1, C0_WATCHHI, 1	// write C0_WatchHi1
9fc002ac:	40839801 	mtc0	v1,c0_watchhi,1
C:\Users\Matt\Projects\mipsfpga-display\src\c\basic_dot/init_cp0.S:73
	mtc0	zero, C0_WATCHLO, 1	// write C0_WatchLo1
9fc002b0:	40809001 	mtc0	zero,c0_watchlo,1
C:\Users\Matt\Projects\mipsfpga-display\src\c\basic_dot/init_cp0.S:75

	mtc0	v1, C0_WATCHHI, 2	// write C0_WatchHi2
9fc002b4:	40839802 	mtc0	v1,c0_watchhi,2
C:\Users\Matt\Projects\mipsfpga-display\src\c\basic_dot/init_cp0.S:76
	mtc0	zero, C0_WATCHLO, 2	// write C0_WatchLo2
9fc002b8:	40809002 	mtc0	zero,c0_watchlo,2
C:\Users\Matt\Projects\mipsfpga-display\src\c\basic_dot/init_cp0.S:78

	mtc0	v1, C0_WATCHHI, 3	// write C0_WatchHi3
9fc002bc:	40839803 	mtc0	v1,c0_watchhi,3
C:\Users\Matt\Projects\mipsfpga-display\src\c\basic_dot/init_cp0.S:79
	mtc0	zero, C0_WATCHLO, 3	// write C0_WatchLo3
9fc002c0:	40809003 	mtc0	zero,c0_watchlo,3
C:\Users\Matt\Projects\mipsfpga-display\src\c\basic_dot/init_cp0.S:81

	mtc0	v1, C0_WATCHHI, 4	// write C0_WatchHi4
9fc002c4:	40839804 	mtc0	v1,c0_watchhi,4
C:\Users\Matt\Projects\mipsfpga-display\src\c\basic_dot/init_cp0.S:82
	mtc0	zero, C0_WATCHLO, 4	// write C0_WatchLo4
9fc002c8:	40809004 	mtc0	zero,c0_watchlo,4
C:\Users\Matt\Projects\mipsfpga-display\src\c\basic_dot/init_cp0.S:84

	mtc0	v1, C0_WATCHHI, 5	// write C0_WatchHi5
9fc002cc:	40839805 	mtc0	v1,c0_watchhi,5
C:\Users\Matt\Projects\mipsfpga-display\src\c\basic_dot/init_cp0.S:85
	mtc0	zero, C0_WATCHLO, 5	// write C0_WatchLo5
9fc002d0:	40809005 	mtc0	zero,c0_watchlo,5
C:\Users\Matt\Projects\mipsfpga-display\src\c\basic_dot/init_cp0.S:87

	mtc0	v1, C0_WATCHHI, 6	// write C0_WatchHi6
9fc002d4:	40839806 	mtc0	v1,c0_watchhi,6
C:\Users\Matt\Projects\mipsfpga-display\src\c\basic_dot/init_cp0.S:88
	mtc0	zero, C0_WATCHLO, 6	// write C0_WatchLo6
9fc002d8:	40809006 	mtc0	zero,c0_watchlo,6
C:\Users\Matt\Projects\mipsfpga-display\src\c\basic_dot/init_cp0.S:90

	mtc0	v1, C0_WATCHHI, 7	// write C0_WatchHi7
9fc002dc:	40839807 	mtc0	v1,c0_watchhi,7
C:\Users\Matt\Projects\mipsfpga-display\src\c\basic_dot/init_cp0.S:91
	mtc0	zero, C0_WATCHLO, 7	// write C0_WatchLo7
9fc002e0:	40809007 	mtc0	zero,c0_watchlo,7

9fc002e4 <done_wr>:
C:\Users\Matt\Projects\mipsfpga-display\src\c\basic_dot/init_cp0.S:96

done_wr:

	// Clear WP bit to avoid watch exception upon user code entry, IV, and software interrupts.
	mtc0	zero, C0_CAUSE		// write C0_Cause: Init AFTER init of CP0 WatchHi/Lo registers.
9fc002e4:	40806800 	mtc0	zero,c0_cause
C:\Users\Matt\Projects\mipsfpga-display\src\c\basic_dot/init_cp0.S:99

	// Clear timer interrupt. (Count was cleared at the reset vector to allow timing boot.)
	mtc0	zero, C0_COMPARE	// write C0_Compare
9fc002e8:	40805800 	mtc0	zero,c0_compare
C:\Users\Matt\Projects\mipsfpga-display\src\c\basic_dot/init_cp0.S:101

        jr      ra
9fc002ec:	03e00008 	jr	ra
C:\Users\Matt\Projects\mipsfpga-display\src\c\basic_dot/init_cp0.S:102
	nop
9fc002f0:	00000000 	nop
	...
C:\Users\Matt\Projects\mipsfpga-display\src\c\basic_dot/boot.S:160

#include "init_cp0.S"

.org 0x300                      # Cache error exception. start + 0x300
    sdbbp                       # This has the effect of starting the debugger
9fc00300:	7000003f 	sdbbp
C:\Users\Matt\Projects\mipsfpga-display\src\c\basic_dot/boot.S:161
    nop
9fc00304:	00000000 	nop

9fc00308 <init_tlb>:
C:\Users\Matt\Projects\mipsfpga-display\src\c\basic_dot/init_tlb.S:60
**************************************************************************************/
LEAF(init_tlb)

check_for_tlb:
	// Determine if we have a TLB
	mfc0    v1, C0_CONFIG			// read C0_Config
9fc00308:	40038000 	mfc0	v1,c0_config
C:\Users\Matt\Projects\mipsfpga-display\src\c\basic_dot/init_tlb.S:61
	ext	    v1, v1, 7, 3			// extract MT field
9fc0030c:	7c6311c0 	ext	v1,v1,0x7,0x3
C:\Users\Matt\Projects\mipsfpga-display\src\c\basic_dot/init_tlb.S:62
	li	    a3, 0x1					// load a 1 to check against
9fc00310:	24070001 	li	a3,1
C:\Users\Matt\Projects\mipsfpga-display\src\c\basic_dot/init_tlb.S:63
	bne	    v1, a3, done_init_tlb
9fc00314:	1467000f 	bne	v1,a3,9fc00354 <done_init_tlb>
C:\Users\Matt\Projects\mipsfpga-display\src\c\basic_dot/init_tlb.S:64
	mfc0    v0, C0_CONFIG1			// C0_Config1
9fc00318:	40028001 	mfc0	v0,c0_config1
C:\Users\Matt\Projects\mipsfpga-display\src\c\basic_dot/init_tlb.S:65
	nop
9fc0031c:	00000000 	nop

9fc00320 <start_init_tlb>:
C:\Users\Matt\Projects\mipsfpga-display\src\c\basic_dot/init_tlb.S:69

start_init_tlb:
	// Config1MMUSize == Number of TLB entries - 1
	ext     v1, v0, CFG1_MMUSSHIFT, 6 // extract MMU Size
9fc00320:	7c432e40 	ext	v1,v0,0x19,0x6
C:\Users\Matt\Projects\mipsfpga-display\src\c\basic_dot/init_tlb.S:70
	mtc0    zero, C0_ENTRYLO0		// write C0_EntryLo0
9fc00324:	40801000 	mtc0	zero,c0_entrylo0
C:\Users\Matt\Projects\mipsfpga-display\src\c\basic_dot/init_tlb.S:71
	mtc0    zero, C0_ENTRYLO1		// write C0_EntryLo1
9fc00328:	40801800 	mtc0	zero,c0_entrylo1
C:\Users\Matt\Projects\mipsfpga-display\src\c\basic_dot/init_tlb.S:72
	mtc0    zero, C0_PAGEMASK		// write C0_PageMask
9fc0032c:	40802800 	mtc0	zero,c0_pagemask
C:\Users\Matt\Projects\mipsfpga-display\src\c\basic_dot/init_tlb.S:73
	mtc0    zero, C0_WIRED			// write C0_Wired
9fc00330:	40803000 	mtc0	zero,c0_wired
C:\Users\Matt\Projects\mipsfpga-display\src\c\basic_dot/init_tlb.S:74
	li	    a0, 0x80000000
9fc00334:	3c048000 	lui	a0,0x8000

9fc00338 <next_tlb_entry_pair>:
C:\Users\Matt\Projects\mipsfpga-display\src\c\basic_dot/init_tlb.S:77

next_tlb_entry_pair:
	mtc0    v1, C0_INDEX			// write C0_Index
9fc00338:	40830000 	mtc0	v1,c0_index
C:\Users\Matt\Projects\mipsfpga-display\src\c\basic_dot/init_tlb.S:78
	mtc0	a0, C0_ENTRYHI			// write C0_EntryHi
9fc0033c:	40845000 	mtc0	a0,c0_entryhi
C:\Users\Matt\Projects\mipsfpga-display\src\c\basic_dot/init_tlb.S:79
	ehb
9fc00340:	000000c0 	ehb
C:\Users\Matt\Projects\mipsfpga-display\src\c\basic_dot/init_tlb.S:80
	tlbwi
9fc00344:	42000002 	tlbwi
C:\Users\Matt\Projects\mipsfpga-display\src\c\basic_dot/init_tlb.S:81
	add	    a0, (2<<13)				// Add 8K to the address to avoid TLB conflict with previous entry
9fc00348:	20844000 	addi	a0,a0,16384
C:\Users\Matt\Projects\mipsfpga-display\src\c\basic_dot/init_tlb.S:83

	bne		v1, zero, next_tlb_entry_pair
9fc0034c:	1460fffa 	bnez	v1,9fc00338 <next_tlb_entry_pair>
C:\Users\Matt\Projects\mipsfpga-display\src\c\basic_dot/init_tlb.S:84
	add	    v1, -1
9fc00350:	2063ffff 	addi	v1,v1,-1

9fc00354 <done_init_tlb>:
C:\Users\Matt\Projects\mipsfpga-display\src\c\basic_dot/init_tlb.S:87

done_init_tlb:
    jr      ra
9fc00354:	03e00008 	jr	ra
C:\Users\Matt\Projects\mipsfpga-display\src\c\basic_dot/init_tlb.S:88
    nop
9fc00358:	00000000 	nop
	...
C:\Users\Matt\Projects\mipsfpga-display\src\c\basic_dot/boot.S:168
#include "init_tlb.S"


.org 0x380    /* General exception. */
    # display alternating one-zeros on board LEDs
    li      k0, BOARD_16_LEDS_ADDR  # Board LEDs display
9fc00380:	3c1abf80 	lui	k0,0xbf80
C:\Users\Matt\Projects\mipsfpga-display\src\c\basic_dot/boot.S:169
    li      k1, 0x5555          # alternating one-zeros
9fc00384:	241b5555 	li	k1,21845
C:\Users\Matt\Projects\mipsfpga-display\src\c\basic_dot/boot.S:170
    sw      k1, 0(k0)           # Write pattern to LEDs
9fc00388:	af5b0000 	sw	k1,0(k0)
C:\Users\Matt\Projects\mipsfpga-display\src\c\basic_dot/boot.S:171
    eret
9fc0038c:	42000018 	eret
	...
C:\Users\Matt\Projects\mipsfpga-display\src\c\basic_dot/boot.S:178

# If you want the above code to fit into 1k flash you will need to leave out the
# code below. This is the code that covers the debug exception which you normally will not get.

.org 0x480 /* EJTAG debug exception (EJTAG Control Register[ProbTrap] == 0.) */
    li      r24_malta_word, BOARD_16_LEDS_ADDR     # If post boot then $24 is clobbered.
9fc00480:	3c18bf80 	lui	t8,0xbf80
C:\Users\Matt\Projects\mipsfpga-display\src\c\basic_dot/boot.S:179
    mtc0    a0, C0_DESAVE       # DeSave a0
9fc00484:	4084f800 	mtc0	a0,c0_desave
C:\Users\Matt\Projects\mipsfpga-display\src\c\basic_dot/boot.S:180
    mfc0    a0, C0_DEPC         # Read DEPC
9fc00488:	4004c000 	mfc0	a0,c0_depc
C:\Users\Matt\Projects\mipsfpga-display\src\c\basic_dot/boot.S:181
    sw      a0, 0(r24_malta_word)    # Display lower 16 bits of DEPC if there is not an EJTAG probe.
9fc0048c:	af040000 	sw	a0,0(t8)
C:\Users\Matt\Projects\mipsfpga-display\src\c\basic_dot/boot.S:182
    mfc0    a0, C0_DESAVE       # Restore a0
9fc00490:	4004f800 	mfc0	a0,c0_desave
C:\Users\Matt\Projects\mipsfpga-display\src\c\basic_dot/boot.S:183
1:  b       1b  /* Stay here */
9fc00494:	1000ffff 	b	9fc00494 <done_init_tlb+0x140>
C:\Users\Matt\Projects\mipsfpga-display\src\c\basic_dot/boot.S:184
    nop
9fc00498:	00000000 	nop
done_init_tlb():
9fc0049c:	00000000 	nop

Disassembly of section .exception_vector:

80000000 <__exception_entry>:
/user/mipsswt/git/newlib/libgloss/mips/hal/lib/mips/mips_excpt_entry.S:67
80000000:	3c1b8000 	lui	k1,0x8000
80000004:	277b14b0 	addiu	k1,k1,5296
/user/mipsswt/git/newlib/libgloss/mips/hal/lib/mips/mips_excpt_entry.S:68
80000008:	8f7b0000 	lw	k1,0(k1)
/user/mipsswt/git/newlib/libgloss/mips/hal/lib/mips/mips_excpt_entry.S:69
8000000c:	13600003 	beqz	k1,8000001c <__exception_entry+0x1c>
80000010:	00000000 	nop
/user/mipsswt/git/newlib/libgloss/mips/hal/lib/mips/mips_excpt_entry.S:72
80000014:	080000c9 	j	80000324 <_start>
80000018:	00000000 	nop
/user/mipsswt/git/newlib/libgloss/mips/hal/lib/mips/mips_excpt_entry.S:74
8000001c:	3c1b8000 	lui	k1,0x8000
80000020:	277b18b0 	addiu	k1,k1,6320
/user/mipsswt/git/newlib/libgloss/mips/hal/lib/mips/mips_excpt_entry.S:75
80000024:	1360fff6 	beqz	k1,80000000 <__exception_entry>
80000028:	00000000 	nop
/user/mipsswt/git/newlib/libgloss/mips/hal/lib/mips/mips_excpt_entry.S:76
8000002c:	03600008 	jr	k1
80000030:	00000000 	nop
	...

80000080 <__xtlb_refill_loop>:
/user/mipsswt/git/newlib/libgloss/mips/hal/lib/mips/mips_excpt_entry.S:82
80000080:	3c1b8000 	lui	k1,0x8000
80000084:	277b18b0 	addiu	k1,k1,6320
/user/mipsswt/git/newlib/libgloss/mips/hal/lib/mips/mips_excpt_entry.S:83
80000088:	1360fffd 	beqz	k1,80000080 <__xtlb_refill_loop>
8000008c:	00000000 	nop
/user/mipsswt/git/newlib/libgloss/mips/hal/lib/mips/mips_excpt_entry.S:84
80000090:	03600008 	jr	k1
80000094:	00000000 	nop
	...

80000100 <__cache_error_loop>:
/user/mipsswt/git/newlib/libgloss/mips/hal/lib/mips/mips_excpt_entry.S:89
80000100:	3c1b0000 	lui	k1,0x0
80000104:	277b0000 	addiu	k1,k1,0
/user/mipsswt/git/newlib/libgloss/mips/hal/lib/mips/mips_excpt_entry.S:90
80000108:	1360fffd 	beqz	k1,80000100 <__cache_error_loop>
8000010c:	00000000 	nop
/user/mipsswt/git/newlib/libgloss/mips/hal/lib/mips/mips_excpt_entry.S:91
80000110:	03600008 	jr	k1
80000114:	00000000 	nop
	...
/user/mipsswt/git/newlib/libgloss/mips/hal/lib/mips/mips_excpt_entry.S:95
80000180:	afbbffc8 	sw	k1,-56(sp)
/user/mipsswt/git/newlib/libgloss/mips/hal/lib/mips/mips_excpt_entry.S:98
80000184:	3c1b8000 	lui	k1,0x8000
80000188:	277b18b0 	addiu	k1,k1,6320
/user/mipsswt/git/newlib/libgloss/mips/hal/lib/mips/mips_excpt_entry.S:99
8000018c:	03600008 	jr	k1
80000190:	00000000 	nop
	...

80000200 <__isr_vec>:
/user/mipsswt/git/newlib/libgloss/mips/hal/lib/mips/mips_excpt_isr.S:46
80000200:	3c1b0000 	lui	k1,0x0
80000204:	277b0000 	addiu	k1,k1,0
/user/mipsswt/git/newlib/libgloss/mips/hal/lib/mips/mips_excpt_isr.S:47
80000208:	1360003d 	beqz	k1,80000300 <__isr_vec_fallback>
8000020c:	00000000 	nop
/user/mipsswt/git/newlib/libgloss/mips/hal/lib/mips/mips_excpt_isr.S:48
80000210:	03600008 	jr	k1
80000214:	00000000 	nop
	...

80000220 <__isr_vec_sw1>:
/user/mipsswt/git/newlib/libgloss/mips/hal/lib/mips/mips_excpt_isr.S:52
80000220:	3c1b0000 	lui	k1,0x0
80000224:	277b0000 	addiu	k1,k1,0
/user/mipsswt/git/newlib/libgloss/mips/hal/lib/mips/mips_excpt_isr.S:53
80000228:	13600035 	beqz	k1,80000300 <__isr_vec_fallback>
8000022c:	00000000 	nop
/user/mipsswt/git/newlib/libgloss/mips/hal/lib/mips/mips_excpt_isr.S:54
80000230:	03600008 	jr	k1
80000234:	00000000 	nop
	...

80000240 <__isr_vec_hw0>:
/user/mipsswt/git/newlib/libgloss/mips/hal/lib/mips/mips_excpt_isr.S:58
80000240:	3c1b0000 	lui	k1,0x0
80000244:	277b0000 	addiu	k1,k1,0
/user/mipsswt/git/newlib/libgloss/mips/hal/lib/mips/mips_excpt_isr.S:59
80000248:	1360002d 	beqz	k1,80000300 <__isr_vec_fallback>
8000024c:	00000000 	nop
/user/mipsswt/git/newlib/libgloss/mips/hal/lib/mips/mips_excpt_isr.S:60
80000250:	03600008 	jr	k1
80000254:	00000000 	nop
	...

80000260 <__isr_vec_hw1>:
/user/mipsswt/git/newlib/libgloss/mips/hal/lib/mips/mips_excpt_isr.S:64
80000260:	3c1b0000 	lui	k1,0x0
80000264:	277b0000 	addiu	k1,k1,0
/user/mipsswt/git/newlib/libgloss/mips/hal/lib/mips/mips_excpt_isr.S:65
80000268:	13600025 	beqz	k1,80000300 <__isr_vec_fallback>
8000026c:	00000000 	nop
/user/mipsswt/git/newlib/libgloss/mips/hal/lib/mips/mips_excpt_isr.S:66
80000270:	03600008 	jr	k1
80000274:	00000000 	nop
	...

80000280 <__isr_vec_hw2>:
/user/mipsswt/git/newlib/libgloss/mips/hal/lib/mips/mips_excpt_isr.S:70
80000280:	3c1b0000 	lui	k1,0x0
80000284:	277b0000 	addiu	k1,k1,0
/user/mipsswt/git/newlib/libgloss/mips/hal/lib/mips/mips_excpt_isr.S:71
80000288:	1360001d 	beqz	k1,80000300 <__isr_vec_fallback>
8000028c:	00000000 	nop
/user/mipsswt/git/newlib/libgloss/mips/hal/lib/mips/mips_excpt_isr.S:72
80000290:	03600008 	jr	k1
80000294:	00000000 	nop
	...

800002a0 <__isr_vec_hw3>:
/user/mipsswt/git/newlib/libgloss/mips/hal/lib/mips/mips_excpt_isr.S:76
800002a0:	3c1b0000 	lui	k1,0x0
800002a4:	277b0000 	addiu	k1,k1,0
/user/mipsswt/git/newlib/libgloss/mips/hal/lib/mips/mips_excpt_isr.S:77
800002a8:	13600015 	beqz	k1,80000300 <__isr_vec_fallback>
800002ac:	00000000 	nop
/user/mipsswt/git/newlib/libgloss/mips/hal/lib/mips/mips_excpt_isr.S:78
800002b0:	03600008 	jr	k1
800002b4:	00000000 	nop
	...

800002c0 <__isr_vec_hw4>:
/user/mipsswt/git/newlib/libgloss/mips/hal/lib/mips/mips_excpt_isr.S:82
800002c0:	3c1b0000 	lui	k1,0x0
800002c4:	277b0000 	addiu	k1,k1,0
/user/mipsswt/git/newlib/libgloss/mips/hal/lib/mips/mips_excpt_isr.S:83
800002c8:	1360000d 	beqz	k1,80000300 <__isr_vec_fallback>
800002cc:	00000000 	nop
/user/mipsswt/git/newlib/libgloss/mips/hal/lib/mips/mips_excpt_isr.S:84
800002d0:	03600008 	jr	k1
800002d4:	00000000 	nop
	...

800002e0 <__isr_vec_hw5>:
/user/mipsswt/git/newlib/libgloss/mips/hal/lib/mips/mips_excpt_isr.S:88
800002e0:	3c1b0000 	lui	k1,0x0
800002e4:	277b0000 	addiu	k1,k1,0
/user/mipsswt/git/newlib/libgloss/mips/hal/lib/mips/mips_excpt_isr.S:89
800002e8:	13600005 	beqz	k1,80000300 <__isr_vec_fallback>
800002ec:	00000000 	nop
/user/mipsswt/git/newlib/libgloss/mips/hal/lib/mips/mips_excpt_isr.S:90
800002f0:	03600008 	jr	k1
800002f4:	00000000 	nop
	...

80000300 <__isr_vec_fallback>:
/user/mipsswt/git/newlib/libgloss/mips/hal/lib/mips/mips_excpt_isr.S:95
80000300:	3c1b0000 	lui	k1,0x0
80000304:	277b0000 	addiu	k1,k1,0
/user/mipsswt/git/newlib/libgloss/mips/hal/lib/mips/mips_excpt_isr.S:96
80000308:	1360fffd 	beqz	k1,80000300 <__isr_vec_fallback>
8000030c:	00000000 	nop
/user/mipsswt/git/newlib/libgloss/mips/hal/lib/mips/mips_excpt_isr.S:97
80000310:	03600008 	jr	k1
80000314:	00000000 	nop
	...

Disassembly of section .text:

80000320 <_ftext>:
/user/mipsswt/git/newlib/libgloss/mips/crt0.S:82
80000320:	00000000 	nop

80000324 <_start>:
/user/mipsswt/git/newlib/libgloss/mips/crt0.S:115
80000324:	3c088000 	lui	t0,0x8000
80000328:	25081f90 	addiu	t0,t0,8080
/user/mipsswt/git/newlib/libgloss/mips/crt0.S:116
8000032c:	ad040000 	sw	a0,0(t0)
/user/mipsswt/git/newlib/libgloss/mips/crt0.S:117
80000330:	ad050004 	sw	a1,4(t0)
/user/mipsswt/git/newlib/libgloss/mips/crt0.S:125
80000334:	ad060008 	sw	a2,8(t0)
80000338:	3c198000 	lui	t9,0x8000
8000033c:	273914b4 	addiu	t9,t9,5300
/user/mipsswt/git/newlib/libgloss/mips/crt0.S:126
80000340:	13200006 	beqz	t9,8000035c <_start+0x38>
80000344:	00000000 	nop
/user/mipsswt/git/newlib/libgloss/mips/crt0.S:127
80000348:	03e02021 	move	a0,ra
/user/mipsswt/git/newlib/libgloss/mips/crt0.S:128
8000034c:	0320f809 	jalr	t9
80000350:	00000000 	nop
/user/mipsswt/git/newlib/libgloss/mips/crt0.S:129
80000354:	10000004 	b	80000368 <_start+0x44>
80000358:	00000000 	nop
/user/mipsswt/git/newlib/libgloss/mips/crt0.S:132
8000035c:	40806800 	mtc0	zero,c0_cause
/user/mipsswt/git/newlib/libgloss/mips/crt0.S:133
80000360:	00000000 	nop
/user/mipsswt/git/newlib/libgloss/mips/crt0.S:134
80000364:	00001021 	move	v0,zero
/user/mipsswt/git/newlib/libgloss/mips/crt0.S:140
80000368:	3c088000 	lui	t0,0x8000
8000036c:	25081ad0 	addiu	t0,t0,6864
/user/mipsswt/git/newlib/libgloss/mips/crt0.S:141
80000370:	3c098000 	lui	t1,0x8000
80000374:	25291ae8 	addiu	t1,t1,6888
/user/mipsswt/git/newlib/libgloss/mips/crt0.S:142
80000378:	2529ffe8 	addiu	t1,t1,-24
/user/mipsswt/git/newlib/libgloss/mips/crt0.S:146
8000037c:	15090021 	bne	t0,t1,80000404 <_start+0xe0>
80000380:	00000000 	nop
/user/mipsswt/git/newlib/libgloss/mips/crt0.S:149
80000384:	91090002 	lbu	t1,2(t0)
/user/mipsswt/git/newlib/libgloss/mips/crt0.S:150
80000388:	2d230003 	sltiu	v1,t1,3
/user/mipsswt/git/newlib/libgloss/mips/crt0.S:152
8000038c:	10600003 	beqz	v1,8000039c <_start+0x78>
80000390:	39290040 	xori	t1,t1,0x40
/user/mipsswt/git/newlib/libgloss/mips/crt0.S:153
80000394:	3c030010 	lui	v1,0x10
/user/mipsswt/git/newlib/libgloss/mips/crt0.S:154
80000398:	00431025 	or	v0,v0,v1
/user/mipsswt/git/newlib/libgloss/mips/crt0.S:157
8000039c:	15200002 	bnez	t1,800003a8 <_start+0x84>
800003a0:	240300e0 	li	v1,224
/user/mipsswt/git/newlib/libgloss/mips/crt0.S:158
800003a4:	00431025 	or	v0,v0,v1
/user/mipsswt/git/newlib/libgloss/mips/crt0.S:161
800003a8:	8d09000c 	lw	t1,12(t0)
/user/mipsswt/git/newlib/libgloss/mips/crt0.S:162
800003ac:	31290013 	andi	t1,t1,0x13
/user/mipsswt/git/newlib/libgloss/mips/crt0.S:164
800003b0:	11200002 	beqz	t1,800003bc <_start+0x98>
800003b4:	3c030100 	lui	v1,0x100
/user/mipsswt/git/newlib/libgloss/mips/crt0.S:165
800003b8:	00431025 	or	v0,v0,v1
/user/mipsswt/git/newlib/libgloss/mips/crt0.S:168
800003bc:	91090007 	lbu	t1,7(t0)
/user/mipsswt/git/newlib/libgloss/mips/crt0.S:169
800003c0:	39290003 	xori	t1,t1,0x3
/user/mipsswt/git/newlib/libgloss/mips/crt0.S:171
800003c4:	11200010 	beqz	t1,80000408 <_start+0xe4>
800003c8:	3c032000 	lui	v1,0x2000
/user/mipsswt/git/newlib/libgloss/mips/crt0.S:172
800003cc:	00431025 	or	v0,v0,v1
/user/mipsswt/git/newlib/libgloss/mips/crt0.S:175
800003d0:	91090005 	lbu	t1,5(t0)
/user/mipsswt/git/newlib/libgloss/mips/crt0.S:176
800003d4:	39290002 	xori	t1,t1,0x2
/user/mipsswt/git/newlib/libgloss/mips/crt0.S:178
800003d8:	15200002 	bnez	t1,800003e4 <_start+0xc0>
800003dc:	3c030400 	lui	v1,0x400
/user/mipsswt/git/newlib/libgloss/mips/crt0.S:179
800003e0:	00431025 	or	v0,v0,v1
/user/mipsswt/git/newlib/libgloss/mips/crt0.S:182
800003e4:	8d09000c 	lw	t1,12(t0)
/user/mipsswt/git/newlib/libgloss/mips/crt0.S:183
800003e8:	31290200 	andi	t1,t1,0x200
/user/mipsswt/git/newlib/libgloss/mips/crt0.S:185
800003ec:	11200006 	beqz	t1,80000408 <_start+0xe4>
800003f0:	3c030400 	lui	v1,0x400
/user/mipsswt/git/newlib/libgloss/mips/crt0.S:186
800003f4:	00431025 	or	v0,v0,v1
/user/mipsswt/git/newlib/libgloss/mips/crt0.S:187
800003f8:	3c030800 	lui	v1,0x800
/user/mipsswt/git/newlib/libgloss/mips/crt0.S:192
800003fc:	10000002 	b	80000408 <_start+0xe4>
80000400:	40838005 	mtc0	v1,$16,5
/user/mipsswt/git/newlib/libgloss/mips/crt0.S:198
80000404:	24020000 	li	v0,0
/user/mipsswt/git/newlib/libgloss/mips/crt0.S:205
80000408:	40826000 	mtc0	v0,c0_status
/user/mipsswt/git/newlib/libgloss/mips/crt0.S:206
8000040c:	00000000 	nop
/user/mipsswt/git/newlib/libgloss/mips/crt0.S:209
80000410:	3c080000 	lui	t0,0x0
80000414:	25080000 	addiu	t0,t0,0
/user/mipsswt/git/newlib/libgloss/mips/crt0.S:210
80000418:	11000003 	beqz	t0,80000428 <_start+0x104>
8000041c:	00000000 	nop
/user/mipsswt/git/newlib/libgloss/mips/crt0.S:211
80000420:	0100f809 	jalr	t0
/user/mipsswt/git/newlib/libgloss/mips/crt0.S:217
80000424:	00000000 	nop
80000428:	3c028000 	lui	v0,0x8000
8000042c:	24420438 	addiu	v0,v0,1080
/user/mipsswt/git/newlib/libgloss/mips/crt0.S:218
80000430:	00400008 	jr	v0
80000434:	00000000 	nop
/user/mipsswt/git/newlib/libgloss/mips/crt0.S:220
80000438:	3c1c8001 	lui	gp,0x8001
/user/mipsswt/git/newlib/libgloss/mips/crt0.S:231
8000043c:	279ca428 	addiu	gp,gp,-23512

80000440 <zerobss>:
80000440:	3c028000 	lui	v0,0x8000
80000444:	24422434 	addiu	v0,v0,9268
/user/mipsswt/git/newlib/libgloss/mips/crt0.S:232
80000448:	3c038000 	lui	v1,0x8000
8000044c:	24632454 	addiu	v1,v1,9300
/user/mipsswt/git/newlib/libgloss/mips/crt0.S:233
80000450:	10430004 	beq	v0,v1,80000464 <zerobss+0x24>
80000454:	00000000 	nop
/user/mipsswt/git/newlib/libgloss/mips/crt0.S:235
80000458:	24420004 	addiu	v0,v0,4
/user/mipsswt/git/newlib/libgloss/mips/crt0.S:237
8000045c:	1443fffe 	bne	v0,v1,80000458 <zerobss+0x18>
80000460:	ac40fffc 	sw	zero,-4(v0)
/user/mipsswt/git/newlib/libgloss/mips/crt0.S:240
80000464:	3c088004 	lui	t0,0x8004
80000468:	25080000 	addiu	t0,t0,0
/user/mipsswt/git/newlib/libgloss/mips/crt0.S:241
8000046c:	1500000b 	bnez	t0,8000049c <zerobss+0x5c>
80000470:	00000000 	nop
/user/mipsswt/git/newlib/libgloss/mips/crt0.S:243
80000474:	3c1d8000 	lui	sp,0x8000
80000478:	27bd2860 	addiu	sp,sp,10336
/user/mipsswt/git/newlib/libgloss/mips/crt0.S:245
8000047c:	24040000 	li	a0,0
/user/mipsswt/git/newlib/libgloss/mips/crt0.S:246
80000480:	3c058000 	lui	a1,0x8000
/user/mipsswt/git/newlib/libgloss/mips/crt0.S:247
80000484:	0c000331 	jal	80000cc4 <_get_ram_range>
80000488:	24a52860 	addiu	a1,a1,10336
/user/mipsswt/git/newlib/libgloss/mips/crt0.S:250
8000048c:	3c048000 	lui	a0,0x8000
80000490:	24842860 	addiu	a0,a0,10336
/user/mipsswt/git/newlib/libgloss/mips/crt0.S:251
80000494:	8c880000 	lw	t0,0(a0)
/user/mipsswt/git/newlib/libgloss/mips/crt0.S:252
80000498:	8d00fffc 	lw	zero,-4(t0)
/user/mipsswt/git/newlib/libgloss/mips/crt0.S:257
8000049c:	2508ffc0 	addiu	t0,t0,-64
/user/mipsswt/git/newlib/libgloss/mips/crt0.S:273
800004a0:	0100e821 	move	sp,t0

800004a4 <init>:
800004a4:	3c190000 	lui	t9,0x0
800004a8:	27390000 	addiu	t9,t9,0
/user/mipsswt/git/newlib/libgloss/mips/crt0.S:274
800004ac:	13200003 	beqz	t9,800004bc <init+0x18>
800004b0:	00000000 	nop
/user/mipsswt/git/newlib/libgloss/mips/crt0.S:275
800004b4:	0320f809 	jalr	t9
800004b8:	00000000 	nop
/user/mipsswt/git/newlib/libgloss/mips/crt0.S:277
800004bc:	3c190000 	lui	t9,0x0
800004c0:	27390000 	addiu	t9,t9,0
/user/mipsswt/git/newlib/libgloss/mips/crt0.S:278
800004c4:	13200003 	beqz	t9,800004d4 <init+0x30>
800004c8:	00000000 	nop
/user/mipsswt/git/newlib/libgloss/mips/crt0.S:279
800004cc:	0320f809 	jalr	t9
800004d0:	00000000 	nop
/user/mipsswt/git/newlib/libgloss/mips/crt0.S:281
800004d4:	3c048000 	lui	a0,0x8000
800004d8:	24841a9c 	addiu	a0,a0,6812
/user/mipsswt/git/newlib/libgloss/mips/crt0.S:282
800004dc:	0c000226 	jal	80000898 <atexit>
800004e0:	00000000 	nop
/user/mipsswt/git/newlib/libgloss/mips/crt0.S:292
800004e4:	0c00069e 	jal	80001a78 <_init>
800004e8:	00000000 	nop
/user/mipsswt/git/newlib/libgloss/mips/crt0.S:295
800004ec:	3c088000 	lui	t0,0x8000
800004f0:	25081f90 	addiu	t0,t0,8080
/user/mipsswt/git/newlib/libgloss/mips/crt0.S:296
800004f4:	8d040000 	lw	a0,0(t0)
/user/mipsswt/git/newlib/libgloss/mips/crt0.S:297
800004f8:	8d050004 	lw	a1,4(t0)
/user/mipsswt/git/newlib/libgloss/mips/crt0.S:298
800004fc:	8d060008 	lw	a2,8(t0)
/user/mipsswt/git/newlib/libgloss/mips/crt0.S:302
80000500:	3c088000 	lui	t0,0x8000
80000504:	25081750 	addiu	t0,t0,5968
/user/mipsswt/git/newlib/libgloss/mips/crt0.S:303
80000508:	11000003 	beqz	t0,80000518 <init+0x74>
8000050c:	00000000 	nop
/user/mipsswt/git/newlib/libgloss/mips/crt0.S:304
80000510:	0100f809 	jalr	t0
80000514:	00000000 	nop
/user/mipsswt/git/newlib/libgloss/mips/crt0.S:307
80000518:	1c800013 	bgtz	a0,80000568 <init+0xc4>
8000051c:	00000000 	nop
/user/mipsswt/git/newlib/libgloss/mips/crt0.S:309
80000520:	1080000c 	beqz	a0,80000554 <init+0xb0>
80000524:	00000000 	nop
/user/mipsswt/git/newlib/libgloss/mips/crt0.S:312
80000528:	2884ffff 	slti	a0,a0,-1
/user/mipsswt/git/newlib/libgloss/mips/crt0.S:313
8000052c:	14800009 	bnez	a0,80000554 <init+0xb0>
80000530:	00000000 	nop
/user/mipsswt/git/newlib/libgloss/mips/crt0.S:317
80000534:	3c088000 	lui	t0,0x8000
80000538:	25080c0c 	addiu	t0,t0,3084
/user/mipsswt/git/newlib/libgloss/mips/crt0.S:318
8000053c:	11000005 	beqz	t0,80000554 <init+0xb0>
80000540:	00000000 	nop
/user/mipsswt/git/newlib/libgloss/mips/crt0.S:319
80000544:	0100f809 	jalr	t0
80000548:	00000000 	nop
/user/mipsswt/git/newlib/libgloss/mips/crt0.S:320
8000054c:	10000006 	b	80000568 <init+0xc4>
80000550:	00000000 	nop
/user/mipsswt/git/newlib/libgloss/mips/crt0.S:323
80000554:	00002021 	move	a0,zero
/user/mipsswt/git/newlib/libgloss/mips/crt0.S:324
80000558:	27a50020 	addiu	a1,sp,32
/user/mipsswt/git/newlib/libgloss/mips/crt0.S:325
8000055c:	27a60028 	addiu	a2,sp,40
/user/mipsswt/git/newlib/libgloss/mips/crt0.S:326
80000560:	aca00000 	sw	zero,0(a1)
/user/mipsswt/git/newlib/libgloss/mips/crt0.S:327
80000564:	acc00000 	sw	zero,0(a2)
/user/mipsswt/git/newlib/libgloss/mips/crt0.S:330
80000568:	0c0001d7 	jal	8000075c <main>
8000056c:	00000000 	nop
/user/mipsswt/git/newlib/libgloss/mips/crt0.S:334
80000570:	0c000230 	jal	800008c0 <exit>
80000574:	00402021 	move	a0,v0

80000578 <_exit>:
/user/mipsswt/git/newlib/libgloss/mips/crt0.S:359
80000578:	3c088000 	lui	t0,0x8000
8000057c:	25081f90 	addiu	t0,t0,8080
/user/mipsswt/git/newlib/libgloss/mips/crt0.S:360
80000580:	ad040000 	sw	a0,0(t0)
/user/mipsswt/git/newlib/libgloss/mips/crt0.S:377
80000584:	3c080000 	lui	t0,0x0
80000588:	25080000 	addiu	t0,t0,0
/user/mipsswt/git/newlib/libgloss/mips/crt0.S:378
8000058c:	11000003 	beqz	t0,8000059c <_exit+0x24>
80000590:	00000000 	nop
/user/mipsswt/git/newlib/libgloss/mips/crt0.S:379
80000594:	0100f809 	jalr	t0
80000598:	00000000 	nop
/user/mipsswt/git/newlib/libgloss/mips/crt0.S:383
8000059c:	3c088000 	lui	t0,0x8000
800005a0:	25081f90 	addiu	t0,t0,8080
/user/mipsswt/git/newlib/libgloss/mips/crt0.S:387
800005a4:	0c0002e1 	jal	80000b84 <__exit>
800005a8:	8d040000 	lw	a0,0(t0)
/user/mipsswt/git/newlib/libgloss/mips/crt0.S:390
800005ac:	03ff000d 	break	0x3ff
/user/mipsswt/git/newlib/libgloss/mips/crt0.S:391
800005b0:	1000fff1 	b	80000578 <_exit>
800005b4:	00000000 	nop

800005b8 <deregister_tm_clones>:
deregister_tm_clones():
800005b8:	3c048000 	lui	a0,0x8000
800005bc:	3c028000 	lui	v0,0x8000
800005c0:	24842424 	addiu	a0,a0,9252
800005c4:	24422427 	addiu	v0,v0,9255
800005c8:	00441023 	subu	v0,v0,a0
800005cc:	2c420007 	sltiu	v0,v0,7
800005d0:	14400006 	bnez	v0,800005ec <deregister_tm_clones+0x34>
800005d4:	3c190000 	lui	t9,0x0
800005d8:	27390000 	addiu	t9,t9,0
800005dc:	13200003 	beqz	t9,800005ec <deregister_tm_clones+0x34>
800005e0:	00000000 	nop
800005e4:	03200008 	jr	t9
800005e8:	00000000 	nop
800005ec:	03e00008 	jr	ra
800005f0:	00000000 	nop

800005f4 <register_tm_clones>:
register_tm_clones():
800005f4:	3c048000 	lui	a0,0x8000
800005f8:	3c028000 	lui	v0,0x8000
800005fc:	24842424 	addiu	a0,a0,9252
80000600:	24422424 	addiu	v0,v0,9252
80000604:	00441023 	subu	v0,v0,a0
80000608:	00021083 	sra	v0,v0,0x2
8000060c:	00022fc2 	srl	a1,v0,0x1f
80000610:	00a22821 	addu	a1,a1,v0
80000614:	00052843 	sra	a1,a1,0x1
80000618:	10a00006 	beqz	a1,80000634 <register_tm_clones+0x40>
8000061c:	3c190000 	lui	t9,0x0
80000620:	27390000 	addiu	t9,t9,0
80000624:	13200003 	beqz	t9,80000634 <register_tm_clones+0x40>
80000628:	00000000 	nop
8000062c:	03200008 	jr	t9
80000630:	00000000 	nop
80000634:	03e00008 	jr	ra
80000638:	00000000 	nop

8000063c <__do_global_dtors_aux>:
__do_global_dtors_aux():
8000063c:	27bdffd8 	addiu	sp,sp,-40
80000640:	afb10018 	sw	s1,24(sp)
80000644:	3c118000 	lui	s1,0x8000
80000648:	afbf0024 	sw	ra,36(sp)
8000064c:	afb30020 	sw	s3,32(sp)
80000650:	afb2001c 	sw	s2,28(sp)
80000654:	afb00014 	sw	s0,20(sp)
80000658:	92222434 	lbu	v0,9268(s1)
8000065c:	14400020 	bnez	v0,800006e0 <__do_global_dtors_aux+0xa4>
80000660:	3c028000 	lui	v0,0x8000
80000664:	3c108000 	lui	s0,0x8000
80000668:	24421ac8 	addiu	v0,v0,6856
8000066c:	26101acc 	addiu	s0,s0,6860
80000670:	3c138000 	lui	s3,0x8000
80000674:	02028023 	subu	s0,s0,v0
80000678:	00409021 	move	s2,v0
8000067c:	00108083 	sra	s0,s0,0x2
80000680:	2610ffff 	addiu	s0,s0,-1
80000684:	8e622438 	lw	v0,9272(s3)
80000688:	0050182b 	sltu	v1,v0,s0
8000068c:	10600009 	beqz	v1,800006b4 <__do_global_dtors_aux+0x78>
80000690:	24420001 	addiu	v0,v0,1
80000694:	ae622438 	sw	v0,9272(s3)
80000698:	00021080 	sll	v0,v0,0x2
8000069c:	02421021 	addu	v0,s2,v0
800006a0:	8c420000 	lw	v0,0(v0)
800006a4:	0040f809 	jalr	v0
800006a8:	00000000 	nop
800006ac:	1000fff6 	b	80000688 <__do_global_dtors_aux+0x4c>
800006b0:	8e622438 	lw	v0,9272(s3)
800006b4:	0c00016e 	jal	800005b8 <deregister_tm_clones>
800006b8:	00000000 	nop
800006bc:	3c020000 	lui	v0,0x0
800006c0:	24420000 	addiu	v0,v0,0
800006c4:	10400005 	beqz	v0,800006dc <__do_global_dtors_aux+0xa0>
800006c8:	24020001 	li	v0,1
800006cc:	3c048000 	lui	a0,0x8000
800006d0:	0c000000 	jal	80000000 <__app_start>
800006d4:	24841ab8 	addiu	a0,a0,6840
800006d8:	24020001 	li	v0,1
800006dc:	a2222434 	sb	v0,9268(s1)
800006e0:	8fbf0024 	lw	ra,36(sp)
800006e4:	8fb30020 	lw	s3,32(sp)
800006e8:	8fb2001c 	lw	s2,28(sp)
800006ec:	8fb10018 	lw	s1,24(sp)
800006f0:	8fb00014 	lw	s0,20(sp)
800006f4:	03e00008 	jr	ra
800006f8:	27bd0028 	addiu	sp,sp,40

800006fc <frame_dummy>:
frame_dummy():
800006fc:	3c020000 	lui	v0,0x0
80000700:	27bdffe8 	addiu	sp,sp,-24
80000704:	24420000 	addiu	v0,v0,0
80000708:	10400006 	beqz	v0,80000724 <frame_dummy+0x28>
8000070c:	afbf0014 	sw	ra,20(sp)
80000710:	3c048000 	lui	a0,0x8000
80000714:	3c058000 	lui	a1,0x8000
80000718:	24841ab8 	addiu	a0,a0,6840
8000071c:	0c000000 	jal	80000000 <__app_start>
80000720:	24a5243c 	addiu	a1,a1,9276
80000724:	3c048000 	lui	a0,0x8000
80000728:	24841abc 	addiu	a0,a0,6844
8000072c:	8c820000 	lw	v0,0(a0)
80000730:	10400008 	beqz	v0,80000754 <frame_dummy+0x58>
80000734:	8fbf0014 	lw	ra,20(sp)
80000738:	3c020000 	lui	v0,0x0
8000073c:	24420000 	addiu	v0,v0,0
80000740:	10400004 	beqz	v0,80000754 <frame_dummy+0x58>
80000744:	00000000 	nop
80000748:	0040f809 	jalr	v0
8000074c:	00000000 	nop
80000750:	8fbf0014 	lw	ra,20(sp)
80000754:	0800017d 	j	800005f4 <register_tm_clones>
80000758:	27bd0018 	addiu	sp,sp,24

8000075c <main>:
main():
C:\Users\Matt\Projects\mipsfpga-display\src\c\basic_dot/main.c:26
  int *pal_ptr = (int*)MF_DISP_PAL_BASE;
  int *frm_ptr = (int*)MF_DISP_FRM_BASE;
  int i = 0;
  
  //Enable DISPLAY CTL0[0] = Enable
  *MF_DISP_CTL0 = 0x00000000;
8000075c:	3c02b0d0 	lui	v0,0xb0d0
80000760:	3443fe00 	ori	v1,v0,0xfe00
80000764:	ac600000 	sw	zero,0(v1)
C:\Users\Matt\Projects\mipsfpga-display\src\c\basic_dot/main.c:29

  //Load DISPLAY PALETTE
  *pal_ptr = 0x00000000; //Pal[0] = BLACK
80000768:	ac60fc00 	sw	zero,-1024(v1)
C:\Users\Matt\Projects\mipsfpga-display\src\c\basic_dot/main.c:31
  pal_ptr += 1;
  *pal_ptr = 0x0003F000; //Pal[1] = RED
8000076c:	3c040003 	lui	a0,0x3
80000770:	3484f000 	ori	a0,a0,0xf000
80000774:	ac64fc04 	sw	a0,-1020(v1)
C:\Users\Matt\Projects\mipsfpga-display\src\c\basic_dot/main.c:33
  pal_ptr += 1;
  *pal_ptr = 0x00000FC0; //Pal[2] = GREEN
80000778:	24050fc0 	li	a1,4032
8000077c:	ac65fc08 	sw	a1,-1016(v1)
C:\Users\Matt\Projects\mipsfpga-display\src\c\basic_dot/main.c:35
  pal_ptr += 1;
  *pal_ptr = 0x0000003F; //Pal[3] = BLUE
80000780:	2405003f 	li	a1,63
80000784:	ac65fc0c 	sw	a1,-1012(v1)
C:\Users\Matt\Projects\mipsfpga-display\src\c\basic_dot/main.c:37
  pal_ptr += 1;
  *pal_ptr = 0x0003FFFF; //Pal[4] = WHITE
80000788:	24840fff 	addiu	a0,a0,4095
8000078c:	ac64fc10 	sw	a0,-1008(v1)
C:\Users\Matt\Projects\mipsfpga-display\src\c\basic_dot/main.c:42
  pal_ptr += 1;

  //Alternating Red Dots
  for( i=0; i<4; i=i+1) {
     *frm_ptr = 0x01000100;
80000790:	3c040100 	lui	a0,0x100
80000794:	24840100 	addiu	a0,a0,256
80000798:	ac440000 	sw	a0,0(v0)
8000079c:	ac440004 	sw	a0,4(v0)
800007a0:	ac440008 	sw	a0,8(v0)
800007a4:	ac44000c 	sw	a0,12(v0)
C:\Users\Matt\Projects\mipsfpga-display\src\c\basic_dot/main.c:47
     frm_ptr += 1;
  }
  //Alternating Green Dots
  for( i=0; i<4; i=i+1) {
     *frm_ptr = 0x02000200;
800007a8:	3c040200 	lui	a0,0x200
800007ac:	24840200 	addiu	a0,a0,512
800007b0:	ac440010 	sw	a0,16(v0)
800007b4:	ac440014 	sw	a0,20(v0)
800007b8:	ac440018 	sw	a0,24(v0)
800007bc:	ac44001c 	sw	a0,28(v0)
C:\Users\Matt\Projects\mipsfpga-display\src\c\basic_dot/main.c:52
     frm_ptr += 1;
  }
  //Alternating Blue Dots
  for( i=0; i<4; i=i+1) {
     *frm_ptr = 0x03000300;
800007c0:	3c040300 	lui	a0,0x300
800007c4:	24840300 	addiu	a0,a0,768
800007c8:	ac440020 	sw	a0,32(v0)
800007cc:	ac440024 	sw	a0,36(v0)
800007d0:	ac440028 	sw	a0,40(v0)
800007d4:	ac44002c 	sw	a0,44(v0)
C:\Users\Matt\Projects\mipsfpga-display\src\c\basic_dot/main.c:57
     frm_ptr += 1;
  }
  //Alternating White Dots
  for( i=0; i<4; i=i+1) {
     *frm_ptr = 0x04000400;
800007d8:	3c040400 	lui	a0,0x400
800007dc:	24840400 	addiu	a0,a0,1024
800007e0:	ac440030 	sw	a0,48(v0)
800007e4:	ac440034 	sw	a0,52(v0)
800007e8:	ac440038 	sw	a0,56(v0)
800007ec:	ac44003c 	sw	a0,60(v0)
C:\Users\Matt\Projects\mipsfpga-display\src\c\basic_dot/main.c:62
     frm_ptr += 1;
  }
  
  //Switch DISPLAY Frame CTL1[0] = Switch
  *MF_DISP_CTL1 = 0x00000001;
800007f0:	24020001 	li	v0,1
800007f4:	ac620004 	sw	v0,4(v1)
C:\Users\Matt\Projects\mipsfpga-display\src\c\basic_dot/main.c:64
  //Enable DISPLAY CTL0[0] = Enable
  *MF_DISP_CTL0 = 0x00000001;
800007f8:	ac620000 	sw	v0,0(v1)
C:\Users\Matt\Projects\mipsfpga-display\src\c\basic_dot/main.c:68 (discriminator 1)



  while(1) { }
800007fc:	1000ffff 	b	800007fc <main+0xa0>
80000800:	00000000 	nop

80000804 <delay>:
delay():
C:\Users\Matt\Projects\mipsfpga-display\src\c\basic_dot/main.c:72
  return 0;
}

void delay() {
80000804:	27bdfff8 	addiu	sp,sp,-8
C:\Users\Matt\Projects\mipsfpga-display\src\c\basic_dot/main.c:75
  volatile unsigned int j;

  for (j = 0; j < (1000000); j++) ;	// delay 
80000808:	afa00000 	sw	zero,0(sp)
8000080c:	8fa30000 	lw	v1,0(sp)
80000810:	3c02000f 	lui	v0,0xf
80000814:	24424240 	addiu	v0,v0,16960
80000818:	0062102b 	sltu	v0,v1,v0
8000081c:	1040000a 	beqz	v0,80000848 <delay+0x44>
80000820:	00000000 	nop
C:\Users\Matt\Projects\mipsfpga-display\src\c\basic_dot/main.c:75 (discriminator 3)
80000824:	3c03000f 	lui	v1,0xf
80000828:	24634240 	addiu	v1,v1,16960
8000082c:	8fa20000 	lw	v0,0(sp)
80000830:	24420001 	addiu	v0,v0,1
80000834:	afa20000 	sw	v0,0(sp)
80000838:	8fa20000 	lw	v0,0(sp)
8000083c:	0043102b 	sltu	v0,v0,v1
80000840:	1440fffa 	bnez	v0,8000082c <delay+0x28>
80000844:	00000000 	nop
C:\Users\Matt\Projects\mipsfpga-display\src\c\basic_dot/main.c:76
}
80000848:	03e00008 	jr	ra
8000084c:	27bd0008 	addiu	sp,sp,8

80000850 <__do_global_ctors_aux>:
__do_global_ctors_aux():
80000850:	27bdffe0 	addiu	sp,sp,-32
80000854:	afb00014 	sw	s0,20(sp)
80000858:	3c108000 	lui	s0,0x8000
8000085c:	afb10018 	sw	s1,24(sp)
80000860:	2411ffff 	li	s1,-1
80000864:	26101ac0 	addiu	s0,s0,6848
80000868:	afbf001c 	sw	ra,28(sp)
8000086c:	8e020000 	lw	v0,0(s0)
80000870:	10510005 	beq	v0,s1,80000888 <__do_global_ctors_aux+0x38>
80000874:	8fbf001c 	lw	ra,28(sp)
80000878:	0040f809 	jalr	v0
8000087c:	2610fffc 	addiu	s0,s0,-4
80000880:	1000fffb 	b	80000870 <__do_global_ctors_aux+0x20>
80000884:	8e020000 	lw	v0,0(s0)
80000888:	8fb10018 	lw	s1,24(sp)
8000088c:	8fb00014 	lw	s0,20(sp)
80000890:	03e00008 	jr	ra
80000894:	27bd0020 	addiu	sp,sp,32

80000898 <atexit>:
atexit():
/user/mipsswt/git/newlib/newlib/libc/stdlib/atexit.c:64
80000898:	27bdffe8 	addiu	sp,sp,-24
8000089c:	00802821 	move	a1,a0
/user/mipsswt/git/newlib/newlib/libc/stdlib/atexit.c:65
800008a0:	00003021 	move	a2,zero
/user/mipsswt/git/newlib/newlib/libc/stdlib/atexit.c:64
800008a4:	afbf0014 	sw	ra,20(sp)
/user/mipsswt/git/newlib/newlib/libc/stdlib/atexit.c:65
800008a8:	00002021 	move	a0,zero
800008ac:	0c00023f 	jal	800008fc <__register_exitproc>
800008b0:	00003821 	move	a3,zero
/user/mipsswt/git/newlib/newlib/libc/stdlib/atexit.c:66
800008b4:	8fbf0014 	lw	ra,20(sp)
800008b8:	03e00008 	jr	ra
800008bc:	27bd0018 	addiu	sp,sp,24

800008c0 <exit>:
exit():
/user/mipsswt/git/newlib/newlib/libc/stdlib/exit.c:60
800008c0:	27bdffe8 	addiu	sp,sp,-24
/user/mipsswt/git/newlib/newlib/libc/stdlib/exit.c:66
800008c4:	00002821 	move	a1,zero
/user/mipsswt/git/newlib/newlib/libc/stdlib/exit.c:60
800008c8:	afb00010 	sw	s0,16(sp)
800008cc:	afbf0014 	sw	ra,20(sp)
/user/mipsswt/git/newlib/newlib/libc/stdlib/exit.c:66
800008d0:	0c000281 	jal	80000a04 <__call_exitprocs>
800008d4:	00808021 	move	s0,a0
/user/mipsswt/git/newlib/newlib/libc/stdlib/exit.c:68
800008d8:	3c028000 	lui	v0,0x8000
800008dc:	8c44242c 	lw	a0,9260(v0)
800008e0:	8c82003c 	lw	v0,60(a0)
800008e4:	10400003 	beqz	v0,800008f4 <exit+0x34>
800008e8:	00000000 	nop
/user/mipsswt/git/newlib/newlib/libc/stdlib/exit.c:69
800008ec:	0040f809 	jalr	v0
800008f0:	00000000 	nop
/user/mipsswt/git/newlib/newlib/libc/stdlib/exit.c:70
800008f4:	0c00015e 	jal	80000578 <_exit>
800008f8:	02002021 	move	a0,s0

800008fc <__register_exitproc>:
__register_exitproc():
/user/mipsswt/git/newlib/newlib/libc/stdlib/__atexit.c:80
800008fc:	3c028000 	lui	v0,0x8000
/user/mipsswt/git/newlib/newlib/libc/stdlib/__atexit.c:72
80000900:	27bdffd8 	addiu	sp,sp,-40
80000904:	afb00010 	sw	s0,16(sp)
/user/mipsswt/git/newlib/newlib/libc/stdlib/__atexit.c:80
80000908:	8c50242c 	lw	s0,9260(v0)
/user/mipsswt/git/newlib/newlib/libc/stdlib/__atexit.c:72
8000090c:	afb40020 	sw	s4,32(sp)
80000910:	00c0a021 	move	s4,a2
80000914:	afb3001c 	sw	s3,28(sp)
80000918:	00e09821 	move	s3,a3
8000091c:	afb20018 	sw	s2,24(sp)
80000920:	00a09021 	move	s2,a1
80000924:	afb10014 	sw	s1,20(sp)
80000928:	afbf0024 	sw	ra,36(sp)
/user/mipsswt/git/newlib/newlib/libc/stdlib/__atexit.c:80
8000092c:	8e020148 	lw	v0,328(s0)
/user/mipsswt/git/newlib/newlib/libc/stdlib/__atexit.c:81
80000930:	14400003 	bnez	v0,80000940 <__register_exitproc+0x44>
80000934:	00808821 	move	s1,a0
/user/mipsswt/git/newlib/newlib/libc/stdlib/__atexit.c:82
80000938:	2602014c 	addiu	v0,s0,332
8000093c:	ae020148 	sw	v0,328(s0)
/user/mipsswt/git/newlib/newlib/libc/stdlib/__atexit.c:83
80000940:	8c430004 	lw	v1,4(v0)
80000944:	28630020 	slti	v1,v1,32
80000948:	1460000f 	bnez	v1,80000988 <__register_exitproc+0x8c>
8000094c:	00000000 	nop
/user/mipsswt/git/newlib/newlib/libc/stdlib/__atexit.c:90
80000950:	3c020000 	lui	v0,0x0
80000954:	24420000 	addiu	v0,v0,0
80000958:	10400022 	beqz	v0,800009e4 <__register_exitproc+0xe8>
8000095c:	2402ffff 	li	v0,-1
/user/mipsswt/git/newlib/newlib/libc/stdlib/__atexit.c:93
80000960:	0c000000 	jal	80000000 <__app_start>
80000964:	24040190 	li	a0,400
/user/mipsswt/git/newlib/newlib/libc/stdlib/__atexit.c:94
80000968:	5040001e 	beqzl	v0,800009e4 <__register_exitproc+0xe8>
8000096c:	2402ffff 	li	v0,-1
/user/mipsswt/git/newlib/newlib/libc/stdlib/__atexit.c:102
80000970:	8e030148 	lw	v1,328(s0)
/user/mipsswt/git/newlib/newlib/libc/stdlib/__atexit.c:101
80000974:	ac400004 	sw	zero,4(v0)
/user/mipsswt/git/newlib/newlib/libc/stdlib/__atexit.c:102
80000978:	ac430000 	sw	v1,0(v0)
/user/mipsswt/git/newlib/newlib/libc/stdlib/__atexit.c:103
8000097c:	ae020148 	sw	v0,328(s0)
/user/mipsswt/git/newlib/newlib/libc/stdlib/__atexit.c:105
80000980:	ac400188 	sw	zero,392(v0)
/user/mipsswt/git/newlib/newlib/libc/stdlib/__atexit.c:106
80000984:	ac40018c 	sw	zero,396(v0)
/user/mipsswt/git/newlib/newlib/libc/stdlib/__atexit.c:113
80000988:	1220000f 	beqz	s1,800009c8 <__register_exitproc+0xcc>
8000098c:	8c430004 	lw	v1,4(v0)
80000990:	00034080 	sll	t0,v1,0x2
/user/mipsswt/git/newlib/newlib/libc/stdlib/__atexit.c:137
80000994:	24060001 	li	a2,1
80000998:	00484021 	addu	t0,v0,t0
8000099c:	00663004 	sllv	a2,a2,v1
/user/mipsswt/git/newlib/newlib/libc/stdlib/__atexit.c:136
800009a0:	ad140088 	sw	s4,136(t0)
/user/mipsswt/git/newlib/newlib/libc/stdlib/__atexit.c:139
800009a4:	24040002 	li	a0,2
/user/mipsswt/git/newlib/newlib/libc/stdlib/__atexit.c:137
800009a8:	8c490188 	lw	t1,392(v0)
800009ac:	01264825 	or	t1,t1,a2
800009b0:	ac490188 	sw	t1,392(v0)
/user/mipsswt/git/newlib/newlib/libc/stdlib/__atexit.c:139
800009b4:	16240004 	bne	s1,a0,800009c8 <__register_exitproc+0xcc>
800009b8:	ad130108 	sw	s3,264(t0)
/user/mipsswt/git/newlib/newlib/libc/stdlib/__atexit.c:140
800009bc:	8c44018c 	lw	a0,396(v0)
800009c0:	00863025 	or	a2,a0,a2
800009c4:	ac46018c 	sw	a2,396(v0)
/user/mipsswt/git/newlib/newlib/libc/stdlib/__atexit.c:142
800009c8:	24640001 	addiu	a0,v1,1
800009cc:	24630002 	addiu	v1,v1,2
800009d0:	00031880 	sll	v1,v1,0x2
800009d4:	ac440004 	sw	a0,4(v0)
800009d8:	00431021 	addu	v0,v0,v1
800009dc:	ac520000 	sw	s2,0(v0)
/user/mipsswt/git/newlib/newlib/libc/stdlib/__atexit.c:146
800009e0:	00001021 	move	v0,zero
/user/mipsswt/git/newlib/newlib/libc/stdlib/__atexit.c:147
800009e4:	8fbf0024 	lw	ra,36(sp)
800009e8:	8fb40020 	lw	s4,32(sp)
800009ec:	8fb3001c 	lw	s3,28(sp)
800009f0:	8fb20018 	lw	s2,24(sp)
800009f4:	8fb10014 	lw	s1,20(sp)
800009f8:	8fb00010 	lw	s0,16(sp)
800009fc:	03e00008 	jr	ra
80000a00:	27bd0028 	addiu	sp,sp,40

80000a04 <__call_exitprocs>:
__call_exitprocs():
/user/mipsswt/git/newlib/newlib/libc/stdlib/__call_atexit.c:83
80000a04:	3c028000 	lui	v0,0x8000
/user/mipsswt/git/newlib/newlib/libc/stdlib/__call_atexit.c:68
80000a08:	27bdffc0 	addiu	sp,sp,-64
/user/mipsswt/git/newlib/newlib/libc/stdlib/__call_atexit.c:83
80000a0c:	8c42242c 	lw	v0,9260(v0)
/user/mipsswt/git/newlib/newlib/libc/stdlib/__call_atexit.c:68
80000a10:	afb30024 	sw	s3,36(sp)
/user/mipsswt/git/newlib/newlib/libc/stdlib/__call_atexit.c:136
80000a14:	3c130000 	lui	s3,0x0
/user/mipsswt/git/newlib/newlib/libc/stdlib/__call_atexit.c:68
80000a18:	afb70034 	sw	s7,52(sp)
/user/mipsswt/git/newlib/newlib/libc/stdlib/__call_atexit.c:96
80000a1c:	24170001 	li	s7,1
/user/mipsswt/git/newlib/newlib/libc/stdlib/__call_atexit.c:136
80000a20:	26730000 	addiu	s3,s3,0
/user/mipsswt/git/newlib/newlib/libc/stdlib/__call_atexit.c:68
80000a24:	afb60030 	sw	s6,48(sp)
80000a28:	afb40028 	sw	s4,40(sp)
80000a2c:	0080b021 	move	s6,a0
80000a30:	afbf003c 	sw	ra,60(sp)
80000a34:	00a0a021 	move	s4,a1
80000a38:	afbe0038 	sw	s8,56(sp)
80000a3c:	afb5002c 	sw	s5,44(sp)
80000a40:	afb20020 	sw	s2,32(sp)
80000a44:	afb1001c 	sw	s1,28(sp)
80000a48:	afb00018 	sw	s0,24(sp)
/user/mipsswt/git/newlib/newlib/libc/stdlib/__call_atexit.c:83
80000a4c:	afa20010 	sw	v0,16(sp)
80000a50:	8fa20010 	lw	v0,16(sp)
/user/mipsswt/git/newlib/newlib/libc/stdlib/__call_atexit.c:84
80000a54:	24520148 	addiu	s2,v0,328
/user/mipsswt/git/newlib/newlib/libc/stdlib/__call_atexit.c:83
80000a58:	8c500148 	lw	s0,328(v0)
/user/mipsswt/git/newlib/newlib/libc/stdlib/__call_atexit.c:85
80000a5c:	1200003e 	beqz	s0,80000b58 <__call_exitprocs+0x154>
80000a60:	8fbf003c 	lw	ra,60(sp)
/user/mipsswt/git/newlib/newlib/libc/stdlib/__call_atexit.c:92
80000a64:	8e110004 	lw	s1,4(s0)
80000a68:	2635ffff 	addiu	s5,s1,-1
80000a6c:	00118880 	sll	s1,s1,0x2
80000a70:	02118821 	addu	s1,s0,s1
/user/mipsswt/git/newlib/newlib/libc/stdlib/__call_atexit.c:92 (discriminator 1)
80000a74:	06a0001e 	bltz	s5,80000af0 <__call_exitprocs+0xec>
80000a78:	00000000 	nop
/user/mipsswt/git/newlib/newlib/libc/stdlib/__call_atexit.c:99
80000a7c:	52800005 	beqzl	s4,80000a94 <__call_exitprocs+0x90>
80000a80:	8e040004 	lw	a0,4(s0)
/user/mipsswt/git/newlib/newlib/libc/stdlib/__call_atexit.c:99 (discriminator 2)
80000a84:	8e230104 	lw	v1,260(s1)
80000a88:	54740017 	bnel	v1,s4,80000ae8 <__call_exitprocs+0xe4>
80000a8c:	26b5ffff 	addiu	s5,s5,-1
/user/mipsswt/git/newlib/newlib/libc/stdlib/__call_atexit.c:105
80000a90:	8e040004 	lw	a0,4(s0)
80000a94:	2484ffff 	addiu	a0,a0,-1
80000a98:	16a40003 	bne	s5,a0,80000aa8 <__call_exitprocs+0xa4>
80000a9c:	8e230004 	lw	v1,4(s1)
80000aa0:	10000002 	b	80000aac <__call_exitprocs+0xa8>
80000aa4:	ae150004 	sw	s5,4(s0)
/user/mipsswt/git/newlib/newlib/libc/stdlib/__call_atexit.c:108
80000aa8:	ae200004 	sw	zero,4(s1)
/user/mipsswt/git/newlib/newlib/libc/stdlib/__call_atexit.c:111
80000aac:	1060000d 	beqz	v1,80000ae4 <__call_exitprocs+0xe0>
80000ab0:	02b72004 	sllv	a0,s7,s5
/user/mipsswt/git/newlib/newlib/libc/stdlib/__call_atexit.c:117
80000ab4:	8e050188 	lw	a1,392(s0)
80000ab8:	00852824 	and	a1,a0,a1
80000abc:	14a0001a 	bnez	a1,80000b28 <__call_exitprocs+0x124>
80000ac0:	8e1e0004 	lw	s8,4(s0)
/user/mipsswt/git/newlib/newlib/libc/stdlib/__call_atexit.c:118
80000ac4:	0060f809 	jalr	v1
80000ac8:	00000000 	nop
/user/mipsswt/git/newlib/newlib/libc/stdlib/__call_atexit.c:127
80000acc:	8e030004 	lw	v1,4(s0)
80000ad0:	17c3ffe0 	bne	s8,v1,80000a54 <__call_exitprocs+0x50>
80000ad4:	8fa20010 	lw	v0,16(sp)
/user/mipsswt/git/newlib/newlib/libc/stdlib/__call_atexit.c:127 (discriminator 1)
80000ad8:	8e430000 	lw	v1,0(s2)
80000adc:	5470ffde 	bnel	v1,s0,80000a58 <__call_exitprocs+0x54>
80000ae0:	24520148 	addiu	s2,v0,328
/user/mipsswt/git/newlib/newlib/libc/stdlib/__call_atexit.c:92 (discriminator 2)
80000ae4:	26b5ffff 	addiu	s5,s5,-1
80000ae8:	1000ffe2 	b	80000a74 <__call_exitprocs+0x70>
80000aec:	2631fffc 	addiu	s1,s1,-4
/user/mipsswt/git/newlib/newlib/libc/stdlib/__call_atexit.c:136
80000af0:	12600019 	beqz	s3,80000b58 <__call_exitprocs+0x154>
80000af4:	8fbf003c 	lw	ra,60(sp)
/user/mipsswt/git/newlib/newlib/libc/stdlib/__call_atexit.c:141
80000af8:	8e030004 	lw	v1,4(s0)
80000afc:	14600007 	bnez	v1,80000b1c <__call_exitprocs+0x118>
80000b00:	8e020000 	lw	v0,0(s0)
/user/mipsswt/git/newlib/newlib/libc/stdlib/__call_atexit.c:141 (discriminator 1)
80000b04:	10400005 	beqz	v0,80000b1c <__call_exitprocs+0x118>
80000b08:	02002021 	move	a0,s0
/user/mipsswt/git/newlib/newlib/libc/stdlib/__call_atexit.c:149
80000b0c:	0c000000 	jal	80000000 <__app_start>
80000b10:	ae420000 	sw	v0,0(s2)
/user/mipsswt/git/newlib/newlib/libc/stdlib/__call_atexit.c:150
80000b14:	1000ffd1 	b	80000a5c <__call_exitprocs+0x58>
80000b18:	8e500000 	lw	s0,0(s2)
/user/mipsswt/git/newlib/newlib/libc/stdlib/__call_atexit.c:154
80000b1c:	02009021 	move	s2,s0
/user/mipsswt/git/newlib/newlib/libc/stdlib/__call_atexit.c:155
80000b20:	1000ffce 	b	80000a5c <__call_exitprocs+0x58>
80000b24:	00408021 	move	s0,v0
/user/mipsswt/git/newlib/newlib/libc/stdlib/__call_atexit.c:119
80000b28:	8e06018c 	lw	a2,396(s0)
80000b2c:	00863024 	and	a2,a0,a2
80000b30:	14c00005 	bnez	a2,80000b48 <__call_exitprocs+0x144>
80000b34:	8e250084 	lw	a1,132(s1)
/user/mipsswt/git/newlib/newlib/libc/stdlib/__call_atexit.c:120
80000b38:	0060f809 	jalr	v1
80000b3c:	02c02021 	move	a0,s6
80000b40:	1000ffe3 	b	80000ad0 <__call_exitprocs+0xcc>
80000b44:	8e030004 	lw	v1,4(s0)
/user/mipsswt/git/newlib/newlib/libc/stdlib/__call_atexit.c:122
80000b48:	0060f809 	jalr	v1
80000b4c:	00a02021 	move	a0,a1
/user/mipsswt/git/newlib/newlib/libc/stdlib/__call_atexit.c:127
80000b50:	1000ffdf 	b	80000ad0 <__call_exitprocs+0xcc>
80000b54:	8e030004 	lw	v1,4(s0)
/user/mipsswt/git/newlib/newlib/libc/stdlib/__call_atexit.c:163
80000b58:	8fbe0038 	lw	s8,56(sp)
80000b5c:	8fb70034 	lw	s7,52(sp)
80000b60:	8fb60030 	lw	s6,48(sp)
80000b64:	8fb5002c 	lw	s5,44(sp)
80000b68:	8fb40028 	lw	s4,40(sp)
80000b6c:	8fb30024 	lw	s3,36(sp)
80000b70:	8fb20020 	lw	s2,32(sp)
80000b74:	8fb1001c 	lw	s1,28(sp)
80000b78:	8fb00018 	lw	s0,24(sp)
80000b7c:	03e00008 	jr	ra
80000b80:	27bd0040 	addiu	sp,sp,64

80000b84 <__exit>:
__exit():
/user/mipsswt/git/newlib/libgloss/mips/uhi_exit.c:61
80000b84:	27bdffd8 	addiu	sp,sp,-40
80000b88:	afb2001c 	sw	s2,28(sp)
/user/mipsswt/git/newlib/libgloss/mips/uhi_exit.c:83
80000b8c:	3c128000 	lui	s2,0x8000
/user/mipsswt/git/newlib/libgloss/mips/uhi_exit.c:61
80000b90:	afb10018 	sw	s1,24(sp)
/user/mipsswt/git/newlib/libgloss/mips/uhi_exit.c:81
80000b94:	3c118000 	lui	s1,0x8000
/user/mipsswt/git/newlib/libgloss/mips/uhi_exit.c:61
80000b98:	afb00014 	sw	s0,20(sp)
/user/mipsswt/git/newlib/libgloss/mips/uhi_exit.c:79
80000b9c:	3c100000 	lui	s0,0x0
/user/mipsswt/git/newlib/libgloss/mips/uhi_exit.c:81
80000ba0:	26311738 	addiu	s1,s1,5944
/user/mipsswt/git/newlib/libgloss/mips/uhi_exit.c:61
80000ba4:	afb30020 	sw	s3,32(sp)
/user/mipsswt/git/newlib/libgloss/mips/uhi_exit.c:79
80000ba8:	26100001 	addiu	s0,s0,1
/user/mipsswt/git/newlib/libgloss/mips/uhi_exit.c:61
80000bac:	afbf0024 	sw	ra,36(sp)
/user/mipsswt/git/newlib/libgloss/mips/uhi_exit.c:83
80000bb0:	265215e0 	addiu	s2,s2,5600
/user/mipsswt/git/newlib/libgloss/mips/uhi_exit.c:61
80000bb4:	00809821 	move	s3,a0
/user/mipsswt/git/newlib/libgloss/mips/uhi_exit.c:62
80000bb8:	02602021 	move	a0,s3
/user/mipsswt/git/newlib/libgloss/mips/uhi_exit.c:63
80000bbc:	24190001 	li	t9,1
/user/mipsswt/git/newlib/libgloss/mips/uhi_exit.c:64
80000bc0:	24020001 	li	v0,1
/user/mipsswt/git/newlib/libgloss/mips/uhi_exit.c:66
80000bc4:	0000004c 	syscall	0x1
/user/mipsswt/git/newlib/libgloss/mips/uhi_exit.c:79
80000bc8:	24020002 	li	v0,2
80000bcc:	16020005 	bne	s0,v0,80000be4 <__exit+0x60>
80000bd0:	24020001 	li	v0,1
/user/mipsswt/git/newlib/libgloss/mips/uhi_exit.c:83
80000bd4:	1240fff9 	beqz	s2,80000bbc <__exit+0x38>
80000bd8:	02602021 	move	a0,s3
/user/mipsswt/git/newlib/libgloss/mips/uhi_exit.c:84
80000bdc:	0c000578 	jal	800015e0 <__return_to_boot>
80000be0:	02602021 	move	a0,s3
/user/mipsswt/git/newlib/libgloss/mips/uhi_exit.c:80
80000be4:	1602fff5 	bne	s0,v0,80000bbc <__exit+0x38>
80000be8:	02602021 	move	a0,s3
/user/mipsswt/git/newlib/libgloss/mips/uhi_exit.c:81
80000bec:	1220fff4 	beqz	s1,80000bc0 <__exit+0x3c>
80000bf0:	24190001 	li	t9,1
/user/mipsswt/git/newlib/libgloss/mips/uhi_exit.c:82
80000bf4:	0c0005ce 	jal	80001738 <__get_startup_BEV>
80000bf8:	00000000 	nop
80000bfc:	1040fff5 	beqz	v0,80000bd4 <__exit+0x50>
80000c00:	02602021 	move	a0,s3
/user/mipsswt/git/newlib/libgloss/mips/uhi_exit.c:63
80000c04:	1000ffee 	b	80000bc0 <__exit+0x3c>
80000c08:	24190001 	li	t9,1

80000c0c <__getargs>:
/user/mipsswt/git/newlib/libgloss/mips/uhi_getargs.S:43
80000c0c:	00004021 	move	t0,zero
/user/mipsswt/git/newlib/libgloss/mips/uhi_getargs.S:44
80000c10:	00004821 	move	t1,zero
/user/mipsswt/git/newlib/libgloss/mips/uhi_getargs.S:46
80000c14:	24190009 	li	t9,9
/user/mipsswt/git/newlib/libgloss/mips/uhi_getargs.S:47
80000c18:	24020001 	li	v0,1
/user/mipsswt/git/newlib/libgloss/mips/uhi_getargs.S:49
80000c1c:	0000004c 	syscall	0x1
/user/mipsswt/git/newlib/libgloss/mips/uhi_getargs.S:52
80000c20:	18400022 	blez	v0,80000cac <__getargs+0xa0>
80000c24:	00000000 	nop
/user/mipsswt/git/newlib/libgloss/mips/uhi_getargs.S:54
80000c28:	00404021 	move	t0,v0
/user/mipsswt/git/newlib/libgloss/mips/uhi_getargs.S:55
80000c2c:	00085880 	sll	t3,t0,0x2
/user/mipsswt/git/newlib/libgloss/mips/uhi_getargs.S:56
80000c30:	256b0007 	addiu	t3,t3,7
/user/mipsswt/git/newlib/libgloss/mips/uhi_getargs.S:57
80000c34:	2401fff8 	li	at,-8
80000c38:	01615824 	and	t3,t3,at
/user/mipsswt/git/newlib/libgloss/mips/uhi_getargs.S:58
80000c3c:	03abe823 	subu	sp,sp,t3
/user/mipsswt/git/newlib/libgloss/mips/uhi_getargs.S:59
80000c40:	03a04821 	move	t1,sp
/user/mipsswt/git/newlib/libgloss/mips/uhi_getargs.S:60
80000c44:	00005021 	move	t2,zero
/user/mipsswt/git/newlib/libgloss/mips/uhi_getargs.S:64
80000c48:	2419000a 	li	t9,10
/user/mipsswt/git/newlib/libgloss/mips/uhi_getargs.S:65
80000c4c:	24020001 	li	v0,1
/user/mipsswt/git/newlib/libgloss/mips/uhi_getargs.S:66
80000c50:	01402021 	move	a0,t2
/user/mipsswt/git/newlib/libgloss/mips/uhi_getargs.S:68
80000c54:	0000004c 	syscall	0x1
/user/mipsswt/git/newlib/libgloss/mips/uhi_getargs.S:70
80000c58:	18400014 	blez	v0,80000cac <__getargs+0xa0>
80000c5c:	00000000 	nop
/user/mipsswt/git/newlib/libgloss/mips/uhi_getargs.S:72
80000c60:	24420001 	addiu	v0,v0,1
/user/mipsswt/git/newlib/libgloss/mips/uhi_getargs.S:73
80000c64:	24420007 	addiu	v0,v0,7
/user/mipsswt/git/newlib/libgloss/mips/uhi_getargs.S:74
80000c68:	2401fff8 	li	at,-8
80000c6c:	00411024 	and	v0,v0,at
/user/mipsswt/git/newlib/libgloss/mips/uhi_getargs.S:75
80000c70:	03a2e823 	subu	sp,sp,v0
/user/mipsswt/git/newlib/libgloss/mips/uhi_getargs.S:76
80000c74:	000a5880 	sll	t3,t2,0x2
/user/mipsswt/git/newlib/libgloss/mips/uhi_getargs.S:77
80000c78:	01695821 	addu	t3,t3,t1
/user/mipsswt/git/newlib/libgloss/mips/uhi_getargs.S:78
80000c7c:	ad7d0000 	sw	sp,0(t3)
/user/mipsswt/git/newlib/libgloss/mips/uhi_getargs.S:80
80000c80:	2419000b 	li	t9,11
/user/mipsswt/git/newlib/libgloss/mips/uhi_getargs.S:81
80000c84:	24020001 	li	v0,1
/user/mipsswt/git/newlib/libgloss/mips/uhi_getargs.S:82
80000c88:	01402021 	move	a0,t2
/user/mipsswt/git/newlib/libgloss/mips/uhi_getargs.S:83
80000c8c:	03a02821 	move	a1,sp
/user/mipsswt/git/newlib/libgloss/mips/uhi_getargs.S:85
80000c90:	0000004c 	syscall	0x1
/user/mipsswt/git/newlib/libgloss/mips/uhi_getargs.S:87
80000c94:	04400005 	bltz	v0,80000cac <__getargs+0xa0>
80000c98:	00000000 	nop
/user/mipsswt/git/newlib/libgloss/mips/uhi_getargs.S:89
80000c9c:	254a0001 	addiu	t2,t2,1
/user/mipsswt/git/newlib/libgloss/mips/uhi_getargs.S:90
80000ca0:	0148102a 	slt	v0,t2,t0
/user/mipsswt/git/newlib/libgloss/mips/uhi_getargs.S:91
80000ca4:	1440ffe8 	bnez	v0,80000c48 <__getargs+0x3c>
80000ca8:	00000000 	nop
/user/mipsswt/git/newlib/libgloss/mips/uhi_getargs.S:94
80000cac:	01002021 	move	a0,t0
/user/mipsswt/git/newlib/libgloss/mips/uhi_getargs.S:95
80000cb0:	01202821 	move	a1,t1
/user/mipsswt/git/newlib/libgloss/mips/uhi_getargs.S:99
80000cb4:	27bdffe0 	addiu	sp,sp,-32
/user/mipsswt/git/newlib/libgloss/mips/uhi_getargs.S:100
80000cb8:	27a60010 	addiu	a2,sp,16
/user/mipsswt/git/newlib/libgloss/mips/uhi_getargs.S:103
80000cbc:	03e00008 	jr	ra
80000cc0:	acc00000 	sw	zero,0(a2)

80000cc4 <_get_ram_range>:
_get_ram_range():
/user/mipsswt/git/newlib/libgloss/mips/uhi_get_ram_range.c:45
80000cc4:	3c030002 	lui	v1,0x2
/user/mipsswt/git/newlib/libgloss/mips/uhi_get_ram_range.c:40
80000cc8:	00803021 	move	a2,a0
/user/mipsswt/git/newlib/libgloss/mips/uhi_get_ram_range.c:45
80000ccc:	2463f800 	addiu	v1,v1,-2048
/user/mipsswt/git/newlib/libgloss/mips/uhi_get_ram_range.c:40
80000cd0:	00a03821 	move	a3,a1
/user/mipsswt/git/newlib/libgloss/mips/uhi_get_ram_range.c:41
80000cd4:	2419000c 	li	t9,12
/user/mipsswt/git/newlib/libgloss/mips/uhi_get_ram_range.c:45
80000cd8:	10600007 	beqz	v1,80000cf8 <_get_ram_range+0x34>
80000cdc:	24020001 	li	v0,1
80000ce0:	3c028000 	lui	v0,0x8000
/user/mipsswt/git/newlib/libgloss/mips/uhi_get_ram_range.c:47
80000ce4:	10800002 	beqz	a0,80000cf0 <_get_ram_range+0x2c>
80000ce8:	24420000 	addiu	v0,v0,0
/user/mipsswt/git/newlib/libgloss/mips/uhi_get_ram_range.c:48
80000cec:	ac820000 	sw	v0,0(a0)
/user/mipsswt/git/newlib/libgloss/mips/uhi_get_ram_range.c:50
80000cf0:	10000004 	b	80000d04 <_get_ram_range+0x40>
80000cf4:	00621821 	addu	v1,v1,v0
/user/mipsswt/git/newlib/libgloss/mips/uhi_get_ram_range.c:54
80000cf8:	0000004c 	syscall	0x1
/user/mipsswt/git/newlib/libgloss/mips/uhi_get_ram_range.c:60
80000cfc:	54c00001 	bnezl	a2,80000d04 <_get_ram_range+0x40>
80000d00:	acc20000 	sw	v0,0(a2)
/user/mipsswt/git/newlib/libgloss/mips/uhi_get_ram_range.c:62
80000d04:	03e00008 	jr	ra
80000d08:	ace30000 	sw	v1,0(a3)

80000d0c <putsnds.constprop.0>:
putsnds():
/user/mipsswt/git/newlib/libgloss/mips/hal/lib/mips/mips_excpt_handler.c:49
80000d0c:	27bdffd8 	addiu	sp,sp,-40
80000d10:	afb20020 	sw	s2,32(sp)
80000d14:	00a09021 	move	s2,a1
80000d18:	afb1001c 	sw	s1,28(sp)
80000d1c:	00808821 	move	s1,a0
80000d20:	afb00018 	sw	s0,24(sp)
80000d24:	00c08021 	move	s0,a2
/user/mipsswt/git/newlib/libgloss/mips/hal/lib/mips/mips_excpt_handler.c:55
80000d28:	10800007 	beqz	a0,80000d48 <putsnds.constprop.0+0x3c>
80000d2c:	afbf0024 	sw	ra,36(sp)
/user/mipsswt/git/newlib/libgloss/mips/hal/lib/mips/mips_excpt_handler.c:56
80000d30:	0c0005f8 	jal	800017e0 <strlen>
80000d34:	00000000 	nop
80000d38:	24040001 	li	a0,1
80000d3c:	02202821 	move	a1,s1
80000d40:	0c0005ff 	jal	800017fc <write>
80000d44:	00403021 	move	a2,v0
/user/mipsswt/git/newlib/libgloss/mips/hal/lib/mips/mips_excpt_handler.c:59
80000d48:	3c048000 	lui	a0,0x8000
/user/mipsswt/git/newlib/libgloss/mips/hal/lib/mips/mips_excpt_handler.c:49
80000d4c:	00001821 	move	v1,zero
/user/mipsswt/git/newlib/libgloss/mips/hal/lib/mips/mips_excpt_handler.c:59
80000d50:	24841b64 	addiu	a0,a0,7012
/user/mipsswt/git/newlib/libgloss/mips/hal/lib/mips/mips_excpt_handler.c:58
80000d54:	24060008 	li	a2,8
80000d58:	00031023 	negu	v0,v1
80000d5c:	27a50010 	addiu	a1,sp,16
80000d60:	00021080 	sll	v0,v0,0x2
/user/mipsswt/git/newlib/libgloss/mips/hal/lib/mips/mips_excpt_handler.c:59
80000d64:	24630001 	addiu	v1,v1,1
80000d68:	2442001c 	addiu	v0,v0,28
80000d6c:	00a33821 	addu	a3,a1,v1
80000d70:	00521006 	srlv	v0,s2,v0
80000d74:	3042000f 	andi	v0,v0,0xf
80000d78:	00441021 	addu	v0,v0,a0
80000d7c:	90420000 	lbu	v0,0(v0)
/user/mipsswt/git/newlib/libgloss/mips/hal/lib/mips/mips_excpt_handler.c:58
80000d80:	1466fff5 	bne	v1,a2,80000d58 <putsnds.constprop.0+0x4c>
80000d84:	a0e2ffff 	sb	v0,-1(a3)
/user/mipsswt/git/newlib/libgloss/mips/hal/lib/mips/mips_excpt_handler.c:60
80000d88:	24040001 	li	a0,1
80000d8c:	0c0005ff 	jal	800017fc <write>
80000d90:	24060008 	li	a2,8
/user/mipsswt/git/newlib/libgloss/mips/hal/lib/mips/mips_excpt_handler.c:62
80000d94:	12000008 	beqz	s0,80000db8 <putsnds.constprop.0+0xac>
80000d98:	8fbf0024 	lw	ra,36(sp)
/user/mipsswt/git/newlib/libgloss/mips/hal/lib/mips/mips_excpt_handler.c:63
80000d9c:	0c0005f8 	jal	800017e0 <strlen>
80000da0:	02002021 	move	a0,s0
80000da4:	24040001 	li	a0,1
80000da8:	02002821 	move	a1,s0
80000dac:	0c0005ff 	jal	800017fc <write>
80000db0:	00403021 	move	a2,v0
/user/mipsswt/git/newlib/libgloss/mips/hal/lib/mips/mips_excpt_handler.c:64
80000db4:	8fbf0024 	lw	ra,36(sp)
80000db8:	8fb20020 	lw	s2,32(sp)
80000dbc:	8fb1001c 	lw	s1,28(sp)
80000dc0:	8fb00018 	lw	s0,24(sp)
80000dc4:	03e00008 	jr	ra
80000dc8:	27bd0028 	addiu	sp,sp,40

80000dcc <putsns>:
putsns():
/user/mipsswt/git/newlib/libgloss/mips/hal/lib/mips/mips_excpt_handler.c:69
80000dcc:	08000343 	j	80000d0c <putsnds.constprop.0>
80000dd0:	00000000 	nop

80000dd4 <__exception_handle_verbose>:
__exception_handle_verbose():
/user/mipsswt/git/newlib/libgloss/mips/hal/lib/mips/mips_excpt_handler.c:95
80000dd4:	24a2ffff 	addiu	v0,a1,-1
/user/mipsswt/git/newlib/libgloss/mips/hal/lib/mips/mips_excpt_handler.c:94
80000dd8:	27bdffe0 	addiu	sp,sp,-32
/user/mipsswt/git/newlib/libgloss/mips/hal/lib/mips/mips_excpt_handler.c:95
80000ddc:	2c43001e 	sltiu	v1,v0,30
/user/mipsswt/git/newlib/libgloss/mips/hal/lib/mips/mips_excpt_handler.c:94
80000de0:	afb00010 	sw	s0,16(sp)
80000de4:	00808021 	move	s0,a0
80000de8:	afbf001c 	sw	ra,28(sp)
80000dec:	afb20018 	sw	s2,24(sp)
/user/mipsswt/git/newlib/libgloss/mips/hal/lib/mips/mips_excpt_handler.c:95
80000df0:	106000d5 	beqz	v1,80001148 <__exception_handle_verbose+0x374>
80000df4:	afb10014 	sw	s1,20(sp)
80000df8:	00021880 	sll	v1,v0,0x2
80000dfc:	3c028000 	lui	v0,0x8000
80000e00:	24421ae8 	addiu	v0,v0,6888
80000e04:	00431021 	addu	v0,v0,v1
80000e08:	8c420000 	lw	v0,0(v0)
80000e0c:	00400008 	jr	v0
80000e10:	00000000 	nop
/user/mipsswt/git/newlib/libgloss/mips/hal/lib/mips/mips_excpt_handler.c:98
80000e14:	3c058000 	lui	a1,0x8000
80000e18:	24040001 	li	a0,1
80000e1c:	100000a5 	b	800010b4 <__exception_handle_verbose+0x2e0>
80000e20:	24a51b78 	addiu	a1,a1,7032
/user/mipsswt/git/newlib/libgloss/mips/hal/lib/mips/mips_excpt_handler.c:101
80000e24:	3c048000 	lui	a0,0x8000
80000e28:	10000006 	b	80000e44 <__exception_handle_verbose+0x70>
80000e2c:	24841b94 	addiu	a0,a0,7060
/user/mipsswt/git/newlib/libgloss/mips/hal/lib/mips/mips_excpt_handler.c:105
80000e30:	3c048000 	lui	a0,0x8000
80000e34:	10000003 	b	80000e44 <__exception_handle_verbose+0x70>
80000e38:	24841bb0 	addiu	a0,a0,7088
/user/mipsswt/git/newlib/libgloss/mips/hal/lib/mips/mips_excpt_handler.c:109
80000e3c:	3c048000 	lui	a0,0x8000
80000e40:	24841bcc 	addiu	a0,a0,7116
80000e44:	8e050080 	lw	a1,128(s0)
80000e48:	0c000373 	jal	80000dcc <putsns>
80000e4c:	00003021 	move	a2,zero
/user/mipsswt/git/newlib/libgloss/mips/hal/lib/mips/mips_excpt_handler.c:110
80000e50:	3c048000 	lui	a0,0x8000
80000e54:	100000a6 	b	800010f0 <__exception_handle_verbose+0x31c>
80000e58:	24841da0 	addiu	a0,a0,7584
/user/mipsswt/git/newlib/libgloss/mips/hal/lib/mips/mips_excpt_handler.c:113
80000e5c:	3c048000 	lui	a0,0x8000
80000e60:	1000fff8 	b	80000e44 <__exception_handle_verbose+0x70>
80000e64:	24841bec 	addiu	a0,a0,7148
/user/mipsswt/git/newlib/libgloss/mips/hal/lib/mips/mips_excpt_handler.c:117
80000e68:	3c058000 	lui	a1,0x8000
80000e6c:	24040001 	li	a0,1
80000e70:	24a51c0c 	addiu	a1,a1,7180
80000e74:	24060016 	li	a2,22
80000e78:	0c0005ff 	jal	800017fc <write>
80000e7c:	3c118000 	lui	s1,0x8000
/user/mipsswt/git/newlib/libgloss/mips/hal/lib/mips/mips_excpt_handler.c:118
80000e80:	100000b8 	b	80001164 <__exception_handle_verbose+0x390>
80000e84:	3c048000 	lui	a0,0x8000
/user/mipsswt/git/newlib/libgloss/mips/hal/lib/mips/mips_excpt_handler.c:120
80000e88:	3c058000 	lui	a1,0x8000
80000e8c:	24040001 	li	a0,1
80000e90:	24a51c24 	addiu	a1,a1,7204
80000e94:	1000fff8 	b	80000e78 <__exception_handle_verbose+0xa4>
80000e98:	2406000f 	li	a2,15
/user/mipsswt/git/newlib/libgloss/mips/hal/lib/mips/mips_excpt_handler.c:131
80000e9c:	8c830060 	lw	v1,96(a0)
80000ea0:	24020017 	li	v0,23
80000ea4:	14620014 	bne	v1,v0,80000ef8 <__exception_handle_verbose+0x124>
80000ea8:	3c020000 	lui	v0,0x0
/user/mipsswt/git/newlib/libgloss/mips/hal/lib/mips/mips_excpt_handler.c:133
80000eac:	8c83000c 	lw	v1,12(a0)
80000eb0:	24020001 	li	v0,1
80000eb4:	14620005 	bne	v1,v0,80000ecc <__exception_handle_verbose+0xf8>
80000eb8:	24040001 	li	a0,1
/user/mipsswt/git/newlib/libgloss/mips/hal/lib/mips/mips_excpt_handler.c:136
80000ebc:	3c058000 	lui	a1,0x8000
80000ec0:	2406001d 	li	a2,29
80000ec4:	10000004 	b	80000ed8 <__exception_handle_verbose+0x104>
80000ec8:	24a51c34 	addiu	a1,a1,7220
/user/mipsswt/git/newlib/libgloss/mips/hal/lib/mips/mips_excpt_handler.c:139
80000ecc:	3c058000 	lui	a1,0x8000
80000ed0:	2406001b 	li	a2,27
80000ed4:	24a51c54 	addiu	a1,a1,7252
80000ed8:	0c0005ff 	jal	800017fc <write>
80000edc:	00000000 	nop
/user/mipsswt/git/newlib/libgloss/mips/hal/lib/mips/mips_excpt_handler.c:144
80000ee0:	3c028000 	lui	v0,0x8000
80000ee4:	24420b84 	addiu	v0,v0,2948
80000ee8:	ae02007c 	sw	v0,124(s0)
/user/mipsswt/git/newlib/libgloss/mips/hal/lib/mips/mips_excpt_handler.c:146
80000eec:	240200ff 	li	v0,255
/user/mipsswt/git/newlib/libgloss/mips/hal/lib/mips/mips_excpt_handler.c:147
80000ef0:	10000169 	b	80001498 <__exception_handle_verbose+0x6c4>
80000ef4:	ae02000c 	sw	v0,12(s0)
/user/mipsswt/git/newlib/libgloss/mips/hal/lib/mips/mips_excpt_handler.c:150
80000ef8:	24030002 	li	v1,2
80000efc:	24420001 	addiu	v0,v0,1
80000f00:	14430009 	bne	v0,v1,80000f28 <__exception_handle_verbose+0x154>
80000f04:	24030001 	li	v1,1
/user/mipsswt/git/newlib/libgloss/mips/hal/lib/mips/mips_excpt_handler.c:154
80000f08:	3c028000 	lui	v0,0x8000
80000f0c:	24421680 	addiu	v0,v0,5760
80000f10:	1040000e 	beqz	v0,80000f4c <__exception_handle_verbose+0x178>
80000f14:	00000000 	nop
/user/mipsswt/git/newlib/libgloss/mips/hal/lib/mips/mips_excpt_handler.c:156
80000f18:	0c0005a0 	jal	80001680 <__chain_uhi_excpt>
80000f1c:	02002021 	move	a0,s0
80000f20:	1000015e 	b	8000149c <__exception_handle_verbose+0x6c8>
80000f24:	8fbf001c 	lw	ra,28(sp)
/user/mipsswt/git/newlib/libgloss/mips/hal/lib/mips/mips_excpt_handler.c:151
80000f28:	14430008 	bne	v0,v1,80000f4c <__exception_handle_verbose+0x178>
80000f2c:	3c028000 	lui	v0,0x8000
/user/mipsswt/git/newlib/libgloss/mips/hal/lib/mips/mips_excpt_handler.c:152
80000f30:	24421738 	addiu	v0,v0,5944
80000f34:	10400005 	beqz	v0,80000f4c <__exception_handle_verbose+0x178>
80000f38:	00000000 	nop
/user/mipsswt/git/newlib/libgloss/mips/hal/lib/mips/mips_excpt_handler.c:153
80000f3c:	0c0005ce 	jal	80001738 <__get_startup_BEV>
80000f40:	00000000 	nop
80000f44:	1040fff1 	beqz	v0,80000f0c <__exception_handle_verbose+0x138>
80000f48:	3c028000 	lui	v0,0x8000
/user/mipsswt/git/newlib/libgloss/mips/hal/lib/mips/mips_excpt_handler.c:158
80000f4c:	0c000618 	jal	80001860 <__uhi_indirect>
80000f50:	02002021 	move	a0,s0
/user/mipsswt/git/newlib/libgloss/mips/hal/lib/mips/mips_excpt_handler.c:308
80000f54:	10000151 	b	8000149c <__exception_handle_verbose+0x6c8>
80000f58:	8fbf001c 	lw	ra,28(sp)
/user/mipsswt/git/newlib/libgloss/mips/hal/lib/mips/mips_excpt_handler.c:161
80000f5c:	3c048000 	lui	a0,0x8000
80000f60:	10000063 	b	800010f0 <__exception_handle_verbose+0x31c>
80000f64:	24841c70 	addiu	a0,a0,7280
/user/mipsswt/git/newlib/libgloss/mips/hal/lib/mips/mips_excpt_handler.c:164
80000f68:	3c048000 	lui	a0,0x8000
80000f6c:	10000060 	b	800010f0 <__exception_handle_verbose+0x31c>
80000f70:	24841c80 	addiu	a0,a0,7296
/user/mipsswt/git/newlib/libgloss/mips/hal/lib/mips/mips_excpt_handler.c:167
80000f74:	3c048000 	lui	a0,0x8000
80000f78:	1000005d 	b	800010f0 <__exception_handle_verbose+0x31c>
80000f7c:	24841c98 	addiu	a0,a0,7320
/user/mipsswt/git/newlib/libgloss/mips/hal/lib/mips/mips_excpt_handler.c:170
80000f80:	3c058000 	lui	a1,0x8000
80000f84:	24040001 	li	a0,1
80000f88:	24a51cb4 	addiu	a1,a1,7348
80000f8c:	1000ffba 	b	80000e78 <__exception_handle_verbose+0xa4>
80000f90:	24060009 	li	a2,9
/user/mipsswt/git/newlib/libgloss/mips/hal/lib/mips/mips_excpt_handler.c:173
80000f94:	3c058000 	lui	a1,0x8000
80000f98:	24040001 	li	a0,1
80000f9c:	24a51cc0 	addiu	a1,a1,7360
80000fa0:	1000ffb5 	b	80000e78 <__exception_handle_verbose+0xa4>
80000fa4:	24060005 	li	a2,5
/user/mipsswt/git/newlib/libgloss/mips/hal/lib/mips/mips_excpt_handler.c:177
80000fa8:	3c020000 	lui	v0,0x0
80000fac:	24420001 	addiu	v0,v0,1
80000fb0:	10400012 	beqz	v0,80000ffc <__exception_handle_verbose+0x228>
80000fb4:	3c058000 	lui	a1,0x8000
/user/mipsswt/git/newlib/libgloss/mips/hal/lib/mips/mips_excpt_handler.c:178
80000fb8:	787e0899 	cfcmsa	v0,msa_csr
80000fbc:	7c420440 	ext	v0,v0,0x11,0x1
80000fc0:	1040000e 	beqz	v0,80000ffc <__exception_handle_verbose+0x228>
80000fc4:	3c058000 	lui	a1,0x8000
/user/mipsswt/git/newlib/libgloss/mips/hal/lib/mips/mips_excpt_handler.c:179
80000fc8:	787e08d9 	cfcmsa	v1,msa_csr
80000fcc:	3c050100 	lui	a1,0x100
80000fd0:	00651824 	and	v1,v1,a1
80000fd4:	54600009 	bnezl	v1,80000ffc <__exception_handle_verbose+0x228>
80000fd8:	3c058000 	lui	a1,0x8000
/user/mipsswt/git/newlib/libgloss/mips/hal/lib/mips/mips_excpt_handler.c:181
80000fdc:	787e0899 	cfcmsa	v0,msa_csr
/user/mipsswt/git/newlib/libgloss/mips/hal/lib/mips/mips_excpt_handler.c:182
80000fe0:	3c04fffd 	lui	a0,0xfffd
80000fe4:	3484ffff 	ori	a0,a0,0xffff
80000fe8:	00441024 	and	v0,v0,a0
/user/mipsswt/git/newlib/libgloss/mips/hal/lib/mips/mips_excpt_handler.c:183
80000fec:	00451025 	or	v0,v0,a1
/user/mipsswt/git/newlib/libgloss/mips/hal/lib/mips/mips_excpt_handler.c:184
80000ff0:	783e1059 	ctcmsa	msa_csr,v0
/user/mipsswt/git/newlib/libgloss/mips/hal/lib/mips/mips_excpt_handler.c:185
80000ff4:	10000129 	b	8000149c <__exception_handle_verbose+0x6c8>
80000ff8:	8fbf001c 	lw	ra,28(sp)
/user/mipsswt/git/newlib/libgloss/mips/hal/lib/mips/mips_excpt_handler.c:188
80000ffc:	24040001 	li	a0,1
80001000:	24a51cc8 	addiu	a1,a1,7368
80001004:	1000ff9c 	b	80000e78 <__exception_handle_verbose+0xa4>
80001008:	24060019 	li	a2,25
/user/mipsswt/git/newlib/libgloss/mips/hal/lib/mips/mips_excpt_handler.c:193
8000100c:	3c020000 	lui	v0,0x0
80001010:	24420001 	addiu	v0,v0,1
80001014:	10400012 	beqz	v0,80001060 <__exception_handle_verbose+0x28c>
80001018:	3c058000 	lui	a1,0x8000
/user/mipsswt/git/newlib/libgloss/mips/hal/lib/mips/mips_excpt_handler.c:194
8000101c:	4442f800 	cfc1	v0,c1_fcsr
80001020:	7c420440 	ext	v0,v0,0x11,0x1
80001024:	1040000e 	beqz	v0,80001060 <__exception_handle_verbose+0x28c>
80001028:	3c058000 	lui	a1,0x8000
/user/mipsswt/git/newlib/libgloss/mips/hal/lib/mips/mips_excpt_handler.c:195
8000102c:	4443f800 	cfc1	v1,c1_fcsr
80001030:	3c050100 	lui	a1,0x100
80001034:	00651824 	and	v1,v1,a1
80001038:	54600009 	bnezl	v1,80001060 <__exception_handle_verbose+0x28c>
8000103c:	3c058000 	lui	a1,0x8000
/user/mipsswt/git/newlib/libgloss/mips/hal/lib/mips/mips_excpt_handler.c:197
80001040:	4442f800 	cfc1	v0,c1_fcsr
/user/mipsswt/git/newlib/libgloss/mips/hal/lib/mips/mips_excpt_handler.c:198
80001044:	3c04fffd 	lui	a0,0xfffd
80001048:	3484ffff 	ori	a0,a0,0xffff
8000104c:	00441024 	and	v0,v0,a0
/user/mipsswt/git/newlib/libgloss/mips/hal/lib/mips/mips_excpt_handler.c:199
80001050:	00451025 	or	v0,v0,a1
/user/mipsswt/git/newlib/libgloss/mips/hal/lib/mips/mips_excpt_handler.c:200
80001054:	44c2f800 	ctc1	v0,c1_fcsr
/user/mipsswt/git/newlib/libgloss/mips/hal/lib/mips/mips_excpt_handler.c:202
80001058:	10000110 	b	8000149c <__exception_handle_verbose+0x6c8>
8000105c:	8fbf001c 	lw	ra,28(sp)
/user/mipsswt/git/newlib/libgloss/mips/hal/lib/mips/mips_excpt_handler.c:204
80001060:	24040001 	li	a0,1
80001064:	24a51ccc 	addiu	a1,a1,7372
80001068:	1000ff83 	b	80000e78 <__exception_handle_verbose+0xa4>
8000106c:	24060015 	li	a2,21
/user/mipsswt/git/newlib/libgloss/mips/hal/lib/mips/mips_excpt_handler.c:207
80001070:	3c058000 	lui	a1,0x8000
80001074:	24040001 	li	a0,1
80001078:	10000004 	b	8000108c <__exception_handle_verbose+0x2b8>
8000107c:	24a51ce4 	addiu	a1,a1,7396
/user/mipsswt/git/newlib/libgloss/mips/hal/lib/mips/mips_excpt_handler.c:210
80001080:	3c058000 	lui	a1,0x8000
80001084:	24040001 	li	a0,1
80001088:	24a51d0c 	addiu	a1,a1,7436
8000108c:	1000ff7a 	b	80000e78 <__exception_handle_verbose+0xa4>
80001090:	24060027 	li	a2,39
/user/mipsswt/git/newlib/libgloss/mips/hal/lib/mips/mips_excpt_handler.c:213
80001094:	3c058000 	lui	a1,0x8000
80001098:	24040001 	li	a0,1
8000109c:	24a51d34 	addiu	a1,a1,7476
800010a0:	1000ff75 	b	80000e78 <__exception_handle_verbose+0xa4>
800010a4:	24060020 	li	a2,32
/user/mipsswt/git/newlib/libgloss/mips/hal/lib/mips/mips_excpt_handler.c:216
800010a8:	3c058000 	lui	a1,0x8000
800010ac:	24040001 	li	a0,1
800010b0:	24a51d58 	addiu	a1,a1,7512
800010b4:	1000ff70 	b	80000e78 <__exception_handle_verbose+0xa4>
800010b8:	2406001b 	li	a2,27
/user/mipsswt/git/newlib/libgloss/mips/hal/lib/mips/mips_excpt_handler.c:219
800010bc:	3c058000 	lui	a1,0x8000
800010c0:	24040001 	li	a0,1
800010c4:	24a51d74 	addiu	a1,a1,7540
800010c8:	1000ff6b 	b	80000e78 <__exception_handle_verbose+0xa4>
800010cc:	2406001e 	li	a2,30
/user/mipsswt/git/newlib/libgloss/mips/hal/lib/mips/mips_excpt_handler.c:222
800010d0:	3c048000 	lui	a0,0x8000
800010d4:	10000006 	b	800010f0 <__exception_handle_verbose+0x31c>
800010d8:	24841d94 	addiu	a0,a0,7572
/user/mipsswt/git/newlib/libgloss/mips/hal/lib/mips/mips_excpt_handler.c:225
800010dc:	3c048000 	lui	a0,0x8000
800010e0:	10000003 	b	800010f0 <__exception_handle_verbose+0x31c>
800010e4:	24841da8 	addiu	a0,a0,7592
/user/mipsswt/git/newlib/libgloss/mips/hal/lib/mips/mips_excpt_handler.c:228
800010e8:	3c048000 	lui	a0,0x8000
800010ec:	24841dbc 	addiu	a0,a0,7612
800010f0:	10000017 	b	80001150 <__exception_handle_verbose+0x37c>
800010f4:	8e05007c 	lw	a1,124(s0)
/user/mipsswt/git/newlib/libgloss/mips/hal/lib/mips/mips_excpt_handler.c:231
800010f8:	3c058000 	lui	a1,0x8000
800010fc:	24040001 	li	a0,1
80001100:	24a51dcc 	addiu	a1,a1,7628
80001104:	1000ff5c 	b	80000e78 <__exception_handle_verbose+0xa4>
80001108:	24060014 	li	a2,20
/user/mipsswt/git/newlib/libgloss/mips/hal/lib/mips/mips_excpt_handler.c:234
8000110c:	3c058000 	lui	a1,0x8000
80001110:	24040001 	li	a0,1
80001114:	24a51de4 	addiu	a1,a1,7652
80001118:	1000ff57 	b	80000e78 <__exception_handle_verbose+0xa4>
8000111c:	24060011 	li	a2,17
/user/mipsswt/git/newlib/libgloss/mips/hal/lib/mips/mips_excpt_handler.c:237
80001120:	3c058000 	lui	a1,0x8000
80001124:	24040001 	li	a0,1
80001128:	24a51df8 	addiu	a1,a1,7672
8000112c:	1000ff52 	b	80000e78 <__exception_handle_verbose+0xa4>
80001130:	2406000d 	li	a2,13
/user/mipsswt/git/newlib/libgloss/mips/hal/lib/mips/mips_excpt_handler.c:240
80001134:	3c058000 	lui	a1,0x8000
80001138:	24040001 	li	a0,1
8000113c:	24a51e08 	addiu	a1,a1,7688
80001140:	1000ff4d 	b	80000e78 <__exception_handle_verbose+0xa4>
80001144:	2406000c 	li	a2,12
/user/mipsswt/git/newlib/libgloss/mips/hal/lib/mips/mips_excpt_handler.c:243
80001148:	3c048000 	lui	a0,0x8000
8000114c:	24841e18 	addiu	a0,a0,7704
80001150:	3c068000 	lui	a2,0x8000
80001154:	0c000373 	jal	80000dcc <putsns>
80001158:	24c61e04 	addiu	a2,a2,7684
/user/mipsswt/git/newlib/libgloss/mips/hal/lib/mips/mips_excpt_handler.c:247
8000115c:	3c118000 	lui	s1,0x8000
80001160:	3c048000 	lui	a0,0x8000
80001164:	00002821 	move	a1,zero
80001168:	24841e30 	addiu	a0,a0,7728
8000116c:	26261e38 	addiu	a2,s1,7736
80001170:	0c000373 	jal	80000dcc <putsns>
80001174:	3c128000 	lui	s2,0x8000
/user/mipsswt/git/newlib/libgloss/mips/hal/lib/mips/mips_excpt_handler.c:248
80001178:	3c048000 	lui	a0,0x8000
8000117c:	8e050000 	lw	a1,0(s0)
80001180:	26261e38 	addiu	a2,s1,7736
80001184:	0c000373 	jal	80000dcc <putsns>
80001188:	24841e3c 	addiu	a0,a0,7740
/user/mipsswt/git/newlib/libgloss/mips/hal/lib/mips/mips_excpt_handler.c:249
8000118c:	3c048000 	lui	a0,0x8000
80001190:	8e050004 	lw	a1,4(s0)
80001194:	26261e38 	addiu	a2,s1,7736
80001198:	0c000373 	jal	80000dcc <putsns>
8000119c:	24841e44 	addiu	a0,a0,7748
/user/mipsswt/git/newlib/libgloss/mips/hal/lib/mips/mips_excpt_handler.c:250
800011a0:	3c048000 	lui	a0,0x8000
800011a4:	8e050008 	lw	a1,8(s0)
800011a8:	26461e04 	addiu	a2,s2,7684
800011ac:	0c000373 	jal	80000dcc <putsns>
800011b0:	24841e4c 	addiu	a0,a0,7756
/user/mipsswt/git/newlib/libgloss/mips/hal/lib/mips/mips_excpt_handler.c:252
800011b4:	3c048000 	lui	a0,0x8000
800011b8:	8e05000c 	lw	a1,12(s0)
800011bc:	26261e38 	addiu	a2,s1,7736
800011c0:	0c000373 	jal	80000dcc <putsns>
800011c4:	24841e54 	addiu	a0,a0,7764
/user/mipsswt/git/newlib/libgloss/mips/hal/lib/mips/mips_excpt_handler.c:253
800011c8:	3c048000 	lui	a0,0x8000
800011cc:	8e050010 	lw	a1,16(s0)
800011d0:	26261e38 	addiu	a2,s1,7736
800011d4:	0c000373 	jal	80000dcc <putsns>
800011d8:	24841e5c 	addiu	a0,a0,7772
/user/mipsswt/git/newlib/libgloss/mips/hal/lib/mips/mips_excpt_handler.c:254
800011dc:	3c048000 	lui	a0,0x8000
800011e0:	8e050014 	lw	a1,20(s0)
800011e4:	26261e38 	addiu	a2,s1,7736
800011e8:	0c000373 	jal	80000dcc <putsns>
800011ec:	24841e64 	addiu	a0,a0,7780
/user/mipsswt/git/newlib/libgloss/mips/hal/lib/mips/mips_excpt_handler.c:255
800011f0:	3c048000 	lui	a0,0x8000
800011f4:	8e050018 	lw	a1,24(s0)
800011f8:	26461e04 	addiu	a2,s2,7684
800011fc:	0c000373 	jal	80000dcc <putsns>
80001200:	24841e6c 	addiu	a0,a0,7788
/user/mipsswt/git/newlib/libgloss/mips/hal/lib/mips/mips_excpt_handler.c:257
80001204:	3c048000 	lui	a0,0x8000
80001208:	8e05001c 	lw	a1,28(s0)
8000120c:	26261e38 	addiu	a2,s1,7736
80001210:	0c000373 	jal	80000dcc <putsns>
80001214:	24841e74 	addiu	a0,a0,7796
/user/mipsswt/git/newlib/libgloss/mips/hal/lib/mips/mips_excpt_handler.c:258
80001218:	3c048000 	lui	a0,0x8000
8000121c:	8e050020 	lw	a1,32(s0)
80001220:	26261e38 	addiu	a2,s1,7736
80001224:	0c000373 	jal	80000dcc <putsns>
80001228:	24841e7c 	addiu	a0,a0,7804
/user/mipsswt/git/newlib/libgloss/mips/hal/lib/mips/mips_excpt_handler.c:259
8000122c:	3c048000 	lui	a0,0x8000
80001230:	8e050024 	lw	a1,36(s0)
80001234:	26261e38 	addiu	a2,s1,7736
80001238:	0c000373 	jal	80000dcc <putsns>
8000123c:	24841e84 	addiu	a0,a0,7812
/user/mipsswt/git/newlib/libgloss/mips/hal/lib/mips/mips_excpt_handler.c:260
80001240:	3c048000 	lui	a0,0x8000
80001244:	8e050028 	lw	a1,40(s0)
80001248:	26461e04 	addiu	a2,s2,7684
8000124c:	0c000373 	jal	80000dcc <putsns>
80001250:	24841e8c 	addiu	a0,a0,7820
/user/mipsswt/git/newlib/libgloss/mips/hal/lib/mips/mips_excpt_handler.c:262
80001254:	3c048000 	lui	a0,0x8000
80001258:	8e05002c 	lw	a1,44(s0)
8000125c:	26261e38 	addiu	a2,s1,7736
80001260:	0c000373 	jal	80000dcc <putsns>
80001264:	24841e94 	addiu	a0,a0,7828
/user/mipsswt/git/newlib/libgloss/mips/hal/lib/mips/mips_excpt_handler.c:263
80001268:	3c048000 	lui	a0,0x8000
8000126c:	8e050030 	lw	a1,48(s0)
80001270:	26261e38 	addiu	a2,s1,7736
80001274:	0c000373 	jal	80000dcc <putsns>
80001278:	24841e9c 	addiu	a0,a0,7836
/user/mipsswt/git/newlib/libgloss/mips/hal/lib/mips/mips_excpt_handler.c:264
8000127c:	3c048000 	lui	a0,0x8000
80001280:	8e050034 	lw	a1,52(s0)
80001284:	26261e38 	addiu	a2,s1,7736
80001288:	0c000373 	jal	80000dcc <putsns>
8000128c:	24841ea4 	addiu	a0,a0,7844
/user/mipsswt/git/newlib/libgloss/mips/hal/lib/mips/mips_excpt_handler.c:265
80001290:	3c048000 	lui	a0,0x8000
80001294:	8e050038 	lw	a1,56(s0)
80001298:	26461e04 	addiu	a2,s2,7684
8000129c:	0c000373 	jal	80000dcc <putsns>
800012a0:	24841eac 	addiu	a0,a0,7852
/user/mipsswt/git/newlib/libgloss/mips/hal/lib/mips/mips_excpt_handler.c:267
800012a4:	3c048000 	lui	a0,0x8000
800012a8:	8e05003c 	lw	a1,60(s0)
800012ac:	26261e38 	addiu	a2,s1,7736
800012b0:	0c000373 	jal	80000dcc <putsns>
800012b4:	24841eb4 	addiu	a0,a0,7860
/user/mipsswt/git/newlib/libgloss/mips/hal/lib/mips/mips_excpt_handler.c:268
800012b8:	3c048000 	lui	a0,0x8000
800012bc:	8e050040 	lw	a1,64(s0)
800012c0:	26261e38 	addiu	a2,s1,7736
800012c4:	0c000373 	jal	80000dcc <putsns>
800012c8:	24841ebc 	addiu	a0,a0,7868
/user/mipsswt/git/newlib/libgloss/mips/hal/lib/mips/mips_excpt_handler.c:269
800012cc:	3c048000 	lui	a0,0x8000
800012d0:	8e050044 	lw	a1,68(s0)
800012d4:	26261e38 	addiu	a2,s1,7736
800012d8:	0c000373 	jal	80000dcc <putsns>
800012dc:	24841ec4 	addiu	a0,a0,7876
/user/mipsswt/git/newlib/libgloss/mips/hal/lib/mips/mips_excpt_handler.c:270
800012e0:	3c048000 	lui	a0,0x8000
800012e4:	8e050048 	lw	a1,72(s0)
800012e8:	26461e04 	addiu	a2,s2,7684
800012ec:	0c000373 	jal	80000dcc <putsns>
800012f0:	24841ecc 	addiu	a0,a0,7884
/user/mipsswt/git/newlib/libgloss/mips/hal/lib/mips/mips_excpt_handler.c:272
800012f4:	3c048000 	lui	a0,0x8000
800012f8:	8e05004c 	lw	a1,76(s0)
800012fc:	26261e38 	addiu	a2,s1,7736
80001300:	0c000373 	jal	80000dcc <putsns>
80001304:	24841ed4 	addiu	a0,a0,7892
/user/mipsswt/git/newlib/libgloss/mips/hal/lib/mips/mips_excpt_handler.c:273
80001308:	3c048000 	lui	a0,0x8000
8000130c:	8e050050 	lw	a1,80(s0)
80001310:	26261e38 	addiu	a2,s1,7736
80001314:	0c000373 	jal	80000dcc <putsns>
80001318:	24841edc 	addiu	a0,a0,7900
/user/mipsswt/git/newlib/libgloss/mips/hal/lib/mips/mips_excpt_handler.c:274
8000131c:	3c048000 	lui	a0,0x8000
80001320:	8e050054 	lw	a1,84(s0)
80001324:	26261e38 	addiu	a2,s1,7736
80001328:	0c000373 	jal	80000dcc <putsns>
8000132c:	24841ee4 	addiu	a0,a0,7908
/user/mipsswt/git/newlib/libgloss/mips/hal/lib/mips/mips_excpt_handler.c:275
80001330:	3c048000 	lui	a0,0x8000
80001334:	8e050058 	lw	a1,88(s0)
80001338:	26461e04 	addiu	a2,s2,7684
8000133c:	0c000373 	jal	80000dcc <putsns>
80001340:	24841eec 	addiu	a0,a0,7916
/user/mipsswt/git/newlib/libgloss/mips/hal/lib/mips/mips_excpt_handler.c:277
80001344:	3c048000 	lui	a0,0x8000
80001348:	8e05005c 	lw	a1,92(s0)
8000134c:	26261e38 	addiu	a2,s1,7736
80001350:	0c000373 	jal	80000dcc <putsns>
80001354:	24841ef4 	addiu	a0,a0,7924
/user/mipsswt/git/newlib/libgloss/mips/hal/lib/mips/mips_excpt_handler.c:278
80001358:	3c048000 	lui	a0,0x8000
8000135c:	8e050060 	lw	a1,96(s0)
80001360:	26261e38 	addiu	a2,s1,7736
80001364:	0c000373 	jal	80000dcc <putsns>
80001368:	24841efc 	addiu	a0,a0,7932
/user/mipsswt/git/newlib/libgloss/mips/hal/lib/mips/mips_excpt_handler.c:279
8000136c:	3c048000 	lui	a0,0x8000
80001370:	8e050064 	lw	a1,100(s0)
80001374:	26261e38 	addiu	a2,s1,7736
80001378:	0c000373 	jal	80000dcc <putsns>
8000137c:	24841f04 	addiu	a0,a0,7940
/user/mipsswt/git/newlib/libgloss/mips/hal/lib/mips/mips_excpt_handler.c:280
80001380:	3c048000 	lui	a0,0x8000
80001384:	8e050068 	lw	a1,104(s0)
80001388:	26461e04 	addiu	a2,s2,7684
8000138c:	0c000373 	jal	80000dcc <putsns>
80001390:	24841f0c 	addiu	a0,a0,7948
/user/mipsswt/git/newlib/libgloss/mips/hal/lib/mips/mips_excpt_handler.c:282
80001394:	3c048000 	lui	a0,0x8000
80001398:	8e05006c 	lw	a1,108(s0)
8000139c:	26261e38 	addiu	a2,s1,7736
800013a0:	0c000373 	jal	80000dcc <putsns>
800013a4:	24841f14 	addiu	a0,a0,7956
/user/mipsswt/git/newlib/libgloss/mips/hal/lib/mips/mips_excpt_handler.c:283
800013a8:	3c048000 	lui	a0,0x8000
800013ac:	8e050070 	lw	a1,112(s0)
800013b0:	26261e38 	addiu	a2,s1,7736
800013b4:	0c000373 	jal	80000dcc <putsns>
800013b8:	24841f1c 	addiu	a0,a0,7964
/user/mipsswt/git/newlib/libgloss/mips/hal/lib/mips/mips_excpt_handler.c:284
800013bc:	3c048000 	lui	a0,0x8000
800013c0:	8e050074 	lw	a1,116(s0)
800013c4:	26261e38 	addiu	a2,s1,7736
800013c8:	0c000373 	jal	80000dcc <putsns>
800013cc:	24841f24 	addiu	a0,a0,7972
/user/mipsswt/git/newlib/libgloss/mips/hal/lib/mips/mips_excpt_handler.c:285
800013d0:	3c048000 	lui	a0,0x8000
800013d4:	8e050078 	lw	a1,120(s0)
800013d8:	26461e04 	addiu	a2,s2,7684
800013dc:	0c000373 	jal	80000dcc <putsns>
800013e0:	24841f2c 	addiu	a0,a0,7980
/user/mipsswt/git/newlib/libgloss/mips/hal/lib/mips/mips_excpt_handler.c:288
800013e4:	3c048000 	lui	a0,0x8000
800013e8:	8e050084 	lw	a1,132(s0)
800013ec:	26261e38 	addiu	a2,s1,7736
800013f0:	0c000373 	jal	80000dcc <putsns>
800013f4:	24841f34 	addiu	a0,a0,7988
/user/mipsswt/git/newlib/libgloss/mips/hal/lib/mips/mips_excpt_handler.c:289
800013f8:	3c048000 	lui	a0,0x8000
800013fc:	8e050088 	lw	a1,136(s0)
80001400:	26461e04 	addiu	a2,s2,7684
80001404:	0c000373 	jal	80000dcc <putsns>
80001408:	24841f3c 	addiu	a0,a0,7996
/user/mipsswt/git/newlib/libgloss/mips/hal/lib/mips/mips_excpt_handler.c:292
8000140c:	3c048000 	lui	a0,0x8000
80001410:	8e05007c 	lw	a1,124(s0)
80001414:	26461e04 	addiu	a2,s2,7684
80001418:	0c000373 	jal	80000dcc <putsns>
8000141c:	24841f44 	addiu	a0,a0,8004
/user/mipsswt/git/newlib/libgloss/mips/hal/lib/mips/mips_excpt_handler.c:293
80001420:	3c048000 	lui	a0,0x8000
80001424:	8e050080 	lw	a1,128(s0)
80001428:	26461e04 	addiu	a2,s2,7684
8000142c:	0c000373 	jal	80000dcc <putsns>
80001430:	24841f50 	addiu	a0,a0,8016
/user/mipsswt/git/newlib/libgloss/mips/hal/lib/mips/mips_excpt_handler.c:295
80001434:	3c048000 	lui	a0,0x8000
80001438:	8e050090 	lw	a1,144(s0)
8000143c:	26461e04 	addiu	a2,s2,7684
80001440:	0c000343 	jal	80000d0c <putsnds.constprop.0>
80001444:	24841f5c 	addiu	a0,a0,8028
/user/mipsswt/git/newlib/libgloss/mips/hal/lib/mips/mips_excpt_handler.c:296
80001448:	3c048000 	lui	a0,0x8000
8000144c:	8e050094 	lw	a1,148(s0)
80001450:	26461e04 	addiu	a2,s2,7684
80001454:	0c000343 	jal	80000d0c <putsnds.constprop.0>
80001458:	24841f68 	addiu	a0,a0,8040
/user/mipsswt/git/newlib/libgloss/mips/hal/lib/mips/mips_excpt_handler.c:297
8000145c:	3c048000 	lui	a0,0x8000
80001460:	8e050098 	lw	a1,152(s0)
80001464:	26461e04 	addiu	a2,s2,7684
80001468:	0c000343 	jal	80000d0c <putsnds.constprop.0>
8000146c:	24841f74 	addiu	a0,a0,8052
/user/mipsswt/git/newlib/libgloss/mips/hal/lib/mips/mips_excpt_handler.c:298
80001470:	3c048000 	lui	a0,0x8000
80001474:	8e05009c 	lw	a1,156(s0)
80001478:	26461e04 	addiu	a2,s2,7684
8000147c:	0c000343 	jal	80000d0c <putsnds.constprop.0>
80001480:	24841f80 	addiu	a0,a0,8064
/user/mipsswt/git/newlib/libgloss/mips/hal/lib/mips/mips_excpt_handler.c:301
80001484:	00002821 	move	a1,zero
80001488:	0c000613 	jal	8000184c <__uhi_exception>
8000148c:	02002021 	move	a0,s0
80001490:	1440fe94 	bnez	v0,80000ee4 <__exception_handle_verbose+0x110>
80001494:	3c028000 	lui	v0,0x8000
/user/mipsswt/git/newlib/libgloss/mips/hal/lib/mips/mips_excpt_handler.c:308
80001498:	8fbf001c 	lw	ra,28(sp)
8000149c:	8fb20018 	lw	s2,24(sp)
800014a0:	8fb10014 	lw	s1,20(sp)
800014a4:	8fb00010 	lw	s0,16(sp)
800014a8:	03e00008 	jr	ra
800014ac:	27bd0020 	addiu	sp,sp,32

800014b0 <__first_boot>:
800014b0:	00000001 	movf	zero,zero,$fcc0

800014b4 <__register_excpt_handler>:
/user/mipsswt/git/newlib/libgloss/mips/hal/lib/mips/mips_excpt_register.S:54
800014b4:	40056000 	mfc0	a1,c0_status
/user/mipsswt/git/newlib/libgloss/mips/hal/lib/mips/mips_excpt_register.S:59
800014b8:	3c0a0040 	lui	t2,0x40
/user/mipsswt/git/newlib/libgloss/mips/hal/lib/mips/mips_excpt_register.S:60
800014bc:	408a6000 	mtc0	t2,c0_status
/user/mipsswt/git/newlib/libgloss/mips/hal/lib/mips/mips_excpt_register.S:61
800014c0:	000000c0 	ehb
/user/mipsswt/git/newlib/libgloss/mips/hal/lib/mips/mips_excpt_register.S:69
800014c4:	3c098000 	lui	t1,0x8000
800014c8:	25291564 	addiu	t1,t1,5476
/user/mipsswt/git/newlib/libgloss/mips/hal/lib/mips/mips_excpt_register.S:70
800014cc:	11200005 	beqz	t1,800014e4 <__register_excpt_handler+0x30>
800014d0:	00000000 	nop
/user/mipsswt/git/newlib/libgloss/mips/hal/lib/mips/mips_excpt_register.S:71
800014d4:	03e03021 	move	a2,ra
/user/mipsswt/git/newlib/libgloss/mips/hal/lib/mips/mips_excpt_register.S:72
800014d8:	0120f809 	jalr	t1
800014dc:	00000000 	nop
/user/mipsswt/git/newlib/libgloss/mips/hal/lib/mips/mips_excpt_register.S:73
800014e0:	0040f821 	move	ra,v0
/user/mipsswt/git/newlib/libgloss/mips/hal/lib/mips/mips_excpt_register.S:76
800014e4:	3c098000 	lui	t1,0x8000
/user/mipsswt/git/newlib/libgloss/mips/hal/lib/mips/mips_excpt_register.S:77
800014e8:	252914b0 	addiu	t1,t1,5296
800014ec:	ad200000 	sw	zero,0(t1)
/user/mipsswt/git/newlib/libgloss/mips/hal/lib/mips/mips_excpt_register.S:79
800014f0:	400c8003 	mfc0	t4,c0_config3
/user/mipsswt/git/newlib/libgloss/mips/hal/lib/mips/mips_excpt_register.S:88
800014f4:	3c0a8000 	lui	t2,0x8000
800014f8:	254a0000 	addiu	t2,t2,0
/user/mipsswt/git/newlib/libgloss/mips/hal/lib/mips/mips_excpt_register.S:92
800014fc:	354a0800 	ori	t2,t2,0x800
/user/mipsswt/git/newlib/libgloss/mips/hal/lib/mips/mips_excpt_register.S:93
80001500:	408a7801 	mtc0	t2,c0_ebase
/user/mipsswt/git/newlib/libgloss/mips/hal/lib/mips/mips_excpt_register.S:94
80001504:	000000c0 	ehb
/user/mipsswt/git/newlib/libgloss/mips/hal/lib/mips/mips_excpt_register.S:97
80001508:	00001021 	move	v0,zero
/user/mipsswt/git/newlib/libgloss/mips/hal/lib/mips/mips_excpt_register.S:100
8000150c:	3c090000 	lui	t1,0x0
80001510:	25290020 	addiu	t1,t1,32
/user/mipsswt/git/newlib/libgloss/mips/hal/lib/mips/mips_excpt_register.S:103
80001514:	7d8a0140 	ext	t2,t4,0x5,0x1
/user/mipsswt/git/newlib/libgloss/mips/hal/lib/mips/mips_excpt_register.S:104
80001518:	7d8b0180 	ext	t3,t4,0x6,0x1
/user/mipsswt/git/newlib/libgloss/mips/hal/lib/mips/mips_excpt_register.S:105
8000151c:	014b5025 	or	t2,t2,t3
/user/mipsswt/git/newlib/libgloss/mips/hal/lib/mips/mips_excpt_register.S:107
80001520:	11400005 	beqz	t2,80001538 <__register_excpt_handler+0x84>
80001524:	00000000 	nop
/user/mipsswt/git/newlib/libgloss/mips/hal/lib/mips/mips_excpt_register.S:110
80001528:	400a6001 	mfc0	t2,c0_intctl
/user/mipsswt/git/newlib/libgloss/mips/hal/lib/mips/mips_excpt_register.S:111
8000152c:	7d2a4804 	ins	t2,t1,0x0,0xa
/user/mipsswt/git/newlib/libgloss/mips/hal/lib/mips/mips_excpt_register.S:113
80001530:	10000003 	b	80001540 <__register_excpt_handler+0x8c>
80001534:	408a6001 	mtc0	t2,c0_intctl
/user/mipsswt/git/newlib/libgloss/mips/hal/lib/mips/mips_excpt_register.S:117
80001538:	15200008 	bnez	t1,8000155c <__register_excpt_handler+0xa8>
8000153c:	00000000 	nop
/user/mipsswt/git/newlib/libgloss/mips/hal/lib/mips/mips_excpt_register.S:120
80001540:	3c090080 	lui	t1,0x80
/user/mipsswt/git/newlib/libgloss/mips/hal/lib/mips/mips_excpt_register.S:121
80001544:	40896800 	mtc0	t1,c0_cause
/user/mipsswt/git/newlib/libgloss/mips/hal/lib/mips/mips_excpt_register.S:122
80001548:	000000c0 	ehb
/user/mipsswt/git/newlib/libgloss/mips/hal/lib/mips/mips_excpt_register.S:125
8000154c:	7d8a0180 	ext	t2,t4,0x6,0x1
/user/mipsswt/git/newlib/libgloss/mips/hal/lib/mips/mips_excpt_register.S:126
80001550:	15400002 	bnez	t2,8000155c <__register_excpt_handler+0xa8>
80001554:	00000000 	nop
/user/mipsswt/git/newlib/libgloss/mips/hal/lib/mips/mips_excpt_register.S:129
80001558:	34420001 	ori	v0,v0,0x1
/user/mipsswt/git/newlib/libgloss/mips/hal/lib/mips/mips_excpt_register.S:131
8000155c:	03e00008 	jr	ra
80001560:	00000000 	nop

80001564 <__register_excpt_boot>:
/user/mipsswt/git/newlib/libgloss/mips/hal/lib/mips/mips_excpt_boot.S:80
80001564:	3c098000 	lui	t1,0x8000
80001568:	252923c8 	addiu	t1,t1,9160
/user/mipsswt/git/newlib/libgloss/mips/hal/lib/mips/mips_excpt_boot.S:81
8000156c:	ad240038 	sw	a0,56(t1)
/user/mipsswt/git/newlib/libgloss/mips/hal/lib/mips/mips_excpt_boot.S:82
80001570:	ad250000 	sw	a1,0(t1)
/user/mipsswt/git/newlib/libgloss/mips/hal/lib/mips/mips_excpt_boot.S:84
80001574:	ad300004 	sw	s0,4(t1)
/user/mipsswt/git/newlib/libgloss/mips/hal/lib/mips/mips_excpt_boot.S:85
80001578:	ad310008 	sw	s1,8(t1)
/user/mipsswt/git/newlib/libgloss/mips/hal/lib/mips/mips_excpt_boot.S:86
8000157c:	ad32000c 	sw	s2,12(t1)
/user/mipsswt/git/newlib/libgloss/mips/hal/lib/mips/mips_excpt_boot.S:87
80001580:	ad330010 	sw	s3,16(t1)
/user/mipsswt/git/newlib/libgloss/mips/hal/lib/mips/mips_excpt_boot.S:88
80001584:	ad340014 	sw	s4,20(t1)
/user/mipsswt/git/newlib/libgloss/mips/hal/lib/mips/mips_excpt_boot.S:89
80001588:	ad350018 	sw	s5,24(t1)
/user/mipsswt/git/newlib/libgloss/mips/hal/lib/mips/mips_excpt_boot.S:90
8000158c:	ad36001c 	sw	s6,28(t1)
/user/mipsswt/git/newlib/libgloss/mips/hal/lib/mips/mips_excpt_boot.S:91
80001590:	ad370020 	sw	s7,32(t1)
/user/mipsswt/git/newlib/libgloss/mips/hal/lib/mips/mips_excpt_boot.S:92
80001594:	ad3a0024 	sw	k0,36(t1)
/user/mipsswt/git/newlib/libgloss/mips/hal/lib/mips/mips_excpt_boot.S:93
80001598:	ad3b0028 	sw	k1,40(t1)
/user/mipsswt/git/newlib/libgloss/mips/hal/lib/mips/mips_excpt_boot.S:94
8000159c:	ad3c002c 	sw	gp,44(t1)
/user/mipsswt/git/newlib/libgloss/mips/hal/lib/mips/mips_excpt_boot.S:95
800015a0:	ad3d0030 	sw	sp,48(t1)
/user/mipsswt/git/newlib/libgloss/mips/hal/lib/mips/mips_excpt_boot.S:96
800015a4:	ad3e0034 	sw	s8,52(t1)
/user/mipsswt/git/newlib/libgloss/mips/hal/lib/mips/mips_excpt_boot.S:98
800015a8:	400c8003 	mfc0	t4,c0_config3
/user/mipsswt/git/newlib/libgloss/mips/hal/lib/mips/mips_excpt_boot.S:103
800015ac:	400c6001 	mfc0	t4,c0_intctl
/user/mipsswt/git/newlib/libgloss/mips/hal/lib/mips/mips_excpt_boot.S:104
800015b0:	ad2c003c 	sw	t4,60(t1)
/user/mipsswt/git/newlib/libgloss/mips/hal/lib/mips/mips_excpt_boot.S:107
800015b4:	400a7801 	mfc0	t2,c0_ebase
/user/mipsswt/git/newlib/libgloss/mips/hal/lib/mips/mips_excpt_boot.S:108
800015b8:	ad2a0040 	sw	t2,64(t1)
/user/mipsswt/git/newlib/libgloss/mips/hal/lib/mips/mips_excpt_boot.S:111
800015bc:	3c0b0040 	lui	t3,0x40
/user/mipsswt/git/newlib/libgloss/mips/hal/lib/mips/mips_excpt_boot.S:112
800015c0:	010b5824 	and	t3,t0,t3
/user/mipsswt/git/newlib/libgloss/mips/hal/lib/mips/mips_excpt_boot.S:113
800015c4:	11600003 	beqz	t3,800015d4 <__register_excpt_boot+0x70>
800015c8:	00000000 	nop
/user/mipsswt/git/newlib/libgloss/mips/hal/lib/mips/mips_excpt_boot.S:118
800015cc:	3c0abfc0 	lui	t2,0xbfc0
/user/mipsswt/git/newlib/libgloss/mips/hal/lib/mips/mips_excpt_boot.S:119
800015d0:	354a0200 	ori	t2,t2,0x200
/user/mipsswt/git/newlib/libgloss/mips/hal/lib/mips/mips_excpt_boot.S:122
800015d4:	ad2a0044 	sw	t2,68(t1)
/user/mipsswt/git/newlib/libgloss/mips/hal/lib/mips/mips_excpt_boot.S:126
800015d8:	03e00008 	jr	ra
800015dc:	00c01021 	move	v0,a2

800015e0 <__return_to_boot>:
/user/mipsswt/git/newlib/libgloss/mips/hal/lib/mips/mips_excpt_boot.S:140
800015e0:	41606000 	di
/user/mipsswt/git/newlib/libgloss/mips/hal/lib/mips/mips_excpt_boot.S:141
800015e4:	000000c0 	ehb
/user/mipsswt/git/newlib/libgloss/mips/hal/lib/mips/mips_excpt_boot.S:143
800015e8:	40096000 	mfc0	t1,c0_status
/user/mipsswt/git/newlib/libgloss/mips/hal/lib/mips/mips_excpt_boot.S:144
800015ec:	3c0a0040 	lui	t2,0x40
/user/mipsswt/git/newlib/libgloss/mips/hal/lib/mips/mips_excpt_boot.S:145
800015f0:	012a4825 	or	t1,t1,t2
/user/mipsswt/git/newlib/libgloss/mips/hal/lib/mips/mips_excpt_boot.S:146
800015f4:	40896000 	mtc0	t1,c0_status
/user/mipsswt/git/newlib/libgloss/mips/hal/lib/mips/mips_excpt_boot.S:147
800015f8:	000000c0 	ehb
/user/mipsswt/git/newlib/libgloss/mips/hal/lib/mips/mips_excpt_boot.S:150
800015fc:	3c098000 	lui	t1,0x8000
80001600:	252923c8 	addiu	t1,t1,9160
/user/mipsswt/git/newlib/libgloss/mips/hal/lib/mips/mips_excpt_boot.S:151
80001604:	8d290040 	lw	t1,64(t1)
/user/mipsswt/git/newlib/libgloss/mips/hal/lib/mips/mips_excpt_boot.S:153
80001608:	352a0800 	ori	t2,t1,0x800
/user/mipsswt/git/newlib/libgloss/mips/hal/lib/mips/mips_excpt_boot.S:154
8000160c:	408a7801 	mtc0	t2,c0_ebase
/user/mipsswt/git/newlib/libgloss/mips/hal/lib/mips/mips_excpt_boot.S:156
80001610:	312b0800 	andi	t3,t1,0x800
/user/mipsswt/git/newlib/libgloss/mips/hal/lib/mips/mips_excpt_boot.S:157
80001614:	15600002 	bnez	t3,80001620 <__return_to_boot+0x40>
80001618:	00000000 	nop
/user/mipsswt/git/newlib/libgloss/mips/hal/lib/mips/mips_excpt_boot.S:160
8000161c:	40897801 	mtc0	t1,c0_ebase
/user/mipsswt/git/newlib/libgloss/mips/hal/lib/mips/mips_excpt_boot.S:161
80001620:	000000c0 	ehb
/user/mipsswt/git/newlib/libgloss/mips/hal/lib/mips/mips_excpt_boot.S:164
80001624:	3c098000 	lui	t1,0x8000
80001628:	252923c8 	addiu	t1,t1,9160
/user/mipsswt/git/newlib/libgloss/mips/hal/lib/mips/mips_excpt_boot.S:165
8000162c:	8d300004 	lw	s0,4(t1)
/user/mipsswt/git/newlib/libgloss/mips/hal/lib/mips/mips_excpt_boot.S:166
80001630:	8d310008 	lw	s1,8(t1)
/user/mipsswt/git/newlib/libgloss/mips/hal/lib/mips/mips_excpt_boot.S:167
80001634:	8d32000c 	lw	s2,12(t1)
/user/mipsswt/git/newlib/libgloss/mips/hal/lib/mips/mips_excpt_boot.S:168
80001638:	8d330010 	lw	s3,16(t1)
/user/mipsswt/git/newlib/libgloss/mips/hal/lib/mips/mips_excpt_boot.S:169
8000163c:	8d340014 	lw	s4,20(t1)
/user/mipsswt/git/newlib/libgloss/mips/hal/lib/mips/mips_excpt_boot.S:170
80001640:	8d350018 	lw	s5,24(t1)
/user/mipsswt/git/newlib/libgloss/mips/hal/lib/mips/mips_excpt_boot.S:171
80001644:	8d36001c 	lw	s6,28(t1)
/user/mipsswt/git/newlib/libgloss/mips/hal/lib/mips/mips_excpt_boot.S:172
80001648:	8d370020 	lw	s7,32(t1)
/user/mipsswt/git/newlib/libgloss/mips/hal/lib/mips/mips_excpt_boot.S:173
8000164c:	8d3a0024 	lw	k0,36(t1)
/user/mipsswt/git/newlib/libgloss/mips/hal/lib/mips/mips_excpt_boot.S:174
80001650:	8d3b0028 	lw	k1,40(t1)
/user/mipsswt/git/newlib/libgloss/mips/hal/lib/mips/mips_excpt_boot.S:175
80001654:	8d3c002c 	lw	gp,44(t1)
/user/mipsswt/git/newlib/libgloss/mips/hal/lib/mips/mips_excpt_boot.S:176
80001658:	8d3d0030 	lw	sp,48(t1)
/user/mipsswt/git/newlib/libgloss/mips/hal/lib/mips/mips_excpt_boot.S:177
8000165c:	8d3e0034 	lw	s8,52(t1)
/user/mipsswt/git/newlib/libgloss/mips/hal/lib/mips/mips_excpt_boot.S:178
80001660:	8d3f0038 	lw	ra,56(t1)
/user/mipsswt/git/newlib/libgloss/mips/hal/lib/mips/mips_excpt_boot.S:186
80001664:	8d22003c 	lw	v0,60(t1)
/user/mipsswt/git/newlib/libgloss/mips/hal/lib/mips/mips_excpt_boot.S:187
80001668:	40826001 	mtc0	v0,c0_intctl
/user/mipsswt/git/newlib/libgloss/mips/hal/lib/mips/mips_excpt_boot.S:189
8000166c:	8d290000 	lw	t1,0(t1)
/user/mipsswt/git/newlib/libgloss/mips/hal/lib/mips/mips_excpt_boot.S:192
80001670:	40896000 	mtc0	t1,c0_status
/user/mipsswt/git/newlib/libgloss/mips/hal/lib/mips/mips_excpt_boot.S:193
80001674:	40806800 	mtc0	zero,c0_cause
/user/mipsswt/git/newlib/libgloss/mips/hal/lib/mips/mips_excpt_boot.S:197
80001678:	03e00408 	jr.hb	ra
8000167c:	00801021 	move	v0,a0

80001680 <__chain_uhi_excpt>:
/user/mipsswt/git/newlib/libgloss/mips/hal/lib/mips/mips_excpt_boot.S:213
80001680:	00801821 	move	v1,a0
/user/mipsswt/git/newlib/libgloss/mips/hal/lib/mips/mips_excpt_boot.S:216
80001684:	8c690084 	lw	t1,132(v1)
/user/mipsswt/git/newlib/libgloss/mips/hal/lib/mips/mips_excpt_boot.S:217
80001688:	8c6a0088 	lw	t2,136(v1)
/user/mipsswt/git/newlib/libgloss/mips/hal/lib/mips/mips_excpt_boot.S:218
8000168c:	01200011 	mthi	t1
/user/mipsswt/git/newlib/libgloss/mips/hal/lib/mips/mips_excpt_boot.S:222
80001690:	01400013 	mtlo	t2
80001694:	8c690090 	lw	t1,144(v1)
/user/mipsswt/git/newlib/libgloss/mips/hal/lib/mips/mips_excpt_boot.S:223
80001698:	40896000 	mtc0	t1,c0_status
/user/mipsswt/git/newlib/libgloss/mips/hal/lib/mips/mips_excpt_boot.S:224
8000169c:	8c69007c 	lw	t1,124(v1)
/user/mipsswt/git/newlib/libgloss/mips/hal/lib/mips/mips_excpt_boot.S:225
800016a0:	40897000 	mtc0	t1,c0_epc
/user/mipsswt/git/newlib/libgloss/mips/hal/lib/mips/mips_excpt_boot.S:226
800016a4:	000000c0 	ehb
/user/mipsswt/git/newlib/libgloss/mips/hal/lib/mips/mips_excpt_boot.S:229
800016a8:	8c610000 	lw	at,0(v1)
/user/mipsswt/git/newlib/libgloss/mips/hal/lib/mips/mips_excpt_boot.S:230
800016ac:	8c620004 	lw	v0,4(v1)
/user/mipsswt/git/newlib/libgloss/mips/hal/lib/mips/mips_excpt_boot.S:231
800016b0:	8c64000c 	lw	a0,12(v1)
/user/mipsswt/git/newlib/libgloss/mips/hal/lib/mips/mips_excpt_boot.S:232
800016b4:	8c650010 	lw	a1,16(v1)
/user/mipsswt/git/newlib/libgloss/mips/hal/lib/mips/mips_excpt_boot.S:233
800016b8:	8c660014 	lw	a2,20(v1)
/user/mipsswt/git/newlib/libgloss/mips/hal/lib/mips/mips_excpt_boot.S:234
800016bc:	8c670018 	lw	a3,24(v1)
/user/mipsswt/git/newlib/libgloss/mips/hal/lib/mips/mips_excpt_boot.S:235
800016c0:	8c68001c 	lw	t0,28(v1)
/user/mipsswt/git/newlib/libgloss/mips/hal/lib/mips/mips_excpt_boot.S:236
800016c4:	8c690020 	lw	t1,32(v1)
/user/mipsswt/git/newlib/libgloss/mips/hal/lib/mips/mips_excpt_boot.S:237
800016c8:	8c6a0024 	lw	t2,36(v1)
/user/mipsswt/git/newlib/libgloss/mips/hal/lib/mips/mips_excpt_boot.S:238
800016cc:	8c6b0028 	lw	t3,40(v1)
/user/mipsswt/git/newlib/libgloss/mips/hal/lib/mips/mips_excpt_boot.S:239
800016d0:	8c6c002c 	lw	t4,44(v1)
/user/mipsswt/git/newlib/libgloss/mips/hal/lib/mips/mips_excpt_boot.S:240
800016d4:	8c6d0030 	lw	t5,48(v1)
/user/mipsswt/git/newlib/libgloss/mips/hal/lib/mips/mips_excpt_boot.S:241
800016d8:	8c6e0034 	lw	t6,52(v1)
/user/mipsswt/git/newlib/libgloss/mips/hal/lib/mips/mips_excpt_boot.S:242
800016dc:	8c6f0038 	lw	t7,56(v1)
/user/mipsswt/git/newlib/libgloss/mips/hal/lib/mips/mips_excpt_boot.S:243
800016e0:	8c70003c 	lw	s0,60(v1)
/user/mipsswt/git/newlib/libgloss/mips/hal/lib/mips/mips_excpt_boot.S:244
800016e4:	8c710040 	lw	s1,64(v1)
/user/mipsswt/git/newlib/libgloss/mips/hal/lib/mips/mips_excpt_boot.S:245
800016e8:	8c720044 	lw	s2,68(v1)
/user/mipsswt/git/newlib/libgloss/mips/hal/lib/mips/mips_excpt_boot.S:246
800016ec:	8c730048 	lw	s3,72(v1)
/user/mipsswt/git/newlib/libgloss/mips/hal/lib/mips/mips_excpt_boot.S:247
800016f0:	8c74004c 	lw	s4,76(v1)
/user/mipsswt/git/newlib/libgloss/mips/hal/lib/mips/mips_excpt_boot.S:248
800016f4:	8c750050 	lw	s5,80(v1)
/user/mipsswt/git/newlib/libgloss/mips/hal/lib/mips/mips_excpt_boot.S:249
800016f8:	8c760054 	lw	s6,84(v1)
/user/mipsswt/git/newlib/libgloss/mips/hal/lib/mips/mips_excpt_boot.S:250
800016fc:	8c770058 	lw	s7,88(v1)
/user/mipsswt/git/newlib/libgloss/mips/hal/lib/mips/mips_excpt_boot.S:251
80001700:	8c78005c 	lw	t8,92(v1)
/user/mipsswt/git/newlib/libgloss/mips/hal/lib/mips/mips_excpt_boot.S:252
80001704:	8c790060 	lw	t9,96(v1)
/user/mipsswt/git/newlib/libgloss/mips/hal/lib/mips/mips_excpt_boot.S:253
80001708:	8c7c006c 	lw	gp,108(v1)
/user/mipsswt/git/newlib/libgloss/mips/hal/lib/mips/mips_excpt_boot.S:254
8000170c:	8c7d0070 	lw	sp,112(v1)
/user/mipsswt/git/newlib/libgloss/mips/hal/lib/mips/mips_excpt_boot.S:255
80001710:	8c7e0074 	lw	s8,116(v1)
/user/mipsswt/git/newlib/libgloss/mips/hal/lib/mips/mips_excpt_boot.S:256
80001714:	8c7f0078 	lw	ra,120(v1)
/user/mipsswt/git/newlib/libgloss/mips/hal/lib/mips/mips_excpt_boot.S:259
80001718:	3c038000 	lui	v1,0x8000
8000171c:	246323c8 	addiu	v1,v1,9160
/user/mipsswt/git/newlib/libgloss/mips/hal/lib/mips/mips_excpt_boot.S:260
80001720:	8c7a0024 	lw	k0,36(v1)
/user/mipsswt/git/newlib/libgloss/mips/hal/lib/mips/mips_excpt_boot.S:261
80001724:	8c7b0028 	lw	k1,40(v1)
/user/mipsswt/git/newlib/libgloss/mips/hal/lib/mips/mips_excpt_boot.S:282
80001728:	8c630044 	lw	v1,68(v1)
/user/mipsswt/git/newlib/libgloss/mips/hal/lib/mips/mips_excpt_boot.S:283
8000172c:	24630180 	addiu	v1,v1,384
/user/mipsswt/git/newlib/libgloss/mips/hal/lib/mips/mips_excpt_boot.S:286
80001730:	00600008 	jr	v1
80001734:	00000000 	nop

80001738 <__get_startup_BEV>:
/user/mipsswt/git/newlib/libgloss/mips/hal/lib/mips/mips_excpt_boot.S:301
80001738:	3c028000 	lui	v0,0x8000
8000173c:	244223c8 	addiu	v0,v0,9160
/user/mipsswt/git/newlib/libgloss/mips/hal/lib/mips/mips_excpt_boot.S:302
80001740:	8c420000 	lw	v0,0(v0)
/user/mipsswt/git/newlib/libgloss/mips/hal/lib/mips/mips_excpt_boot.S:303
80001744:	3c030040 	lui	v1,0x40
/user/mipsswt/git/newlib/libgloss/mips/hal/lib/mips/mips_excpt_boot.S:305
80001748:	03e00008 	jr	ra
8000174c:	00431024 	and	v0,v0,v1

80001750 <__convert_argv_pointers>:
/user/mipsswt/git/newlib/libgloss/mips/hal/lib/mips/mips_excpt_boot.S:322
80001750:	18800021 	blez	a0,800017d8 <__convert_argv_pointers+0x88>
80001754:	00000000 	nop
/user/mipsswt/git/newlib/libgloss/mips/hal/lib/mips/mips_excpt_boot.S:325
80001758:	3c088000 	lui	t0,0x8000
8000175c:	250823c8 	addiu	t0,t0,9160
/user/mipsswt/git/newlib/libgloss/mips/hal/lib/mips/mips_excpt_boot.S:326
80001760:	8d080000 	lw	t0,0(t0)
/user/mipsswt/git/newlib/libgloss/mips/hal/lib/mips/mips_excpt_boot.S:327
80001764:	7d0901c0 	ext	t1,t0,0x7,0x1
/user/mipsswt/git/newlib/libgloss/mips/hal/lib/mips/mips_excpt_boot.S:328
80001768:	1120001b 	beqz	t1,800017d8 <__convert_argv_pointers+0x88>
8000176c:	00000000 	nop
/user/mipsswt/git/newlib/libgloss/mips/hal/lib/mips/mips_excpt_boot.S:331
80001770:	00804021 	move	t0,a0
/user/mipsswt/git/newlib/libgloss/mips/hal/lib/mips/mips_excpt_boot.S:332
80001774:	00084880 	sll	t1,t0,0x2
/user/mipsswt/git/newlib/libgloss/mips/hal/lib/mips/mips_excpt_boot.S:333
80001778:	25290007 	addiu	t1,t1,7
/user/mipsswt/git/newlib/libgloss/mips/hal/lib/mips/mips_excpt_boot.S:334
8000177c:	2401fff8 	li	at,-8
80001780:	01214824 	and	t1,t1,at
/user/mipsswt/git/newlib/libgloss/mips/hal/lib/mips/mips_excpt_boot.S:336
80001784:	03a9e823 	subu	sp,sp,t1
/user/mipsswt/git/newlib/libgloss/mips/hal/lib/mips/mips_excpt_boot.S:337
80001788:	03a05021 	move	t2,sp
/user/mipsswt/git/newlib/libgloss/mips/hal/lib/mips/mips_excpt_boot.S:338
8000178c:	00a05821 	move	t3,a1
/user/mipsswt/git/newlib/libgloss/mips/hal/lib/mips/mips_excpt_boot.S:339
80001790:	2409ffff 	li	t1,-1
/user/mipsswt/git/newlib/libgloss/mips/hal/lib/mips/mips_excpt_boot.S:343
80001794:	8d780000 	lw	t8,0(t3)
/user/mipsswt/git/newlib/libgloss/mips/hal/lib/mips/mips_excpt_boot.S:344
80001798:	8d790004 	lw	t9,4(t3)
/user/mipsswt/git/newlib/libgloss/mips/hal/lib/mips/mips_excpt_boot.S:352
8000179c:	13200005 	beqz	t9,800017b4 <__convert_argv_pointers+0x64>
800017a0:	00000000 	nop
/user/mipsswt/git/newlib/libgloss/mips/hal/lib/mips/mips_excpt_boot.S:353
800017a4:	13290003 	beq	t9,t1,800017b4 <__convert_argv_pointers+0x64>
800017a8:	00000000 	nop
/user/mipsswt/git/newlib/libgloss/mips/hal/lib/mips/mips_excpt_boot.S:355
800017ac:	3c188000 	lui	t8,0x8000
800017b0:	27182410 	addiu	t8,t8,9232
/user/mipsswt/git/newlib/libgloss/mips/hal/lib/mips/mips_excpt_boot.S:357
800017b4:	ad580000 	sw	t8,0(t2)
/user/mipsswt/git/newlib/libgloss/mips/hal/lib/mips/mips_excpt_boot.S:359
800017b8:	254a0004 	addiu	t2,t2,4
/user/mipsswt/git/newlib/libgloss/mips/hal/lib/mips/mips_excpt_boot.S:360
800017bc:	256b0008 	addiu	t3,t3,8
/user/mipsswt/git/newlib/libgloss/mips/hal/lib/mips/mips_excpt_boot.S:361
800017c0:	2508ffff 	addiu	t0,t0,-1
/user/mipsswt/git/newlib/libgloss/mips/hal/lib/mips/mips_excpt_boot.S:362
800017c4:	1500fff3 	bnez	t0,80001794 <__convert_argv_pointers+0x44>
800017c8:	00000000 	nop
/user/mipsswt/git/newlib/libgloss/mips/hal/lib/mips/mips_excpt_boot.S:364
800017cc:	03a02821 	move	a1,sp
/user/mipsswt/git/newlib/libgloss/mips/hal/lib/mips/mips_excpt_boot.S:365
800017d0:	27bdfff0 	addiu	sp,sp,-16
/user/mipsswt/git/newlib/libgloss/mips/hal/lib/mips/mips_excpt_boot.S:367
800017d4:	00003021 	move	a2,zero
/user/mipsswt/git/newlib/libgloss/mips/hal/lib/mips/mips_excpt_boot.S:369
800017d8:	03e00008 	jr	ra
800017dc:	00000000 	nop

800017e0 <strlen>:
strlen():
800017e0:	24820001 	addiu	v0,a0,1
800017e4:	90830000 	lbu	v1,0(a0)
800017e8:	00000000 	nop
800017ec:	1460fffd 	bnez	v1,800017e4 <strlen+0x4>
800017f0:	24840001 	addiu	a0,a0,1
800017f4:	03e00008 	jr	ra
800017f8:	00821023 	subu	v0,a0,v0

800017fc <write>:
write():
/user/mipsswt/git/newlib/libgloss/mips/uhi_write.c:53
800017fc:	27bdffe0 	addiu	sp,sp,-32
/user/mipsswt/git/newlib/libgloss/mips/uhi_write.c:57
80001800:	24190005 	li	t9,5
/user/mipsswt/git/newlib/libgloss/mips/uhi_write.c:53
80001804:	afbf001c 	sw	ra,28(sp)
/user/mipsswt/git/newlib/libgloss/mips/uhi_write.c:58
80001808:	24020001 	li	v0,1
/user/mipsswt/git/newlib/libgloss/mips/uhi_write.c:53
8000180c:	afb00018 	sw	s0,24(sp)
/user/mipsswt/git/newlib/libgloss/mips/uhi_write.c:61
80001810:	0000004c 	syscall	0x1
/user/mipsswt/git/newlib/libgloss/mips/uhi_write.c:67
80001814:	00408021 	move	s0,v0
80001818:	2402ffff 	li	v0,-1
8000181c:	16020007 	bne	s0,v0,8000183c <write+0x40>
80001820:	8fbf001c 	lw	ra,28(sp)
/user/mipsswt/git/newlib/libgloss/mips/uhi_write.c:71
80001824:	afa30010 	sw	v1,16(sp)
/user/mipsswt/git/newlib/libgloss/mips/uhi_write.c:72
80001828:	0c000629 	jal	800018a4 <__errno>
8000182c:	00000000 	nop
80001830:	8fa30010 	lw	v1,16(sp)
80001834:	ac430000 	sw	v1,0(v0)
/user/mipsswt/git/newlib/libgloss/mips/uhi_write.c:76
80001838:	8fbf001c 	lw	ra,28(sp)
8000183c:	02001021 	move	v0,s0
80001840:	8fb00018 	lw	s0,24(sp)
80001844:	03e00008 	jr	ra
80001848:	27bd0020 	addiu	sp,sp,32

8000184c <__uhi_exception>:
__uhi_exception():
/user/mipsswt/git/newlib/libgloss/mips/uhi_exception.c:56
8000184c:	2419000f 	li	t9,15
/user/mipsswt/git/newlib/libgloss/mips/uhi_exception.c:57
80001850:	24020001 	li	v0,1
/user/mipsswt/git/newlib/libgloss/mips/uhi_exception.c:59
80001854:	0000004c 	syscall	0x1
/user/mipsswt/git/newlib/libgloss/mips/uhi_exception.c:65
80001858:	03e00008 	jr	ra
8000185c:	00000000 	nop

80001860 <__uhi_indirect>:
__uhi_indirect():
/user/mipsswt/git/newlib/libgloss/mips/uhi_indirect.c:36
80001860:	00804021 	move	t0,a0
/user/mipsswt/git/newlib/libgloss/mips/uhi_indirect.c:37
80001864:	8c84000c 	lw	a0,12(a0)
/user/mipsswt/git/newlib/libgloss/mips/uhi_indirect.c:42
80001868:	24020001 	li	v0,1
/user/mipsswt/git/newlib/libgloss/mips/uhi_indirect.c:38
8000186c:	8d050010 	lw	a1,16(t0)
/user/mipsswt/git/newlib/libgloss/mips/uhi_indirect.c:39
80001870:	8d060014 	lw	a2,20(t0)
/user/mipsswt/git/newlib/libgloss/mips/uhi_indirect.c:40
80001874:	8d070018 	lw	a3,24(t0)
/user/mipsswt/git/newlib/libgloss/mips/uhi_indirect.c:41
80001878:	8d190060 	lw	t9,96(t0)
/user/mipsswt/git/newlib/libgloss/mips/uhi_indirect.c:45
8000187c:	7000007f 	sdbbp	0x1
/user/mipsswt/git/newlib/libgloss/mips/uhi_indirect.c:50
80001880:	ad020004 	sw	v0,4(t0)
/user/mipsswt/git/newlib/libgloss/mips/uhi_indirect.c:55
80001884:	8d02007c 	lw	v0,124(t0)
/user/mipsswt/git/newlib/libgloss/mips/uhi_indirect.c:51
80001888:	ad030008 	sw	v1,8(t0)
/user/mipsswt/git/newlib/libgloss/mips/uhi_indirect.c:52
8000188c:	ad04000c 	sw	a0,12(t0)
/user/mipsswt/git/newlib/libgloss/mips/uhi_indirect.c:55
80001890:	24420004 	addiu	v0,v0,4
/user/mipsswt/git/newlib/libgloss/mips/uhi_indirect.c:53
80001894:	ad050010 	sw	a1,16(t0)
/user/mipsswt/git/newlib/libgloss/mips/uhi_indirect.c:55
80001898:	ad02007c 	sw	v0,124(t0)
/user/mipsswt/git/newlib/libgloss/mips/uhi_indirect.c:58
8000189c:	03e00008 	jr	ra
800018a0:	24020001 	li	v0,1

800018a4 <__errno>:
__errno():
/user/mipsswt/git/newlib/newlib/libc/errno/errno.c:14
800018a4:	3c028000 	lui	v0,0x8000
800018a8:	03e00008 	jr	ra
800018ac:	8c422430 	lw	v0,9264(v0)

800018b0 <__exception_save>:
/user/mipsswt/git/newlib/libgloss/mips/hal/lib/mips/mips_excpt_entry.S:115
800018b0:	03a0d821 	move	k1,sp
/user/mipsswt/git/newlib/libgloss/mips/hal/lib/mips/mips_excpt_entry.S:117
800018b4:	27bdff50 	addiu	sp,sp,-176
/user/mipsswt/git/newlib/libgloss/mips/hal/lib/mips/mips_excpt_entry.S:120
800018b8:	afa10010 	sw	at,16(sp)
/user/mipsswt/git/newlib/libgloss/mips/hal/lib/mips/mips_excpt_entry.S:121
800018bc:	afa20014 	sw	v0,20(sp)
/user/mipsswt/git/newlib/libgloss/mips/hal/lib/mips/mips_excpt_entry.S:122
800018c0:	afa30018 	sw	v1,24(sp)
/user/mipsswt/git/newlib/libgloss/mips/hal/lib/mips/mips_excpt_entry.S:123
800018c4:	afa4001c 	sw	a0,28(sp)
/user/mipsswt/git/newlib/libgloss/mips/hal/lib/mips/mips_excpt_entry.S:124
800018c8:	afa50020 	sw	a1,32(sp)
/user/mipsswt/git/newlib/libgloss/mips/hal/lib/mips/mips_excpt_entry.S:125
800018cc:	afa60024 	sw	a2,36(sp)
/user/mipsswt/git/newlib/libgloss/mips/hal/lib/mips/mips_excpt_entry.S:126
800018d0:	afa70028 	sw	a3,40(sp)
/user/mipsswt/git/newlib/libgloss/mips/hal/lib/mips/mips_excpt_entry.S:127
800018d4:	afa8002c 	sw	t0,44(sp)
/user/mipsswt/git/newlib/libgloss/mips/hal/lib/mips/mips_excpt_entry.S:128
800018d8:	afa90030 	sw	t1,48(sp)
/user/mipsswt/git/newlib/libgloss/mips/hal/lib/mips/mips_excpt_entry.S:129
800018dc:	afaa0034 	sw	t2,52(sp)
/user/mipsswt/git/newlib/libgloss/mips/hal/lib/mips/mips_excpt_entry.S:130
800018e0:	afab0038 	sw	t3,56(sp)
/user/mipsswt/git/newlib/libgloss/mips/hal/lib/mips/mips_excpt_entry.S:131
800018e4:	afac003c 	sw	t4,60(sp)
/user/mipsswt/git/newlib/libgloss/mips/hal/lib/mips/mips_excpt_entry.S:132
800018e8:	afad0040 	sw	t5,64(sp)
/user/mipsswt/git/newlib/libgloss/mips/hal/lib/mips/mips_excpt_entry.S:133
800018ec:	afae0044 	sw	t6,68(sp)
/user/mipsswt/git/newlib/libgloss/mips/hal/lib/mips/mips_excpt_entry.S:134
800018f0:	afaf0048 	sw	t7,72(sp)
/user/mipsswt/git/newlib/libgloss/mips/hal/lib/mips/mips_excpt_entry.S:135
800018f4:	afb0004c 	sw	s0,76(sp)
/user/mipsswt/git/newlib/libgloss/mips/hal/lib/mips/mips_excpt_entry.S:136
800018f8:	afb10050 	sw	s1,80(sp)
/user/mipsswt/git/newlib/libgloss/mips/hal/lib/mips/mips_excpt_entry.S:137
800018fc:	afb20054 	sw	s2,84(sp)
/user/mipsswt/git/newlib/libgloss/mips/hal/lib/mips/mips_excpt_entry.S:138
80001900:	afb30058 	sw	s3,88(sp)
/user/mipsswt/git/newlib/libgloss/mips/hal/lib/mips/mips_excpt_entry.S:139
80001904:	afb4005c 	sw	s4,92(sp)
/user/mipsswt/git/newlib/libgloss/mips/hal/lib/mips/mips_excpt_entry.S:140
80001908:	afb50060 	sw	s5,96(sp)
/user/mipsswt/git/newlib/libgloss/mips/hal/lib/mips/mips_excpt_entry.S:141
8000190c:	afb60064 	sw	s6,100(sp)
/user/mipsswt/git/newlib/libgloss/mips/hal/lib/mips/mips_excpt_entry.S:142
80001910:	afb70068 	sw	s7,104(sp)
/user/mipsswt/git/newlib/libgloss/mips/hal/lib/mips/mips_excpt_entry.S:143
80001914:	afb8006c 	sw	t8,108(sp)
/user/mipsswt/git/newlib/libgloss/mips/hal/lib/mips/mips_excpt_entry.S:144
80001918:	afb90070 	sw	t9,112(sp)
/user/mipsswt/git/newlib/libgloss/mips/hal/lib/mips/mips_excpt_entry.S:145
8000191c:	afba0074 	sw	k0,116(sp)
/user/mipsswt/git/newlib/libgloss/mips/hal/lib/mips/mips_excpt_entry.S:147
80001920:	afbc007c 	sw	gp,124(sp)
/user/mipsswt/git/newlib/libgloss/mips/hal/lib/mips/mips_excpt_entry.S:148
80001924:	afbb0080 	sw	k1,128(sp)
/user/mipsswt/git/newlib/libgloss/mips/hal/lib/mips/mips_excpt_entry.S:149
80001928:	afbe0084 	sw	s8,132(sp)
/user/mipsswt/git/newlib/libgloss/mips/hal/lib/mips/mips_excpt_entry.S:150
8000192c:	afbf0088 	sw	ra,136(sp)
/user/mipsswt/git/newlib/libgloss/mips/hal/lib/mips/mips_excpt_entry.S:151
80001930:	afa0009c 	sw	zero,156(sp)
/user/mipsswt/git/newlib/libgloss/mips/hal/lib/mips/mips_excpt_entry.S:154
80001934:	00004810 	mfhi	t1
/user/mipsswt/git/newlib/libgloss/mips/hal/lib/mips/mips_excpt_entry.S:155
80001938:	00005012 	mflo	t2
/user/mipsswt/git/newlib/libgloss/mips/hal/lib/mips/mips_excpt_entry.S:156
8000193c:	afa90094 	sw	t1,148(sp)
/user/mipsswt/git/newlib/libgloss/mips/hal/lib/mips/mips_excpt_entry.S:157
80001940:	afaa0098 	sw	t2,152(sp)
/user/mipsswt/git/newlib/libgloss/mips/hal/lib/mips/mips_excpt_entry.S:162
80001944:	401f7000 	mfc0	ra,c0_epc
/user/mipsswt/git/newlib/libgloss/mips/hal/lib/mips/mips_excpt_entry.S:163
80001948:	40136800 	mfc0	s3,c0_cause
/user/mipsswt/git/newlib/libgloss/mips/hal/lib/mips/mips_excpt_entry.S:164
8000194c:	afbf008c 	sw	ra,140(sp)
/user/mipsswt/git/newlib/libgloss/mips/hal/lib/mips/mips_excpt_entry.S:167
80001950:	40094000 	mfc0	t1,c0_badvaddr
/user/mipsswt/git/newlib/libgloss/mips/hal/lib/mips/mips_excpt_entry.S:168
80001954:	afa90090 	sw	t1,144(sp)
/user/mipsswt/git/newlib/libgloss/mips/hal/lib/mips/mips_excpt_entry.S:169
80001958:	afb300a4 	sw	s3,164(sp)
/user/mipsswt/git/newlib/libgloss/mips/hal/lib/mips/mips_excpt_entry.S:171
8000195c:	00005821 	move	t3,zero
/user/mipsswt/git/newlib/libgloss/mips/hal/lib/mips/mips_excpt_entry.S:172
80001960:	00006021 	move	t4,zero
/user/mipsswt/git/newlib/libgloss/mips/hal/lib/mips/mips_excpt_entry.S:173
80001964:	40098003 	mfc0	t1,c0_config3
/user/mipsswt/git/newlib/libgloss/mips/hal/lib/mips/mips_excpt_entry.S:174
80001968:	7d2a06c0 	ext	t2,t1,0x1b,0x1
/user/mipsswt/git/newlib/libgloss/mips/hal/lib/mips/mips_excpt_entry.S:175
8000196c:	11400002 	beqz	t2,80001978 <__exception_save+0xc8>
80001970:	00000000 	nop
/user/mipsswt/git/newlib/libgloss/mips/hal/lib/mips/mips_excpt_entry.S:176
80001974:	400b4002 	mfc0	t3,$8,2
/user/mipsswt/git/newlib/libgloss/mips/hal/lib/mips/mips_excpt_entry.S:178
80001978:	7d290680 	ext	t1,t1,0x1a,0x1
/user/mipsswt/git/newlib/libgloss/mips/hal/lib/mips/mips_excpt_entry.S:179
8000197c:	11200002 	beqz	t1,80001988 <__exception_save+0xd8>
80001980:	00000000 	nop
/user/mipsswt/git/newlib/libgloss/mips/hal/lib/mips/mips_excpt_entry.S:180
80001984:	400c4001 	mfc0	t4,$8,1
/user/mipsswt/git/newlib/libgloss/mips/hal/lib/mips/mips_excpt_entry.S:182
80001988:	afab00ac 	sw	t3,172(sp)
/user/mipsswt/git/newlib/libgloss/mips/hal/lib/mips/mips_excpt_entry.S:183
8000198c:	afac00a8 	sw	t4,168(sp)
/user/mipsswt/git/newlib/libgloss/mips/hal/lib/mips/mips_excpt_entry.S:186
80001990:	03a02021 	move	a0,sp
/user/mipsswt/git/newlib/libgloss/mips/hal/lib/mips/mips_excpt_entry.S:189
80001994:	40156000 	mfc0	s5,c0_status
/user/mipsswt/git/newlib/libgloss/mips/hal/lib/mips/mips_excpt_entry.S:190
80001998:	afb500a0 	sw	s5,160(sp)
/user/mipsswt/git/newlib/libgloss/mips/hal/lib/mips/mips_excpt_entry.S:191
8000199c:	3c090000 	lui	t1,0x0
/user/mipsswt/git/newlib/libgloss/mips/hal/lib/mips/mips_excpt_entry.S:192
800019a0:	2529fffd 	addiu	t1,t1,-3
/user/mipsswt/git/newlib/libgloss/mips/hal/lib/mips/mips_excpt_entry.S:193
800019a4:	02a9a824 	and	s5,s5,t1
/user/mipsswt/git/newlib/libgloss/mips/hal/lib/mips/mips_excpt_entry.S:194
800019a8:	40956000 	mtc0	s5,c0_status
/user/mipsswt/git/newlib/libgloss/mips/hal/lib/mips/mips_excpt_entry.S:197
800019ac:	3c1f8000 	lui	ra,0x8000
800019b0:	27ff19d0 	addiu	ra,ra,6608
/user/mipsswt/git/newlib/libgloss/mips/hal/lib/mips/mips_excpt_entry.S:199
800019b4:	3265007c 	andi	a1,s3,0x7c
/user/mipsswt/git/newlib/libgloss/mips/hal/lib/mips/mips_excpt_entry.S:202
800019b8:	24840010 	addiu	a0,a0,16
/user/mipsswt/git/newlib/libgloss/mips/hal/lib/mips/mips_excpt_entry.S:205
800019bc:	00052882 	srl	a1,a1,0x2
/user/mipsswt/git/newlib/libgloss/mips/hal/lib/mips/mips_excpt_entry.S:209
800019c0:	3c198000 	lui	t9,0x8000
800019c4:	27390dd4 	addiu	t9,t9,3540
/user/mipsswt/git/newlib/libgloss/mips/hal/lib/mips/mips_excpt_entry.S:210
800019c8:	03200008 	jr	t9
800019cc:	00000000 	nop
/user/mipsswt/git/newlib/libgloss/mips/hal/lib/mips/mips_excpt_entry.S:216
800019d0:	8fa90094 	lw	t1,148(sp)
/user/mipsswt/git/newlib/libgloss/mips/hal/lib/mips/mips_excpt_entry.S:217
800019d4:	8faa0098 	lw	t2,152(sp)
/user/mipsswt/git/newlib/libgloss/mips/hal/lib/mips/mips_excpt_entry.S:218
800019d8:	01200011 	mthi	t1
/user/mipsswt/git/newlib/libgloss/mips/hal/lib/mips/mips_excpt_entry.S:219
800019dc:	01400013 	mtlo	t2
/user/mipsswt/git/newlib/libgloss/mips/hal/lib/mips/mips_excpt_entry.S:222
800019e0:	8fa10010 	lw	at,16(sp)
/user/mipsswt/git/newlib/libgloss/mips/hal/lib/mips/mips_excpt_entry.S:223
800019e4:	8fa20014 	lw	v0,20(sp)
/user/mipsswt/git/newlib/libgloss/mips/hal/lib/mips/mips_excpt_entry.S:224
800019e8:	8fa30018 	lw	v1,24(sp)
/user/mipsswt/git/newlib/libgloss/mips/hal/lib/mips/mips_excpt_entry.S:225
800019ec:	8fa4001c 	lw	a0,28(sp)
/user/mipsswt/git/newlib/libgloss/mips/hal/lib/mips/mips_excpt_entry.S:226
800019f0:	8fa50020 	lw	a1,32(sp)
/user/mipsswt/git/newlib/libgloss/mips/hal/lib/mips/mips_excpt_entry.S:227
800019f4:	8fa60024 	lw	a2,36(sp)
/user/mipsswt/git/newlib/libgloss/mips/hal/lib/mips/mips_excpt_entry.S:228
800019f8:	8fa70028 	lw	a3,40(sp)
/user/mipsswt/git/newlib/libgloss/mips/hal/lib/mips/mips_excpt_entry.S:229
800019fc:	8fa8002c 	lw	t0,44(sp)
/user/mipsswt/git/newlib/libgloss/mips/hal/lib/mips/mips_excpt_entry.S:230
80001a00:	8fa90030 	lw	t1,48(sp)
/user/mipsswt/git/newlib/libgloss/mips/hal/lib/mips/mips_excpt_entry.S:231
80001a04:	8faa0034 	lw	t2,52(sp)
/user/mipsswt/git/newlib/libgloss/mips/hal/lib/mips/mips_excpt_entry.S:232
80001a08:	8fab0038 	lw	t3,56(sp)
/user/mipsswt/git/newlib/libgloss/mips/hal/lib/mips/mips_excpt_entry.S:233
80001a0c:	8fac003c 	lw	t4,60(sp)
/user/mipsswt/git/newlib/libgloss/mips/hal/lib/mips/mips_excpt_entry.S:234
80001a10:	8fad0040 	lw	t5,64(sp)
/user/mipsswt/git/newlib/libgloss/mips/hal/lib/mips/mips_excpt_entry.S:235
80001a14:	8fae0044 	lw	t6,68(sp)
/user/mipsswt/git/newlib/libgloss/mips/hal/lib/mips/mips_excpt_entry.S:236
80001a18:	8faf0048 	lw	t7,72(sp)
/user/mipsswt/git/newlib/libgloss/mips/hal/lib/mips/mips_excpt_entry.S:237
80001a1c:	8fb0004c 	lw	s0,76(sp)
/user/mipsswt/git/newlib/libgloss/mips/hal/lib/mips/mips_excpt_entry.S:238
80001a20:	8fb10050 	lw	s1,80(sp)
/user/mipsswt/git/newlib/libgloss/mips/hal/lib/mips/mips_excpt_entry.S:239
80001a24:	8fb20054 	lw	s2,84(sp)
/user/mipsswt/git/newlib/libgloss/mips/hal/lib/mips/mips_excpt_entry.S:240
80001a28:	8fb30058 	lw	s3,88(sp)
/user/mipsswt/git/newlib/libgloss/mips/hal/lib/mips/mips_excpt_entry.S:241
80001a2c:	8fb4005c 	lw	s4,92(sp)
/user/mipsswt/git/newlib/libgloss/mips/hal/lib/mips/mips_excpt_entry.S:242
80001a30:	8fb50060 	lw	s5,96(sp)
/user/mipsswt/git/newlib/libgloss/mips/hal/lib/mips/mips_excpt_entry.S:243
80001a34:	8fb60064 	lw	s6,100(sp)
/user/mipsswt/git/newlib/libgloss/mips/hal/lib/mips/mips_excpt_entry.S:244
80001a38:	8fb70068 	lw	s7,104(sp)
/user/mipsswt/git/newlib/libgloss/mips/hal/lib/mips/mips_excpt_entry.S:245
80001a3c:	8fb8006c 	lw	t8,108(sp)
/user/mipsswt/git/newlib/libgloss/mips/hal/lib/mips/mips_excpt_entry.S:246
80001a40:	8fb90070 	lw	t9,112(sp)
/user/mipsswt/git/newlib/libgloss/mips/hal/lib/mips/mips_excpt_entry.S:248
80001a44:	8fbc007c 	lw	gp,124(sp)
/user/mipsswt/git/newlib/libgloss/mips/hal/lib/mips/mips_excpt_entry.S:250
80001a48:	8fbe0084 	lw	s8,132(sp)
/user/mipsswt/git/newlib/libgloss/mips/hal/lib/mips/mips_excpt_entry.S:251
80001a4c:	8fbf0088 	lw	ra,136(sp)
/user/mipsswt/git/newlib/libgloss/mips/hal/lib/mips/mips_excpt_entry.S:252
80001a50:	41606000 	di
/user/mipsswt/git/newlib/libgloss/mips/hal/lib/mips/mips_excpt_entry.S:253
80001a54:	8fba00a0 	lw	k0,160(sp)
/user/mipsswt/git/newlib/libgloss/mips/hal/lib/mips/mips_excpt_entry.S:254
80001a58:	8fbb008c 	lw	k1,140(sp)
/user/mipsswt/git/newlib/libgloss/mips/hal/lib/mips/mips_excpt_entry.S:255
80001a5c:	409a6000 	mtc0	k0,c0_status
/user/mipsswt/git/newlib/libgloss/mips/hal/lib/mips/mips_excpt_entry.S:256
80001a60:	409b7000 	mtc0	k1,c0_epc
/user/mipsswt/git/newlib/libgloss/mips/hal/lib/mips/mips_excpt_entry.S:257
80001a64:	000000c0 	ehb
/user/mipsswt/git/newlib/libgloss/mips/hal/lib/mips/mips_excpt_entry.S:258
80001a68:	8fba0074 	lw	k0,116(sp)
/user/mipsswt/git/newlib/libgloss/mips/hal/lib/mips/mips_excpt_entry.S:259
80001a6c:	8fbb0078 	lw	k1,120(sp)
/user/mipsswt/git/newlib/libgloss/mips/hal/lib/mips/mips_excpt_entry.S:260
80001a70:	8fbd0080 	lw	sp,128(sp)
/user/mipsswt/git/newlib/libgloss/mips/hal/lib/mips/mips_excpt_entry.S:262
80001a74:	42000018 	eret

Disassembly of section .init:

80001a78 <_init>:
_init():
80001a78:	27bdffe0 	addiu	sp,sp,-32
80001a7c:	afbf0014 	sw	ra,20(sp)
80001a80:	0c0001bf 	jal	800006fc <frame_dummy>
80001a84:	00000000 	nop
80001a88:	0c000214 	jal	80000850 <__do_global_ctors_aux>
80001a8c:	00000000 	nop

80001a90 <init>:
init():
80001a90:	8fbf0014 	lw	ra,20(sp)
80001a94:	03e00008 	jr	ra
80001a98:	27bd0020 	addiu	sp,sp,32

Disassembly of section .fini:

80001a9c <_fini>:
_fini():
80001a9c:	27bdffe0 	addiu	sp,sp,-32
80001aa0:	afbf0014 	sw	ra,20(sp)
80001aa4:	0c00018f 	jal	8000063c <__do_global_dtors_aux>
80001aa8:	00000000 	nop

80001aac <fini>:
fini():
80001aac:	8fbf0014 	lw	ra,20(sp)
80001ab0:	03e00008 	jr	ra
80001ab4:	27bd0020 	addiu	sp,sp,32

Disassembly of section .eh_frame:

80001ab8 <__EH_FRAME_BEGIN__>:
80001ab8:	00000000 	nop

Disassembly of section .jcr:

80001abc <__JCR_END__>:
80001abc:	00000000 	nop

Disassembly of section .ctors:

80001ac0 <__CTOR_LIST__>:
80001ac0:	ffffffff 	sdc3	$31,-1(ra)

80001ac4 <__CTOR_END__>:
80001ac4:	00000000 	nop

Disassembly of section .dtors:

80001ac8 <__DTOR_LIST__>:
80001ac8:	ffffffff 	sdc3	$31,-1(ra)

80001acc <__DTOR_END__>:
80001acc:	00000000 	nop

Disassembly of section .MIPS.abiflags:

80001ad0 <__MIPS_abiflags_start>:
__MIPS_abiflags_start():
80001ad0:	02200000 	0x2200000
80001ad4:	03000001 	movf	zero,t8,$fcc0
	...
80001ae0:	00000001 	movf	zero,zero,$fcc0
80001ae4:	00000000 	nop

Disassembly of section .rodata:

80001ae8 <_fdata-0x4a8>:
80001ae8:	80000e14 	lb	zero,3604(zero)
80001aec:	80000e24 	lb	zero,3620(zero)
80001af0:	80000e30 	lb	zero,3632(zero)
80001af4:	80000e3c 	lb	zero,3644(zero)
80001af8:	80000e5c 	lb	zero,3676(zero)
80001afc:	80000e68 	lb	zero,3688(zero)
80001b00:	80000e88 	lb	zero,3720(zero)
80001b04:	80000e9c 	lb	zero,3740(zero)
80001b08:	80000f5c 	lb	zero,3932(zero)
80001b0c:	80000f68 	lb	zero,3944(zero)
80001b10:	80000f74 	lb	zero,3956(zero)
80001b14:	80000f80 	lb	zero,3968(zero)
80001b18:	80000f94 	lb	zero,3988(zero)
80001b1c:	80000fa8 	lb	zero,4008(zero)
80001b20:	8000100c 	lb	zero,4108(zero)
80001b24:	80001070 	lb	zero,4208(zero)
80001b28:	80001080 	lb	zero,4224(zero)
80001b2c:	80001094 	lb	zero,4244(zero)
80001b30:	800010a8 	lb	zero,4264(zero)
80001b34:	800010bc 	lb	zero,4284(zero)
80001b38:	800010d0 	lb	zero,4304(zero)
80001b3c:	800010dc 	lb	zero,4316(zero)
80001b40:	800010e8 	lb	zero,4328(zero)
80001b44:	800010f8 	lb	zero,4344(zero)
80001b48:	8000110c 	lb	zero,4364(zero)
80001b4c:	80001120 	lb	zero,4384(zero)
80001b50:	80001148 	lb	zero,4424(zero)
80001b54:	80001148 	lb	zero,4424(zero)
80001b58:	80001148 	lb	zero,4424(zero)
80001b5c:	80001134 	lb	zero,4404(zero)
80001b60:	00000043 	sra	zero,zero,0x1
80001b64:	33323130 	andi	s2,t9,0x3130
80001b68:	37363534 	ori	s6,t9,0x3534
80001b6c:	42413938 	c0	0x413938
80001b70:	46454443 	c1	0x454443
80001b74:	00000000 	nop
80001b78:	20424c54 	addi	v0,v0,19540
80001b7c:	69646f6d 	0x69646f6d
80001b80:	61636966 	0x61636966
80001b84:	6e6f6974 	0x6e6f6974
80001b88:	63786520 	0x63786520
80001b8c:	69747065 	0x69747065
80001b90:	000a6e6f 	0xa6e6f
80001b94:	20424c54 	addi	v0,v0,19540
80001b98:	6f727265 	0x6f727265
80001b9c:	6e6f2072 	0x6e6f2072
80001ba0:	616f6c20 	0x616f6c20
80001ba4:	72662064 	s8ldi	xr1,s3,-120,ptn1
80001ba8:	30206d6f 	andi	zero,at,0x6d6f
80001bac:	00000078 	0x78
80001bb0:	20424c54 	addi	v0,v0,19540
80001bb4:	6f727265 	0x6f727265
80001bb8:	6e6f2072 	0x6e6f2072
80001bbc:	6f747320 	0x6f747320
80001bc0:	74206572 	jalx	808195c8 <__stack+0x7d95c8>
80001bc4:	7830206f 	0x7830206f
80001bc8:	00000000 	nop
80001bcc:	72646441 	0x72646441
80001bd0:	20737365 	addi	s3,v1,29541
80001bd4:	6f727265 	0x6f727265
80001bd8:	6e6f2072 	0x6e6f2072
80001bdc:	616f6c20 	0x616f6c20
80001be0:	72662064 	s8ldi	xr1,s3,-120,ptn1
80001be4:	30206d6f 	andi	zero,at,0x6d6f
80001be8:	00000078 	0x78
80001bec:	72646441 	0x72646441
80001bf0:	20737365 	addi	s3,v1,29541
80001bf4:	6f727265 	0x6f727265
80001bf8:	6e6f2072 	0x6e6f2072
80001bfc:	6f747320 	0x6f747320
80001c00:	74206572 	jalx	808195c8 <__stack+0x7d95c8>
80001c04:	7830206f 	0x7830206f
80001c08:	00000000 	nop
80001c0c:	74736e49 	jalx	81cdb924 <__stack+0x1c9b924>
80001c10:	74637572 	jalx	818dd5c8 <__stack+0x189d5c8>
80001c14:	206e6f69 	addi	t6,v1,28521
80001c18:	20737562 	addi	s3,v1,30050
80001c1c:	6f727265 	0x6f727265
80001c20:	00000a72 	tlt	zero,zero,0x29
80001c24:	61746144 	0x61746144
80001c28:	73756220 	0x73756220
80001c2c:	72726520 	0x72726520
80001c30:	000a726f 	0xa726f
80001c34:	6320324c 	0x6320324c
80001c38:	65686361 	0x65686361
80001c3c:	6e6f6320 	0x6e6f6320
80001c40:	75676966 	jalx	859da598 <__stack+0x599a598>
80001c44:	69746172 	0x69746172
80001c48:	65206e6f 	0x65206e6f
80001c4c:	726f7272 	0x726f7272
80001c50:	0000000a 	movz	zero,zero,zero
80001c54:	6e6b6e55 	0x6e6b6e55
80001c58:	206e776f 	addi	t6,v1,30575
80001c5c:	746f6f62 	jalx	81bdbd88 <__stack+0x1b9bd88>
80001c60:	69616620 	0x69616620
80001c64:	6572756c 	0x6572756c
80001c68:	72726520 	0x72726520
80001c6c:	000a726f 	0xa726f
80001c70:	61657242 	0x61657242
80001c74:	696f706b 	0x696f706b
80001c78:	4020746e 	0x4020746e
80001c7c:	00007830 	tge	zero,zero,0x1e0
80001c80:	656c6c49 	0x656c6c49
80001c84:	206c6167 	addi	t4,v1,24935
80001c88:	74736e69 	jalx	81cdb9a4 <__stack+0x1c9b9a4>
80001c8c:	74637572 	jalx	818dd5c8 <__stack+0x189d5c8>
80001c90:	206e6f69 	addi	t6,v1,28521
80001c94:	00783040 	0x783040
80001c98:	72706f43 	0x72706f43
80001c9c:	7365636f 	0x7365636f
80001ca0:	20726f73 	addi	s2,v1,28531
80001ca4:	73756e75 	q16slr	xr9,xr11,xr5,xr13,13
80001ca8:	656c6261 	0x656c6261
80001cac:	78304020 	ld.b	$w0,48(t0)
80001cb0:	00000000 	nop
80001cb4:	7265764f 	d16mace	xr9,xr13,xr5,xr9,SA,LW
80001cb8:	776f6c66 	jalx	8dbdb198 <__stack+0xdb9b198>
80001cbc:	0000000a 	movz	zero,zero,zero
80001cc0:	70617254 	s32ldi	xr9,v1,368
80001cc4:	0000000a 	movz	zero,zero,zero
80001cc8:	2041534d 	addi	at,v0,21325
80001ccc:	616f6c46 	0x616f6c46
80001cd0:	676e6974 	0x676e6974
80001cd4:	696f7020 	0x696f7020
80001cd8:	6520746e 	0x6520746e
80001cdc:	726f7272 	0x726f7272
80001ce0:	0000000a 	movz	zero,zero,zero
80001ce4:	6c706d49 	0x6c706d49
80001ce8:	6e656d65 	0x6e656d65
80001cec:	69746174 	0x69746174
80001cf0:	73206e6f 	0x73206e6f
80001cf4:	69636570 	0x69636570
80001cf8:	20636966 	addi	v1,v1,26982
80001cfc:	65637865 	0x65637865
80001d00:	6f697470 	0x6f697470
80001d04:	3128206e 	andi	t0,t1,0x206e
80001d08:	000a2936 	tne	zero,t2,0xa4
80001d0c:	6c706d49 	0x6c706d49
80001d10:	6e656d65 	0x6e656d65
80001d14:	69746174 	0x69746174
80001d18:	73206e6f 	0x73206e6f
80001d1c:	69636570 	0x69636570
80001d20:	20636966 	addi	v1,v1,26982
80001d24:	65637865 	0x65637865
80001d28:	6f697470 	0x6f697470
80001d2c:	3128206e 	andi	t0,t1,0x206e
80001d30:	000a2937 	0xa2937
80001d34:	63657250 	0x63657250
80001d38:	20657369 	addi	a1,v1,29545
80001d3c:	72706f43 	0x72706f43
80001d40:	7365636f 	0x7365636f
80001d44:	20726f73 	addi	s2,v1,28531
80001d48:	78652032 	0x78652032
80001d4c:	74706563 	jalx	81c1958c <__stack+0x1bd958c>
80001d50:	0a6e6f69 	j	89b9bda4 <__stack+0x9b5bda4>
80001d54:	00000000 	nop
80001d58:	20424c54 	addi	v0,v0,19540
80001d5c:	64616572 	0x64616572
80001d60:	686e6920 	0x686e6920
80001d64:	74696269 	jalx	81a589a4 <__stack+0x1a189a4>
80001d68:	63786520 	0x63786520
80001d6c:	69747065 	0x69747065
80001d70:	000a6e6f 	0xa6e6f
80001d74:	20424c54 	addi	v0,v0,19540
80001d78:	63657865 	0x63657865
80001d7c:	20657475 	addi	a1,v1,29813
80001d80:	69686e69 	0x69686e69
80001d84:	20746962 	addi	s4,v1,26978
80001d88:	65637865 	0x65637865
80001d8c:	6f697470 	0x6f697470
80001d90:	00000a6e 	0xa6e
80001d94:	2041534d 	addi	at,v0,21325
80001d98:	73756e75 	q16slr	xr9,xr11,xr5,xr13,13
80001d9c:	656c6261 	0x656c6261
80001da0:	78304020 	ld.b	$w0,48(t0)
80001da4:	00000000 	nop
80001da8:	584d444d 	0x584d444d
80001dac:	63786520 	0x63786520
80001db0:	69747065 	0x69747065
80001db4:	40206e6f 	0x40206e6f
80001db8:	00007830 	tge	zero,zero,0x1e0
80001dbc:	63746157 	0x63746157
80001dc0:	696f7068 	0x696f7068
80001dc4:	4020746e 	0x4020746e
80001dc8:	00007830 	tge	zero,zero,0x1e0
80001dcc:	6863614d 	0x6863614d
80001dd0:	20656e69 	addi	a1,v1,28265
80001dd4:	63656863 	0x63656863
80001dd8:	7265206b 	s16std	xr1,s3,-368,ptn0
80001ddc:	0a726f72 	j	89c9bdc8 <__stack+0x9c5bdc8>
80001de0:	00000000 	nop
80001de4:	65726854 	0x65726854
80001de8:	65206461 	0x65206461
80001dec:	70656378 	0x70656378
80001df0:	6e6f6974 	0x6e6f6974
80001df4:	0000000a 	movz	zero,zero,zero
80001df8:	20505344 	addi	s0,v0,21316
80001dfc:	73756e75 	q16slr	xr9,xr11,xr5,xr13,13
80001e00:	656c6261 	0x656c6261
80001e04:	0000000a 	movz	zero,zero,zero
80001e08:	68636143 	0x68636143
80001e0c:	72652065 	s8sdi	xr1,s3,72,ptn1
80001e10:	0a726f72 	j	89c9bdc8 <__stack+0x9c5bdc8>
80001e14:	00000000 	nop
80001e18:	61686e55 	0x61686e55
80001e1c:	656c646e 	0x656c646e
80001e20:	78652064 	st.b	$w1,101(a0)
80001e24:	74706563 	jalx	81c1958c <__stack+0x1bd958c>
80001e28:	206e6f69 	addi	t6,v1,28521
80001e2c:	00000000 	nop
80001e30:	093a3020 	j	84e8c080 <__stack+0x4e4c080>
80001e34:	00000000 	nop
80001e38:	00000009 	jalr	zero,zero
80001e3c:	093a7461 	j	84e9d184 <__stack+0x4e5d184>
80001e40:	00000000 	nop
80001e44:	093a3076 	j	84e8c1d8 <__stack+0x4e4c1d8>
80001e48:	00000000 	nop
80001e4c:	093a3176 	j	84e8c5d8 <__stack+0x4e4c5d8>
80001e50:	00000000 	nop
80001e54:	093a3061 	j	84e8c184 <__stack+0x4e4c184>
80001e58:	00000000 	nop
80001e5c:	093a3161 	j	84e8c584 <__stack+0x4e4c584>
80001e60:	00000000 	nop
80001e64:	093a3261 	j	84e8c984 <__stack+0x4e4c984>
80001e68:	00000000 	nop
80001e6c:	093a3361 	j	84e8cd84 <__stack+0x4e4cd84>
80001e70:	00000000 	nop
80001e74:	093a3074 	j	84e8c1d0 <__stack+0x4e4c1d0>
80001e78:	00000000 	nop
80001e7c:	093a3174 	j	84e8c5d0 <__stack+0x4e4c5d0>
80001e80:	00000000 	nop
80001e84:	093a3274 	j	84e8c9d0 <__stack+0x4e4c9d0>
80001e88:	00000000 	nop
80001e8c:	093a3374 	j	84e8cdd0 <__stack+0x4e4cdd0>
80001e90:	00000000 	nop
80001e94:	093a3474 	j	84e8d1d0 <__stack+0x4e4d1d0>
80001e98:	00000000 	nop
80001e9c:	093a3574 	j	84e8d5d0 <__stack+0x4e4d5d0>
80001ea0:	00000000 	nop
80001ea4:	093a3674 	j	84e8d9d0 <__stack+0x4e4d9d0>
80001ea8:	00000000 	nop
80001eac:	093a3774 	j	84e8ddd0 <__stack+0x4e4ddd0>
80001eb0:	00000000 	nop
80001eb4:	093a3073 	j	84e8c1cc <__stack+0x4e4c1cc>
80001eb8:	00000000 	nop
80001ebc:	093a3173 	j	84e8c5cc <__stack+0x4e4c5cc>
80001ec0:	00000000 	nop
80001ec4:	093a3273 	j	84e8c9cc <__stack+0x4e4c9cc>
80001ec8:	00000000 	nop
80001ecc:	093a3373 	j	84e8cdcc <__stack+0x4e4cdcc>
80001ed0:	00000000 	nop
80001ed4:	093a3473 	j	84e8d1cc <__stack+0x4e4d1cc>
80001ed8:	00000000 	nop
80001edc:	093a3573 	j	84e8d5cc <__stack+0x4e4d5cc>
80001ee0:	00000000 	nop
80001ee4:	093a3673 	j	84e8d9cc <__stack+0x4e4d9cc>
80001ee8:	00000000 	nop
80001eec:	093a3773 	j	84e8ddcc <__stack+0x4e4ddcc>
80001ef0:	00000000 	nop
80001ef4:	093a3874 	j	84e8e1d0 <__stack+0x4e4e1d0>
80001ef8:	00000000 	nop
80001efc:	093a3974 	j	84e8e5d0 <__stack+0x4e4e5d0>
80001f00:	00000000 	nop
80001f04:	093a306b 	j	84e8c1ac <__stack+0x4e4c1ac>
80001f08:	00000000 	nop
80001f0c:	093a316b 	j	84e8c5ac <__stack+0x4e4c5ac>
80001f10:	00000000 	nop
80001f14:	093a7067 	j	84e9c19c <__stack+0x4e5c19c>
80001f18:	00000000 	nop
80001f1c:	093a7073 	j	84e9c1cc <__stack+0x4e5c1cc>
80001f20:	00000000 	nop
80001f24:	093a7066 	j	84e9c198 <__stack+0x4e5c198>
80001f28:	00000000 	nop
80001f2c:	093a6172 	j	84e985c8 <__stack+0x4e585c8>
80001f30:	00000000 	nop
80001f34:	093a6968 	j	84e9a5a0 <__stack+0x4e5a5a0>
80001f38:	00000000 	nop
80001f3c:	093a6f6c 	j	84e9bdb0 <__stack+0x4e5bdb0>
80001f40:	00000000 	nop
80001f44:	3a637065 	xori	v1,s3,0x7065
80001f48:	20202020 	addi	zero,at,8224
80001f4c:	00000920 	0x920
80001f50:	56646142 	bnel	s3,a0,8001a45c <__global+0x10034>
80001f54:	72646441 	0x72646441
80001f58:	0000093a 	0x93a
80001f5c:	74617453 	jalx	8185d14c <__stack+0x181d14c>
80001f60:	203a7375 	addi	k0,at,29557
80001f64:	00092020 	add	a0,zero,t1
80001f68:	73756143 	0x73756143
80001f6c:	20203a65 	addi	zero,at,14949
80001f70:	00092020 	add	a0,zero,t1
80001f74:	49646142 	0x49646142
80001f78:	7274736e 	0x7274736e
80001f7c:	0009203a 	0x9203a
80001f80:	50646142 	beql	v1,a0,8001a48c <__global+0x10064>
80001f84:	74736e49 	jalx	81cdb924 <__stack+0x1c9b924>
80001f88:	00093a72 	tlt	zero,t1,0xe9

Disassembly of section .data:

80001f90 <__temp_space>:
	...

80001fa0 <impure_data>:
__temp_space():
80001fa0:	00000000 	nop
80001fa4:	8000228c 	lb	zero,8844(zero)
80001fa8:	800022f4 	lb	zero,8948(zero)
80001fac:	8000235c 	lb	zero,9052(zero)
	...
80001fd4:	80001b60 	lb	zero,7008(zero)
	...
80002048:	00000001 	movf	zero,zero,$fcc0
8000204c:	00000000 	nop
80002050:	abcd330e 	swl	t5,13070(s8)
80002054:	e66d1234 	swc1	$f13,4660(s3)
80002058:	0005deec 	0x5deec
8000205c:	0000000b 	movn	zero,zero,zero
	...

800023c8 <__start_ctx>:
	...

80002410 <__MIPS_UHI_BAD_POINTER>:
80002410:	3a494855 	xori	t1,s2,0x4855
80002414:	44414220 	0x44414220
80002418:	494f5020 	0x494f5020
8000241c:	5245544e 	beql	s2,a1,80017558 <__global+0xd130>
80002420:	00000000 	nop

Disassembly of section .sdata:

80002428 <__dso_handle>:
80002428:	00000000 	nop

8000242c <_global_impure_ptr>:
8000242c:	80001fa0 	lb	zero,8096(zero)

80002430 <_impure_ptr>:
80002430:	80001fa0 	lb	zero,8096(zero)

Disassembly of section .bss:

80002434 <_bss_start>:
_bss_start():
80002434:	00000000 	nop

80002438 <dtor_idx.3436>:
80002438:	00000000 	nop

8000243c <object.3446>:
	...

Disassembly of section .startdata:

80002460 <__lstack-0x400>:
	...

80002860 <__lstack>:
	...

Disassembly of section .debug_aranges:

00000000 <.debug_aranges>:
   0:	0000001c 	0x1c
   4:	00000002 	srl	zero,zero,0x0
   8:	00040000 	sll	zero,a0,0x0
   c:	00000000 	nop
  10:	80000320 	lb	zero,800(zero)
  14:	00000298 	0x298
	...
  20:	0000001c 	0x1c
  24:	00b60002 	0xb60002
  28:	00040000 	sll	zero,a0,0x0
  2c:	00000000 	nop
  30:	9fc00000 	0x9fc00000
  34:	0000049c 	0x49c
	...
  40:	0000001c 	0x1c
  44:	011e0002 	0x11e0002
  48:	00040000 	sll	zero,a0,0x0
  4c:	00000000 	nop
  50:	8000075c 	lb	zero,1884(zero)
  54:	000000f4 	teq	zero,zero,0x3
	...
  60:	0000001c 	0x1c
  64:	020f0002 	0x20f0002
  68:	00040000 	sll	zero,a0,0x0
  6c:	00000000 	nop
  70:	80000898 	lb	zero,2200(zero)
  74:	00000028 	0x28
	...
  80:	0000001c 	0x1c
  84:	03150002 	0x3150002
  88:	00040000 	sll	zero,a0,0x0
  8c:	00000000 	nop
  90:	800008c0 	lb	zero,2240(zero)
  94:	0000003c 	0x3c
	...
  a0:	00000014 	0x14
  a4:	0bf50002 	j	fd40008 <__memory_size+0xfd20808>
  a8:	00040000 	sll	zero,a0,0x0
	...
  b8:	0000001c 	0x1c
  bc:	14850002 	bne	a0,a1,c8 <__isr_vec_space+0xa8>
  c0:	00040000 	sll	zero,a0,0x0
  c4:	00000000 	nop
  c8:	800008fc 	lb	zero,2300(zero)
  cc:	00000108 	0x108
	...
  d8:	0000001c 	0x1c
  dc:	1db50002 	0x1db50002
  e0:	00040000 	sll	zero,a0,0x0
  e4:	00000000 	nop
  e8:	80000a04 	lb	zero,2564(zero)
  ec:	00000180 	sll	zero,zero,0x6
	...
  f8:	0000001c 	0x1c
  fc:	270a0002 	addiu	t2,t8,2
 100:	00040000 	sll	zero,a0,0x0
 104:	00000000 	nop
 108:	80000b84 	lb	zero,2948(zero)
 10c:	00000088 	0x88
	...
 118:	0000001c 	0x1c
 11c:	28300002 	slti	s0,at,2
 120:	00040000 	sll	zero,a0,0x0
 124:	00000000 	nop
 128:	80000c0c 	lb	zero,3084(zero)
 12c:	000000b8 	0xb8
	...
 138:	0000001c 	0x1c
 13c:	28ed0002 	slti	t5,a3,2
 140:	00040000 	sll	zero,a0,0x0
 144:	00000000 	nop
 148:	80000cc4 	lb	zero,3268(zero)
 14c:	00000048 	0x48
	...
 158:	00000024 	and	zero,zero,zero
 15c:	29fc0002 	slti	gp,t7,2
 160:	00040000 	sll	zero,a0,0x0
 164:	00000000 	nop
 168:	80000000 	lb	zero,0(zero)
 16c:	00000194 	0x194
 170:	800018b0 	lb	zero,6320(zero)
 174:	000001c8 	0x1c8
	...
 180:	0000001c 	0x1c
 184:	2ac70002 	slti	a3,s6,2
 188:	00040000 	sll	zero,a0,0x0
 18c:	00000000 	nop
 190:	80000d0c 	lb	zero,3340(zero)
 194:	000007a4 	0x7a4
	...
 1a0:	0000001c 	0x1c
 1a4:	363c0002 	ori	gp,s1,0x2
 1a8:	00040000 	sll	zero,a0,0x0
 1ac:	00000000 	nop
 1b0:	800014b0 	lb	zero,5296(zero)
 1b4:	000000b4 	teq	zero,zero,0x2
	...
 1c0:	0000001c 	0x1c
 1c4:	370e0002 	ori	t6,t8,0x2
 1c8:	00040000 	sll	zero,a0,0x0
 1cc:	00000000 	nop
 1d0:	80001564 	lb	zero,5476(zero)
 1d4:	0000027c 	0x27c
	...
 1e0:	0000001c 	0x1c
 1e4:	37dc0002 	ori	gp,s8,0x2
 1e8:	00040000 	sll	zero,a0,0x0
 1ec:	00000000 	nop
 1f0:	80000200 	lb	zero,512(zero)
 1f4:	00000118 	0x118
	...
 200:	00000014 	0x14
 204:	38a90002 	xori	t1,a1,0x2
 208:	00040000 	sll	zero,a0,0x0
	...
 218:	0000001c 	0x1c
 21c:	39170002 	xori	s7,t0,0x2
 220:	00040000 	sll	zero,a0,0x0
 224:	00000000 	nop
 228:	800017fc 	lb	zero,6140(zero)
 22c:	00000050 	0x50
	...
 238:	0000001c 	0x1c
 23c:	3a950002 	xori	s5,s4,0x2
 240:	00040000 	sll	zero,a0,0x0
 244:	00000000 	nop
 248:	8000184c 	lb	zero,6220(zero)
 24c:	00000014 	0x14
	...
 258:	0000001c 	0x1c
 25c:	3d450002 	0x3d450002
 260:	00040000 	sll	zero,a0,0x0
 264:	00000000 	nop
 268:	80001860 	lb	zero,6240(zero)
 26c:	00000044 	0x44
	...
 278:	0000001c 	0x1c
 27c:	3ffb0002 	0x3ffb0002
 280:	00040000 	sll	zero,a0,0x0
 284:	00000000 	nop
 288:	800018a4 	lb	zero,6308(zero)
 28c:	0000000c 	syscall
	...

Disassembly of section .debug_info:

00000000 <.debug_info>:
       0:	000000b2 	tlt	zero,zero,0x2
       4:	00000002 	srl	zero,zero,0x0
       8:	01040000 	0x1040000
       c:	00000000 	nop
      10:	80000320 	lb	zero,800(zero)
      14:	800005b8 	lb	zero,1464(zero)
      18:	6573752f 	0x6573752f
      1c:	696d2f72 	0x696d2f72
      20:	77737370 	jalx	dcdcdc0 <__memory_size+0xdcbd5c0>
      24:	69672f74 	0x69672f74
      28:	656e2f74 	0x656e2f74
      2c:	62696c77 	0x62696c77
      30:	62696c2f 	0x62696c2f
      34:	736f6c67 	0x736f6c67
      38:	696d2f73 	0x696d2f73
      3c:	632f7370 	0x632f7370
      40:	2e307472 	sltiu	s0,s1,29810
      44:	752f0053 	jalx	4bc014c <__memory_size+0x4ba094c>
      48:	2f726573 	sltiu	s2,k1,25971
      4c:	7370696d 	s16sdi	xr5,k1,52,
      50:	2f747773 	sltiu	s4,k1,30579
      54:	6c697562 	0x6c697562
      58:	30322d64 	andi	s2,at,0x2d64
      5c:	302e3531 	andi	t6,at,0x3531
      60:	35302d36 	ori	s0,t1,0x2d36
      64:	6a626f2f 	0x6a626f2f
      68:	6f72632d 	0x6f72632d
      6c:	6d2d7373 	0x6d2d7373
      70:	2d737069 	sltiu	s3,t3,28777
      74:	2d69746d 	sltiu	t1,t3,29805
      78:	2f666c65 	sltiu	a2,k1,27749
      7c:	6c77656e 	0x6c77656e
      80:	6d2f6269 	0x6d2f6269
      84:	2d737069 	sltiu	s3,t3,28777
      88:	2d69746d 	sltiu	t1,t3,29805
      8c:	2f666c65 	sltiu	a2,k1,27749
      90:	732f6c65 	s8sdi	xr1,t9,-37,ptn3
      94:	6c2f666f 	0x6c2f666f
      98:	6c676269 	0x6c676269
      9c:	2f73736f 	sltiu	s3,k1,29551
      a0:	7370696d 	s16sdi	xr5,k1,52,
      a4:	554e4700 	bnel	t2,t6,11ca8 <__isr_vec_space+0x11c88>
      a8:	20534120 	addi	s3,v0,16672
      ac:	34322e32 	ori	s2,at,0x2e32
      b0:	0030392e 	0x30392e
      b4:	00648001 	movf	s0,v1,$fcc1
      b8:	00020000 	sll	zero,v0,0x0
      bc:	00000014 	0x14
      c0:	00de0104 	0xde0104
      c4:	00000000 	nop
      c8:	049c9fc0 	0x49c9fc0
      cc:	6f629fc0 	0x6f629fc0
      d0:	532e746f 	beql	t9,t6,1d290 <__isr_vec_space+0x1d270>
      d4:	5c3a4300 	0x5c3a4300
      d8:	72657355 	s32sdi	xr13,s3,1392
      dc:	614d5c73 	0x614d5c73
      e0:	505c7474 	beql	v0,gp,1d2b4 <__isr_vec_space+0x1d294>
      e4:	656a6f72 	0x656a6f72
      e8:	5c737463 	0x5c737463
      ec:	7370696d 	s16sdi	xr5,k1,52,
      f0:	61677066 	0x61677066
      f4:	7369642d 	s16sdi	xr0,k1,178,ptn1
      f8:	79616c70 	0x79616c70
      fc:	6372735c 	0x6372735c
     100:	625c635c 	0x625c635c
     104:	63697361 	0x63697361
     108:	746f645f 	jalx	1bd917c <__memory_size+0x1bb997c>
     10c:	554e4700 	bnel	t2,t6,11d10 <__isr_vec_space+0x11cf0>
     110:	20534120 	addi	s3,v0,16672
     114:	34322e32 	ori	s2,at,0x2e32
     118:	0030392e 	0x30392e
     11c:	00ed8001 	movt	s0,a3,$fcc3
     120:	00040000 	sll	zero,a0,0x0
     124:	00000028 	0x28
     128:	001a0104 	0x1a0104
     12c:	8c010000 	lw	at,0(zero)
     130:	a4000000 	sh	zero,0(zero)
     134:	5c000000 	bgtzl	zero,138 <__isr_vec_space+0x118>
     138:	f4800007 	sdc1	$f0,7(a0)
     13c:	02000000 	0x2000000
     140:	02000002 	0x2000002
     144:	000000dc 	0xdc
     148:	00aa0f01 	0xaa0f01
     14c:	075c0000 	0x75c0000
     150:	00a88000 	0xa88000
     154:	9c010000 	0x9c010000
     158:	000000aa 	0xaa
     15c:	00000003 	sra	zero,zero,0x0
     160:	b1100100 	0xb1100100
     164:	80000000 	lb	zero,0(zero)
     168:	7b86c3fc 	0x7b86c3fc
     16c:	00000d03 	sra	at,zero,0x14
     170:	b1110100 	0xb1110100
     174:	84000000 	lh	zero,0(zero)
     178:	7b86c3fc 	0x7b86c3fc
     17c:	00006d03 	sra	t5,zero,0x14
     180:	b1120100 	0xb1120100
     184:	80000000 	lb	zero,0(zero)
     188:	7b86c3f4 	0x7b86c3f4
     18c:	00009303 	sra	s2,zero,0xc
     190:	b1130100 	0xb1130100
     194:	80000000 	lb	zero,0(zero)
     198:	7b86c080 	xori.b	$w2,$w24,0x86
     19c:	0000e104 	0xe104
     1a0:	bc150100 	cache	0x15,256(zero)
     1a4:	00000000 	nop
     1a8:	04000000 	bltz	zero,1ac <__isr_vec_space+0x18c>
     1ac:	00000084 	0x84
     1b0:	00bc1601 	0xbc1601
     1b4:	00680000 	0x680000
     1b8:	69050000 	0x69050000
     1bc:	aa170100 	swl	s7,256(s0)
     1c0:	80000000 	lb	zero,0(zero)
     1c4:	00000001 	movf	zero,zero,$fcc0
     1c8:	69050406 	0x69050406
     1cc:	0700746e 	bltz	t8,1d388 <__isr_vec_space+0x1d368>
     1d0:	0000b704 	0xb704
     1d4:	00aa0800 	0xaa0800
     1d8:	04070000 	aclr	0x0,0(zero)
     1dc:	000000aa 	0xaa
     1e0:	00007e09 	0x7e09
     1e4:	04480100 	tgei	v0,256
     1e8:	4c800008 	swxc1	$f0,zero(a0)
     1ec:	01000000 	0x1000000
     1f0:	0000e49c 	0xe49c
     1f4:	006a0a00 	0x6a0a00
     1f8:	00e44901 	0xe44901
     1fc:	91020000 	lbu	v0,0(t0)
     200:	e9080078 	swc2	$8,120(t0)
     204:	0b000000 	j	c000000 <__memory_size+0xbfe0800>
     208:	01580704 	0x1580704
     20c:	02000000 	0x2000000
     210:	04000001 	bltz	zero,218 <__isr_vec_space+0x1f8>
     214:	0000d000 	sll	k0,zero,0x0
     218:	65010400 	0x65010400
     21c:	01000001 	movf	zero,t0,$fcc0
     220:	00000119 	0x119
     224:	80000898 	lb	zero,2200(zero)
     228:	00000028 	0x28
     22c:	0000025c 	0x25c
     230:	53070402 	beql	t8,a3,123c <__isr_vec_space+0x121c>
     234:	03000001 	movf	zero,t8,$fcc0
     238:	6e690504 	0x6e690504
     23c:	04020074 	bltzl	zero,410 <__isr_vec_space+0x3f0>
     240:	0000ee05 	0xee05
     244:	06010200 	bgez	s0,a48 <__isr_vec_space+0xa28>
     248:	0000020f 	sync	0x8
     24c:	0d080102 	jal	4200408 <__memory_size+0x41e0c08>
     250:	02000002 	0x2000002
     254:	02440502 	0x2440502
     258:	02020000 	0x2020000
     25c:	0000f707 	0xf707
     260:	05080200 	tgei	t0,512
     264:	000000e9 	0xe9
     268:	4e070802 	c3	0x70802
     26c:	02000001 	movf	zero,s0,$fcc0
     270:	01580704 	0x1580704
     274:	04020000 	bltzl	zero,278 <__isr_vec_space+0x258>
     278:	00025a07 	0x25a07
     27c:	05040400 	0x5040400
     280:	00007604 	0x7604
     284:	01020600 	0x1020600
     288:	00021608 	0x21608
     28c:	010a0700 	0x10a0700
     290:	02040000 	0x2040000
     294:	00009d05 	0x9d05
     298:	024e0800 	0x24e0800
     29c:	08000000 	j	0 <hardware_exit_hook>
     2a0:	0000022f 	0x22f
     2a4:	023b0801 	0x23b0801
     2a8:	00020000 	sll	zero,v0,0x0
     2ac:	00025309 	0x25309
     2b0:	28440300 	slti	a0,v0,768
     2b4:	98000000 	lwr	zero,0(zero)
     2b8:	28800008 	slti	zero,a0,8
     2bc:	01000000 	0x1000000
     2c0:	0000e59c 	0xe59c
     2c4:	6e660a00 	0x6e660a00
     2c8:	703d0100 	0x703d0100
     2cc:	54000000 	bnezl	zero,2d0 <__isr_vec_space+0x2b0>
     2d0:	0b000002 	j	c000008 <__memory_size+0xbfe0808>
     2d4:	800008b4 	lb	zero,2228(zero)
     2d8:	000000e5 	0xe5
     2dc:	0157010c 	syscall	0x55c04
     2e0:	56010c30 	bnel	s0,at,33a4 <__isr_vec_space+0x3384>
     2e4:	010c3001 	movf	a2,t0,$fcc3
     2e8:	01f30355 	0x1f30355
     2ec:	54010c54 	bnel	zero,at,3440 <__isr_vec_space+0x3420>
     2f0:	00003001 	movf	a2,zero,$fcc0
     2f4:	00021b0d 	break	0x2,0x6c
     2f8:	280d0200 	slti	t5,zero,512
     2fc:	0e000000 	jal	8000000 <__memory_size+0x7fe0800>
     300:	00000028 	0x28
     304:	0000700e 	0x700e
     308:	006e0e00 	0x6e0e00
     30c:	6e0e0000 	0x6e0e0000
     310:	00000000 	nop
     314:	0008dc00 	sll	k1,t0,0x10
     318:	83000400 	lb	zero,1024(t8)
     31c:	04000001 	bltz	zero,324 <__isr_vec_space+0x304>
     320:	00016501 	0x16501
     324:	035a0100 	0x35a0100
     328:	08c00000 	j	3000000 <__memory_size+0x2fe0800>
     32c:	003c8000 	0x3c8000
     330:	03090000 	0x3090000
     334:	04020000 	bltzl	zero,338 <__isr_vec_space+0x318>
     338:	00015307 	0x15307
     33c:	05040300 	0x5040300
     340:	00746e69 	0x746e69
     344:	ee050402 	swc3	$5,1026(s0)
     348:	02000000 	0x2000000
     34c:	020f0601 	0x20f0601
     350:	01020000 	0x1020000
     354:	00020d08 	0x20d08
     358:	05020200 	bltzl	t0,b5c <__isr_vec_space+0xb3c>
     35c:	00000244 	0x244
     360:	f7070202 	sdc1	$f7,514(t8)
     364:	02000000 	0x2000000
     368:	00e90508 	0xe90508
     36c:	08020000 	j	80000 <__memory_size+0x60800>
     370:	00014e07 	0x14e07
     374:	047c0400 	0x47c0400
     378:	07020000 	bltzl	t8,37c <__isr_vec_space+0x35c>
     37c:	00000028 	0x28
     380:	00045a04 	0x45a04
     384:	2f100300 	sltiu	s0,t8,768
     388:	04000000 	bltz	zero,38c <__isr_vec_space+0x36c>
     38c:	0000053d 	0x53d
     390:	002f2703 	0x2f2703
     394:	29050000 	slti	a1,t0,0
     398:	04000004 	bltz	zero,3ac <__isr_vec_space+0x38c>
     39c:	008d0161 	0x8d0161
     3a0:	04020000 	bltzl	zero,3a4 <__isr_vec_space+0x384>
     3a4:	00015807 	srav	t3,at,zero
     3a8:	03040600 	0x3040600
     3ac:	0000b34a 	0xb34a
     3b0:	04230700 	bgezl	at,1fb4 <__isr_vec_space+0x1f94>
     3b4:	4c030000 	lwxc1	$f0,v1(zero)
     3b8:	00000081 	0x81
     3bc:	0003d507 	0x3d507
     3c0:	b34d0300 	0xb34d0300
     3c4:	00000000 	nop
     3c8:	00003d08 	0x3d08
     3cc:	0000c300 	sll	t8,zero,0xc
     3d0:	00c30900 	0xc30900
     3d4:	00030000 	sll	zero,v1,0x0
     3d8:	5a070402 	0x5a070402
     3dc:	0a000002 	j	8000008 <__memory_size+0x7fe0808>
     3e0:	eb470308 	swc2	$7,776(k0)
     3e4:	0b000000 	j	c000000 <__memory_size+0xbfe0800>
     3e8:	00000527 	0x527
     3ec:	00284903 	0x284903
     3f0:	0b000000 	j	c000000 <__memory_size+0xbfe0800>
     3f4:	0000052f 	0x52f
     3f8:	00944e03 	0x944e03
     3fc:	00040000 	sll	zero,a0,0x0
     400:	0004ba04 	0x4ba04
     404:	ca4f0300 	lwc2	$15,768(s2)
     408:	04000000 	bltz	zero,40c <__isr_vec_space+0x3ec>
     40c:	00000398 	0x398
     410:	00605303 	0x605303
     414:	040c0000 	teqi	zero,0
     418:	00057904 	0x57904
     41c:	21160500 	addi	s6,t0,1280
     420:	0d000000 	jal	4000000 <__memory_size+0x3fe0800>
     424:	000003a9 	0x3a9
     428:	612d0518 	0x612d0518
     42c:	0b000001 	j	c000004 <__memory_size+0xbfe0804>
     430:	000004db 	0x4db
     434:	01612f05 	0x1612f05
     438:	0e000000 	jal	8000000 <__memory_size+0x7fe0800>
     43c:	05006b5f 	bltz	t0,1b1bc <__isr_vec_space+0x1b19c>
     440:	00002830 	tge	zero,zero,0xa0
     444:	120b0400 	beq	s0,t3,1448 <__isr_vec_space+0x1428>
     448:	05000005 	bltz	t0,460 <__isr_vec_space+0x440>
     44c:	00002830 	tge	zero,zero,0xa0
     450:	920b0800 	lbu	t3,2048(s0)
     454:	05000003 	bltz	t0,464 <__isr_vec_space+0x444>
     458:	00002830 	tge	zero,zero,0xa0
     45c:	c00b0c00 	ll	t3,3072(zero)
     460:	05000005 	bltz	t0,478 <__isr_vec_space+0x458>
     464:	00002830 	tge	zero,zero,0xa0
     468:	5f0e1000 	0x5f0e1000
     46c:	31050078 	andi	a1,t0,0x78
     470:	00000167 	0x167
     474:	040f0014 	0x40f0014
     478:	0000010e 	0x10e
     47c:	00010308 	0x10308
     480:	00017700 	sll	t6,at,0x1c
     484:	00c30900 	0xc30900
     488:	00000000 	nop
     48c:	0003d00d 	break	0x3,0x340
     490:	35052400 	ori	a1,t0,0x2400
     494:	000001f0 	tge	zero,zero,0x7
     498:	0002d00b 	movn	k0,zero,v0
     49c:	28370500 	slti	s7,at,1280
     4a0:	00000000 	nop
     4a4:	00054f0b 	0x54f0b
     4a8:	28380500 	slti	t8,at,1280
     4ac:	04000000 	bltz	zero,4b0 <__isr_vec_space+0x490>
     4b0:	0002df0b 	0x2df0b
     4b4:	28390500 	slti	t9,at,1280
     4b8:	08000000 	j	0 <hardware_exit_hook>
     4bc:	0006390b 	0x6390b
     4c0:	283a0500 	slti	k0,at,1280
     4c4:	0c000000 	jal	0 <hardware_exit_hook>
     4c8:	0004460b 	0x4460b
     4cc:	283b0500 	slti	k1,at,1280
     4d0:	10000000 	b	4d4 <__isr_vec_space+0x4b4>
     4d4:	0005450b 	0x5450b
     4d8:	283c0500 	slti	gp,at,1280
     4dc:	14000000 	bnez	zero,4e0 <__isr_vec_space+0x4c0>
     4e0:	0005c50b 	0x5c50b
     4e4:	283d0500 	slti	sp,at,1280
     4e8:	18000000 	blez	zero,4ec <__isr_vec_space+0x4cc>
     4ec:	00049c0b 	0x49c0b
     4f0:	283e0500 	slti	s8,at,1280
     4f4:	1c000000 	bgtz	zero,4f8 <__isr_vec_space+0x4d8>
     4f8:	0006000b 	movn	zero,zero,a2
     4fc:	283f0500 	slti	ra,at,1280
     500:	20000000 	addi	zero,zero,0
     504:	02ee1000 	0x2ee1000
     508:	01080000 	0x1080000
     50c:	02304805 	lsa	t1,s1,s0,0x1
     510:	6f0b0000 	0x6f0b0000
     514:	05000002 	bltz	t0,520 <__isr_vec_space+0x500>
     518:	00023049 	0x23049
     51c:	630b0000 	0x630b0000
     520:	05000002 	bltz	t0,52c <__isr_vec_space+0x50c>
     524:	0002304a 	0x2304a
     528:	6b118000 	0x6b118000
     52c:	05000005 	bltz	t0,544 <__isr_vec_space+0x524>
     530:	0001034c 	syscall	0x40d
     534:	11010000 	beq	t0,at,538 <__isr_vec_space+0x518>
     538:	00000313 	0x313
     53c:	01034f05 	0x1034f05
     540:	01040000 	0x1040000
     544:	01010800 	0x1010800
     548:	02400000 	0x2400000
     54c:	c3090000 	ll	t1,0(t8)
     550:	1f000000 	bgtz	t8,554 <__isr_vec_space+0x534>
     554:	02521000 	0x2521000
     558:	01900000 	0x1900000
     55c:	027e5b05 	0x27e5b05
     560:	db0b0000 	ldc2	$11,0(t8)
     564:	05000004 	bltz	t0,578 <__isr_vec_space+0x558>
     568:	00027e5c 	0x27e5c
     56c:	f30b0000 	0xf30b0000
     570:	05000004 	bltz	t0,584 <__isr_vec_space+0x564>
     574:	0000285d 	0x285d
     578:	8d0b0400 	lw	t3,1024(t0)
     57c:	05000003 	bltz	t0,58c <__isr_vec_space+0x56c>
     580:	0002845f 	0x2845f
     584:	ee0b0800 	swc3	$11,2048(s0)
     588:	05000002 	bltz	t0,594 <__isr_vec_space+0x574>
     58c:	0001f060 	0x1f060
     590:	0f008800 	jal	c022000 <__memory_size+0xc002800>
     594:	00024004 	sllv	t0,v0,zero
     598:	02940800 	0x2940800
     59c:	02940000 	0x2940000
     5a0:	c3090000 	ll	t1,0(t8)
     5a4:	1f000000 	bgtz	t8,5a8 <__isr_vec_space+0x588>
     5a8:	9a040f00 	lwr	a0,3840(s0)
     5ac:	12000002 	beqz	s0,5b8 <__isr_vec_space+0x598>
     5b0:	0004a60d 	break	0x4,0x298
     5b4:	73050800 	madd	$ac1,t8,a1
     5b8:	000002c0 	sll	zero,zero,0xb
     5bc:	0008cc0b 	0x8cc0b
     5c0:	c0740500 	ll	s4,1280(v1)
     5c4:	00000002 	srl	zero,zero,0x0
     5c8:	00089a0b 	0x89a0b
     5cc:	28750500 	slti	s5,v1,1280
     5d0:	04000000 	bltz	zero,5d4 <__isr_vec_space+0x5b4>
     5d4:	3d040f00 	0x3d040f00
     5d8:	0d000000 	jal	4000000 <__memory_size+0x3fe0800>
     5dc:	000004c5 	0x4c5
     5e0:	f0b30568 	0xf0b30568
     5e4:	0e000003 	jal	800000c <__memory_size+0x7fe080c>
     5e8:	0500705f 	bltz	t0,1c768 <__isr_vec_space+0x1c748>
     5ec:	0002c0b4 	teq	zero,v0,0x302
     5f0:	5f0e0000 	0x5f0e0000
     5f4:	b5050072 	0xb5050072
     5f8:	00000028 	0x28
     5fc:	775f0e04 	jalx	d7c3810 <__memory_size+0xd7a4010>
     600:	28b60500 	slti	s6,a1,1280
     604:	08000000 	j	0 <hardware_exit_hook>
     608:	00030c0b 	0x30c0b
     60c:	44b70500 	0x44b70500
     610:	0c000000 	jal	0 <hardware_exit_hook>
     614:	0003ec0b 	0x3ec0b
     618:	44b80500 	0x44b80500
     61c:	0e000000 	jal	8000000 <__memory_size+0x7fe0800>
     620:	66625f0e 	0x66625f0e
     624:	9bb90500 	lwr	t9,1280(sp)
     628:	10000002 	b	634 <__isr_vec_space+0x614>
     62c:	0002aa0b 	0x2aa0b
     630:	28ba0500 	slti	k0,a1,1280
     634:	18000000 	blez	zero,638 <__isr_vec_space+0x618>
     638:	0002fc0b 	0x2fc0b
     63c:	01c10500 	0x1c10500
     640:	1c000001 	bgtz	zero,648 <__isr_vec_space+0x628>
     644:	0003c00b 	movn	t8,zero,v1
     648:	53c30500 	beql	s8,v1,1a4c <__isr_vec_space+0x1a2c>
     64c:	20000005 	addi	zero,zero,5
     650:	0004380b 	movn	a3,zero,a0
     654:	82c50500 	lb	a1,1280(s6)
     658:	24000005 	li	zero,5
     65c:	0005370b 	0x5370b
     660:	a6c80500 	sh	t0,1280(s6)
     664:	28000005 	slti	zero,zero,5
     668:	00061a0b 	0x61a0b
     66c:	c0c90500 	ll	t1,1280(a2)
     670:	2c000005 	sltiu	zero,zero,5
     674:	62755f0e 	0x62755f0e
     678:	9bcc0500 	lwr	t4,1280(s8)
     67c:	30000002 	andi	zero,zero,0x2
     680:	70755f0e 	q16add	xr12,xr7,xr5,xr13,AA,LW
     684:	c0cd0500 	ll	t5,1280(a2)
     688:	38000002 	xori	zero,zero,0x2
     68c:	72755f0e 	q16add	xr12,xr7,xr5,xr13,SA,LW
     690:	28ce0500 	slti	t6,a2,1280
     694:	3c000000 	lui	zero,0x0
     698:	0002d90b 	0x2d90b
     69c:	c6d10500 	lwc1	$f17,1280(s6)
     6a0:	40000005 	mfc0	zero,$0,5
     6a4:	0005f20b 	0x5f20b
     6a8:	d6d20500 	ldc1	$f18,1280(s6)
     6ac:	43000005 	c0	0x1000005
     6b0:	626c5f0e 	0x626c5f0e
     6b4:	9bd50500 	lwr	s5,1280(s8)
     6b8:	44000002 	mfc1	zero,$f0
     6bc:	0003220b 	0x3220b
     6c0:	28d80500 	slti	t8,a2,1280
     6c4:	4c000000 	lwxc1	$f0,zero(zero)
     6c8:	0003330b 	0x3330b
     6cc:	6bd90500 	0x6bd90500
     6d0:	50000000 	beqzl	zero,6d4 <__isr_vec_space+0x6b4>
     6d4:	0006490b 	0x6490b
     6d8:	0edc0500 	jal	b701400 <__memory_size+0xb6e1c00>
     6dc:	54000004 	bnezl	zero,6f0 <__isr_vec_space+0x6d0>
     6e0:	0007180b 	movn	v1,zero,a3
     6e4:	f6e00500 	sdc1	$f0,1280(s7)
     6e8:	58000000 	blezl	zero,6ec <__isr_vec_space+0x6cc>
     6ec:	0004cd0b 	0x4cd0b
     6f0:	ebe20500 	swc2	$2,1280(ra)
     6f4:	5c000000 	bgtzl	zero,6f8 <__isr_vec_space+0x6d8>
     6f8:	0004300b 	movn	a2,zero,a0
     6fc:	28e30500 	slti	v1,a3,1280
     700:	64000000 	0x64000000
     704:	00281300 	0x281300
     708:	040e0000 	tnei	zero,0
     70c:	0e140000 	jal	8500000 <__memory_size+0x84e0800>
     710:	14000004 	bnez	zero,724 <__isr_vec_space+0x704>
     714:	00000101 	0x101
     718:	00054614 	0x54614
     71c:	00281400 	0x281400
     720:	0f000000 	jal	c000000 <__memory_size+0xbfe0800>
     724:	00041404 	0x41404
     728:	051a1500 	0x51a1500
     72c:	04280000 	tgei	at,0
     730:	46023905 	c1	0x23905
     734:	16000005 	bnez	s0,74c <__isr_vec_space+0x72c>
     738:	00000a8c 	syscall	0x2a
     73c:	28023b05 	slti	v0,zero,15109
     740:	00000000 	nop
     744:	00031b16 	0x31b16
     748:	02400500 	0x2400500
     74c:	0000062d 	0x62d
     750:	03dc1604 	0x3dc1604
     754:	40050000 	mfc0	a1,c0_index
     758:	00062d02 	srl	a1,a2,0x14
     75c:	a1160800 	sb	s6,2048(t0)
     760:	05000003 	bltz	t0,770 <__isr_vec_space+0x750>
     764:	062d0240 	0x62d0240
     768:	160c0000 	bne	s0,t4,76c <__isr_vec_space+0x74c>
     76c:	000004ee 	0x4ee
     770:	28024205 	slti	v0,zero,16901
     774:	10000000 	b	778 <__isr_vec_space+0x758>
     778:	00027f16 	0x27f16
     77c:	02430500 	0x2430500
     780:	0000080f 	0x80f
     784:	05a11614 	bgez	t5,5fd8 <__isr_vec_space+0x5fb8>
     788:	45050000 	bc1t	$fcc1,78c <__isr_vec_space+0x76c>
     78c:	00002802 	srl	a1,zero,0x0
     790:	f8163000 	sdc2	$22,12288(zero)
     794:	05000004 	bltz	t0,7a8 <__isr_vec_space+0x788>
     798:	05770246 	0x5770246
     79c:	16340000 	bne	s1,s4,7a0 <__isr_vec_space+0x780>
     7a0:	0000044f 	sync_acquire
     7a4:	28024805 	slti	v0,zero,18437
     7a8:	38000000 	xori	zero,zero,0x0
     7ac:	00050816 	0x50816
     7b0:	024a0500 	0x24a0500
     7b4:	0000082a 	slt	at,zero,zero
     7b8:	041b163c 	0x41b163c
     7bc:	4d050000 	lwxc1	$f0,a1(t0)
     7c0:	00016102 	srl	t4,at,0x4
     7c4:	c6164000 	lwc1	$f22,16384(s0)
     7c8:	05000003 	bltz	t0,7d8 <__isr_vec_space+0x7b8>
     7cc:	0028024e 	0x28024e
     7d0:	16440000 	bne	s2,a0,7d4 <__isr_vec_space+0x7b4>
     7d4:	00000634 	teq	zero,zero,0x18
     7d8:	61024f05 	0x61024f05
     7dc:	48000001 	mfc2	zero,$0,1
     7e0:	00047216 	0x47216
     7e4:	02500500 	0x2500500
     7e8:	00000830 	tge	zero,zero,0x20
     7ec:	03e4164c 	syscall	0xf9059
     7f0:	53050000 	beql	t8,a1,7f4 <__isr_vec_space+0x7d4>
     7f4:	00002802 	srl	a1,zero,0x0
     7f8:	2b165000 	slti	s6,t8,20480
     7fc:	05000003 	bltz	t0,80c <__isr_vec_space+0x7ec>
     800:	05460254 	0x5460254
     804:	16540000 	bne	s2,s4,808 <__isr_vec_space+0x7e8>
     808:	0000048e 	0x48e
     80c:	ed027705 	swc3	$2,30469(t0)
     810:	58000007 	blezl	zero,830 <__isr_vec_space+0x810>
     814:	00025217 	0x25217
     818:	027b0500 	0x27b0500
     81c:	0000027e 	0x27e
     820:	f9170148 	sdc2	$23,328(t0)
     824:	05000003 	bltz	t0,834 <__isr_vec_space+0x814>
     828:	0240027c 	0x240027c
     82c:	014c0000 	0x14c0000
     830:	0005e817 	0x5e817
     834:	02800500 	0x2800500
     838:	00000841 	0x841
     83c:	041702dc 	0x41702dc
     840:	05000003 	bltz	t0,850 <__isr_vec_space+0x830>
     844:	05f20285 	bltzall	t7,125c <__isr_vec_space+0x123c>
     848:	02e00000 	0x2e00000
     84c:	0002e917 	0x2e917
     850:	02860500 	0x2860500
     854:	0000084d 	break	0x0,0x21
     858:	0f0002ec 	jal	c000bb0 <__memory_size+0xbfe13b0>
     85c:	00054c04 	0x54c04
     860:	08010200 	j	40800 <__memory_size+0x21000>
     864:	00000216 	0x216
     868:	03f0040f 	0x3f0040f
     86c:	28130000 	slti	s3,zero,0
     870:	77000000 	jalx	c000000 <__memory_size+0xbfe0800>
     874:	14000005 	bnez	zero,88c <__isr_vec_space+0x86c>
     878:	0000040e 	0x40e
     87c:	00010114 	0x10114
     880:	05771400 	0x5771400
     884:	28140000 	slti	s4,zero,0
     888:	00000000 	nop
     88c:	057d040f 	0x57d040f
     890:	4c180000 	lwxc1	$f0,t8(zero)
     894:	0f000005 	jal	c000014 <__memory_size+0xbfe0814>
     898:	00055904 	0x55904
     89c:	00761300 	0x761300
     8a0:	05a60000 	0x5a60000
     8a4:	0e140000 	jal	8500000 <__memory_size+0x84e0800>
     8a8:	14000004 	bnez	zero,8bc <__isr_vec_space+0x89c>
     8ac:	00000101 	0x101
     8b0:	00007614 	0x7614
     8b4:	00281400 	0x281400
     8b8:	0f000000 	jal	c000000 <__memory_size+0xbfe0800>
     8bc:	00058804 	sllv	s1,a1,zero
     8c0:	00281300 	0x281300
     8c4:	05c00000 	bltz	t6,8c8 <__isr_vec_space+0x8a8>
     8c8:	0e140000 	jal	8500000 <__memory_size+0x84e0800>
     8cc:	14000004 	bnez	zero,8e0 <__isr_vec_space+0x8c0>
     8d0:	00000101 	0x101
     8d4:	ac040f00 	sw	a0,3840(zero)
     8d8:	08000005 	j	14 <ABIFlags_flags2>
     8dc:	0000003d 	0x3d
     8e0:	000005d6 	0x5d6
     8e4:	0000c309 	0xc309
     8e8:	08000200 	j	800 <__isr_vec_space+0x7e0>
     8ec:	0000003d 	0x3d
     8f0:	000005e6 	0x5e6
     8f4:	0000c309 	0xc309
     8f8:	05000000 	bltz	t0,8fc <__isr_vec_space+0x8dc>
     8fc:	000004b3 	tltu	zero,zero,0x12
     900:	c6011d05 	lwc1	$f1,7429(s0)
     904:	19000002 	blez	t0,910 <__isr_vec_space+0x8f0>
     908:	000005cf 	sync	0x17
     90c:	0121050c 	syscall	0x48414
     910:	00000627 	0x627
     914:	0004db16 	0x4db16
     918:	01230500 	0x1230500
     91c:	00000627 	0x627
     920:	03f21600 	0x3f21600
     924:	24050000 	li	a1,0
     928:	00002801 	movf	a1,zero,$fcc0
     92c:	ad160400 	sw	s6,1024(t0)
     930:	05000004 	bltz	t0,944 <__isr_vec_space+0x924>
     934:	062d0125 	0x62d0125
     938:	00080000 	sll	zero,t0,0x0
     93c:	05f2040f 	bltzall	t7,197c <__isr_vec_space+0x195c>
     940:	040f0000 	0x40f0000
     944:	000005e6 	0x5e6
     948:	00027719 	0x27719
     94c:	3d050e00 	0x3d050e00
     950:	00066801 	0x66801
     954:	05211600 	bgez	t1,6158 <__isr_vec_space+0x6138>
     958:	3e050000 	0x3e050000
     95c:	00066801 	0x66801
     960:	58160000 	0x58160000
     964:	05000005 	bltz	t0,97c <__isr_vec_space+0x95c>
     968:	0668013f 	tgei	s3,319
     96c:	16060000 	bne	s0,a2,970 <__isr_vec_space+0x950>
     970:	00000574 	teq	zero,zero,0x15
     974:	4b014005 	c2	0x1014005
     978:	0c000000 	jal	0 <hardware_exit_hook>
     97c:	004b0800 	0x4b0800
     980:	06780000 	0x6780000
     984:	c3090000 	ll	t1,0(t8)
     988:	02000000 	0x2000000
     98c:	05d01a00 	bltzal	t6,7190 <__isr_vec_space+0x7170>
     990:	07790258 	0x7790258
     994:	b3160000 	0xb3160000
     998:	05000005 	bltz	t0,9b0 <__isr_vec_space+0x990>
     99c:	008d025a 	0x8d025a
     9a0:	16000000 	bnez	s0,9a4 <__isr_vec_space+0x984>
     9a4:	0000055e 	0x55e
     9a8:	46025b05 	c1	0x25b05
     9ac:	04000005 	bltz	zero,9c4 <__isr_vec_space+0x9a4>
     9b0:	00040e16 	0x40e16
     9b4:	025c0500 	0x25c0500
     9b8:	00000779 	0x779
     9bc:	060b1608 	tltiu	s0,5640
     9c0:	5d050000 	0x5d050000
     9c4:	00017702 	srl	t6,at,0x1c
     9c8:	b1162400 	0xb1162400
     9cc:	05000003 	bltz	t0,9dc <__isr_vec_space+0x9bc>
     9d0:	0028025e 	0x28025e
     9d4:	16480000 	bne	s2,t0,9d8 <__isr_vec_space+0x9b8>
     9d8:	000004d6 	0x4d6
     9dc:	59025f05 	0x59025f05
     9e0:	50000000 	beqzl	zero,9e4 <__isr_vec_space+0x9c4>
     9e4:	00062116 	0x62116
     9e8:	02600500 	0x2600500
     9ec:	00000633 	tltu	zero,zero,0x18
     9f0:	04e11658 	bgez	a3,6354 <__isr_vec_space+0x6334>
     9f4:	61050000 	0x61050000
     9f8:	0000eb02 	srl	sp,zero,0xc
     9fc:	26166800 	addiu	s6,s0,26624
     a00:	05000006 	bltz	t0,a1c <__isr_vec_space+0x9fc>
     a04:	00eb0262 	0xeb0262
     a08:	16700000 	bne	s3,s0,a0c <__isr_vec_space+0x9ec>
     a0c:	000002c2 	srl	zero,zero,0xb
     a10:	eb026305 	swc2	$2,25349(t8)
     a14:	78000000 	andi.b	$w0,$w0,0x0
     a18:	0005de16 	0x5de16
     a1c:	02640500 	0x2640500
     a20:	00000789 	0x789
     a24:	04021680 	bltzl	zero,6428 <__isr_vec_space+0x6408>
     a28:	65050000 	0x65050000
     a2c:	00079902 	srl	s3,a3,0x4
     a30:	81168800 	lb	s6,-30720(t0)
     a34:	05000005 	bltz	t0,a4c <__isr_vec_space+0xa2c>
     a38:	00280266 	0x280266
     a3c:	16a00000 	bnez	s5,a40 <__isr_vec_space+0xa20>
     a40:	0000034c 	syscall	0xd
     a44:	eb026705 	swc2	$2,26373(t8)
     a48:	a4000000 	sh	zero,0(zero)
     a4c:	0002b316 	0x2b316
     a50:	02680500 	0x2680500
     a54:	000000eb 	0xeb
     a58:	033b16ac 	0x33b16ac
     a5c:	69050000 	0x69050000
     a60:	0000eb02 	srl	sp,zero,0xc
     a64:	8a16b400 	lwl	s6,-19456(s0)
     a68:	05000002 	bltz	t0,a74 <__isr_vec_space+0xa54>
     a6c:	00eb026a 	0xeb026a
     a70:	16bc0000 	bne	s5,gp,a74 <__isr_vec_space+0xa54>
     a74:	00000299 	0x299
     a78:	eb026b05 	swc2	$2,27397(t8)
     a7c:	c4000000 	lwc1	$f0,0(zero)
     a80:	00049316 	0x49316
     a84:	026c0500 	0x26c0500
     a88:	00000028 	0x28
     a8c:	4c0800cc 	0x4c0800cc
     a90:	89000005 	lwl	zero,5(t0)
     a94:	09000007 	j	400001c <__memory_size+0x3fe081c>
     a98:	000000c3 	sra	zero,zero,0x3
     a9c:	4c080019 	0x4c080019
     aa0:	99000005 	lwr	zero,5(t0)
     aa4:	09000007 	j	400001c <__memory_size+0x3fe081c>
     aa8:	000000c3 	sra	zero,zero,0x3
     aac:	4c080007 	mfc3	t0,$0,7
     ab0:	a9000005 	swl	zero,5(t0)
     ab4:	09000007 	j	400001c <__memory_size+0x3fe081c>
     ab8:	000000c3 	sra	zero,zero,0x3
     abc:	f01a0017 	0xf01a0017
     ac0:	cd027105 	pref	0x2,28933(t0)
     ac4:	16000007 	bnez	s0,ae4 <__isr_vec_space+0xac4>
     ac8:	0000043f 	0x43f
     acc:	cd027405 	pref	0x2,29701(t0)
     ad0:	00000007 	srav	zero,zero,zero
     ad4:	0005d516 	0x5d516
     ad8:	02750500 	0x2750500
     adc:	000007dd 	0x7dd
     ae0:	c0080078 	ll	t0,120(zero)
     ae4:	dd000002 	ldc3	$0,2(t0)
     ae8:	09000007 	j	400001c <__memory_size+0x3fe081c>
     aec:	000000c3 	sra	zero,zero,0x3
     af0:	8d08001d 	lw	t0,29(t0)
     af4:	ed000000 	swc3	$0,0(t0)
     af8:	09000007 	j	400001c <__memory_size+0x3fe081c>
     afc:	000000c3 	sra	zero,zero,0x3
     b00:	f01b001d 	0xf01b001d
     b04:	0f025605 	jal	c095814 <__memory_size+0xc076014>
     b08:	1c000008 	bgtz	zero,b2c <__isr_vec_space+0xb0c>
     b0c:	0000051a 	0x51a
     b10:	78026d05 	0x78026d05
     b14:	1c000006 	bgtz	zero,b30 <__isr_vec_space+0xb10>
     b18:	000005f8 	0x5f8
     b1c:	a9027605 	swl	v0,30213(t0)
     b20:	00000007 	srav	zero,zero,zero
     b24:	00054c08 	0x54c08
     b28:	00081f00 	sll	v1,t0,0x1c
     b2c:	00c30900 	0xc30900
     b30:	00180000 	sll	zero,t8,0x0
     b34:	00082a1d 	0x82a1d
     b38:	040e1400 	tnei	zero,5120
     b3c:	0f000000 	jal	c000000 <__memory_size+0xbfe0800>
     b40:	00081f04 	0x81f04
     b44:	61040f00 	0x61040f00
     b48:	1d000001 	bgtz	t0,b50 <__isr_vec_space+0xb30>
     b4c:	00000841 	0x841
     b50:	00002814 	0x2814
     b54:	040f0000 	0x40f0000
     b58:	00000847 	0x847
     b5c:	0836040f 	j	d8103c <__memory_size+0xd6183c>
     b60:	e6080000 	swc1	$f8,0(s0)
     b64:	5d000005 	bgtzl	t0,b7c <__isr_vec_space+0xb5c>
     b68:	09000008 	j	4000020 <__memory_size+0x3fe0820>
     b6c:	000000c3 	sra	zero,zero,0x3
     b70:	ee1e0002 	swc3	$30,2(s0)
     b74:	06000007 	bltz	s0,b94 <__isr_vec_space+0xb74>
     b78:	0008c054 	0x8c054
     b7c:	00003c80 	sll	a3,zero,0x12
     b80:	ab9c0100 	swl	gp,256(gp)
     b84:	1f000008 	bgtz	t8,ba8 <__isr_vec_space+0xb88>
     b88:	000007e7 	0x7e7
     b8c:	00283a01 	0x283a01
     b90:	02800000 	0x2800000
     b94:	d8200000 	ldc2	$0,0(at)
     b98:	bc800008 	cache	0x0,8(a0)
     b9c:	9a000008 	lwr	zero,8(s0)
     ba0:	21000008 	addi	zero,t0,8
     ba4:	30015501 	andi	at,zero,0x5501
     ba8:	02540121 	0x2540121
     bac:	22000080 	addi	zero,s0,128
     bb0:	800008fc 	lb	zero,2300(zero)
     bb4:	000008d2 	0x8d2
     bb8:	02540121 	0x2540121
     bbc:	00000080 	sll	zero,zero,0x2
     bc0:	00058e23 	0x58e23
     bc4:	02fb0500 	0x2fb0500
     bc8:	000008b7 	0x8b7
     bcc:	00040e18 	0x40e18
     bd0:	04612400 	bgez	v1,9bd4 <__isr_vec_space+0x9bb4>
     bd4:	0c070000 	jal	1c0000 <__memory_size+0x1a0800>
     bd8:	000008d2 	0x8d2
     bdc:	00002814 	0x2814
     be0:	01011400 	0x1011400
     be4:	25000000 	addiu	zero,t0,0
     be8:	000007ed 	0x7ed
     bec:	28141108 	slti	s4,zero,4360
     bf0:	00000000 	nop
     bf4:	00088c00 	sll	s1,t0,0x10
     bf8:	67000400 	0x67000400
     bfc:	04000003 	bltz	zero,c0c <__isr_vec_space+0xbec>
     c00:	00016501 	0x16501
     c04:	064f0100 	0x64f0100
     c08:	047a0000 	0x47a0000
     c0c:	04020000 	bltzl	zero,c10 <__isr_vec_space+0xbf0>
     c10:	0000ee05 	0xee05
     c14:	07040200 	0x7040200
     c18:	00000153 	0x153
     c1c:	69050403 	0x69050403
     c20:	0200746e 	0x200746e
     c24:	020f0601 	0x20f0601
     c28:	01020000 	0x1020000
     c2c:	00020d08 	0x20d08
     c30:	05020200 	bltzl	t0,1434 <__isr_vec_space+0x1414>
     c34:	00000244 	0x244
     c38:	f7070202 	sdc1	$f7,514(t8)
     c3c:	02000000 	0x2000000
     c40:	00e90508 	0xe90508
     c44:	08020000 	j	80000 <__memory_size+0x60800>
     c48:	00014e07 	0x14e07
     c4c:	047c0400 	0x47c0400
     c50:	07010000 	bgez	t8,c54 <__isr_vec_space+0xc34>
     c54:	00000027 	nor	zero,zero,zero
     c58:	00045a04 	0x45a04
     c5c:	19100200 	0x19100200
     c60:	04000000 	bltz	zero,c64 <__isr_vec_space+0xc44>
     c64:	0000053d 	0x53d
     c68:	00192702 	srl	a0,t9,0x1c
     c6c:	29050000 	slti	a1,t0,0
     c70:	03000004 	sllv	zero,zero,t8
     c74:	00850161 	0x850161
     c78:	04020000 	bltzl	zero,c7c <__isr_vec_space+0xc5c>
     c7c:	00015807 	srav	t3,at,zero
     c80:	02040600 	0x2040600
     c84:	0000ab4a 	0xab4a
     c88:	04230700 	bgezl	at,288c <__isr_vec_space+0x286c>
     c8c:	4c020000 	lwxc1	$f0,v0(zero)
     c90:	00000079 	0x79
     c94:	0003d507 	0x3d507
     c98:	ab4d0200 	swl	t5,512(k0)
     c9c:	00000000 	nop
     ca0:	00003508 	0x3508
     ca4:	0000bb00 	sll	s7,zero,0xc
     ca8:	00bb0900 	0xbb0900
     cac:	00030000 	sll	zero,v1,0x0
     cb0:	5a070402 	0x5a070402
     cb4:	0a000002 	j	8000008 <__memory_size+0x7fe0808>
     cb8:	e3470208 	sc	a3,520(k0)
     cbc:	0b000000 	j	c000000 <__memory_size+0xbfe0800>
     cc0:	00000527 	0x527
     cc4:	00274902 	ror	t1,a3,0x4
     cc8:	0b000000 	j	c000000 <__memory_size+0xbfe0800>
     ccc:	0000052f 	0x52f
     cd0:	008c4e02 	0x8c4e02
     cd4:	00040000 	sll	zero,a0,0x0
     cd8:	0004ba04 	0x4ba04
     cdc:	c24f0200 	ll	t7,512(s2)
     ce0:	04000000 	bltz	zero,ce4 <__isr_vec_space+0xcc4>
     ce4:	00000398 	0x398
     ce8:	00585302 	0x585302
     cec:	040c0000 	teqi	zero,0
     cf0:	00057904 	0x57904
     cf4:	20160400 	addi	s6,zero,1024
     cf8:	0d000000 	jal	4000000 <__memory_size+0x3fe0800>
     cfc:	000003a9 	0x3a9
     d00:	592d0418 	0x592d0418
     d04:	0b000001 	j	c000004 <__memory_size+0xbfe0804>
     d08:	000004db 	0x4db
     d0c:	01592f04 	0x1592f04
     d10:	0e000000 	jal	8000000 <__memory_size+0x7fe0800>
     d14:	04006b5f 	bltz	zero,1ba94 <__isr_vec_space+0x1ba74>
     d18:	00002730 	tge	zero,zero,0x9c
     d1c:	120b0400 	beq	s0,t3,1d20 <__isr_vec_space+0x1d00>
     d20:	04000005 	bltz	zero,d38 <__isr_vec_space+0xd18>
     d24:	00002730 	tge	zero,zero,0x9c
     d28:	920b0800 	lbu	t3,2048(s0)
     d2c:	04000003 	bltz	zero,d3c <__isr_vec_space+0xd1c>
     d30:	00002730 	tge	zero,zero,0x9c
     d34:	c00b0c00 	ll	t3,3072(zero)
     d38:	04000005 	bltz	zero,d50 <__isr_vec_space+0xd30>
     d3c:	00002730 	tge	zero,zero,0x9c
     d40:	5f0e1000 	0x5f0e1000
     d44:	31040078 	andi	a0,t0,0x78
     d48:	0000015f 	0x15f
     d4c:	040f0014 	0x40f0014
     d50:	00000106 	0x106
     d54:	0000fb08 	0xfb08
     d58:	00016f00 	sll	t5,at,0x1c
     d5c:	00bb0900 	0xbb0900
     d60:	00000000 	nop
     d64:	0003d00d 	break	0x3,0x340
     d68:	35042400 	ori	a0,t0,0x2400
     d6c:	000001e8 	0x1e8
     d70:	0002d00b 	movn	k0,zero,v0
     d74:	27370400 	addiu	s7,t9,1024
     d78:	00000000 	nop
     d7c:	00054f0b 	0x54f0b
     d80:	27380400 	addiu	t8,t9,1024
     d84:	04000000 	bltz	zero,d88 <__isr_vec_space+0xd68>
     d88:	0002df0b 	0x2df0b
     d8c:	27390400 	addiu	t9,t9,1024
     d90:	08000000 	j	0 <hardware_exit_hook>
     d94:	0006390b 	0x6390b
     d98:	273a0400 	addiu	k0,t9,1024
     d9c:	0c000000 	jal	0 <hardware_exit_hook>
     da0:	0004460b 	0x4460b
     da4:	273b0400 	addiu	k1,t9,1024
     da8:	10000000 	b	dac <__isr_vec_space+0xd8c>
     dac:	0005450b 	0x5450b
     db0:	273c0400 	addiu	gp,t9,1024
     db4:	14000000 	bnez	zero,db8 <__isr_vec_space+0xd98>
     db8:	0005c50b 	0x5c50b
     dbc:	273d0400 	addiu	sp,t9,1024
     dc0:	18000000 	blez	zero,dc4 <__isr_vec_space+0xda4>
     dc4:	00049c0b 	0x49c0b
     dc8:	273e0400 	addiu	s8,t9,1024
     dcc:	1c000000 	bgtz	zero,dd0 <__isr_vec_space+0xdb0>
     dd0:	0006000b 	movn	zero,zero,a2
     dd4:	273f0400 	addiu	ra,t9,1024
     dd8:	20000000 	addi	zero,zero,0
     ddc:	02ee1000 	0x2ee1000
     de0:	01080000 	0x1080000
     de4:	02284804 	sllv	t1,t0,s1
     de8:	6f0b0000 	0x6f0b0000
     dec:	04000002 	bltz	zero,df8 <__isr_vec_space+0xdd8>
     df0:	00022849 	0x22849
     df4:	630b0000 	0x630b0000
     df8:	04000002 	bltz	zero,e04 <__isr_vec_space+0xde4>
     dfc:	0002284a 	0x2284a
     e00:	6b118000 	0x6b118000
     e04:	04000005 	bltz	zero,e1c <__isr_vec_space+0xdfc>
     e08:	0000fb4c 	syscall	0x3ed
     e0c:	11010000 	beq	t0,at,e10 <__isr_vec_space+0xdf0>
     e10:	00000313 	0x313
     e14:	00fb4f04 	0xfb4f04
     e18:	01040000 	0x1040000
     e1c:	00f90800 	0xf90800
     e20:	02380000 	0x2380000
     e24:	bb090000 	swr	t1,0(t8)
     e28:	1f000000 	bgtz	t8,e2c <__isr_vec_space+0xe0c>
     e2c:	02521000 	0x2521000
     e30:	01900000 	0x1900000
     e34:	02765b04 	0x2765b04
     e38:	db0b0000 	ldc2	$11,0(t8)
     e3c:	04000004 	bltz	zero,e50 <__isr_vec_space+0xe30>
     e40:	0002765c 	0x2765c
     e44:	f30b0000 	0xf30b0000
     e48:	04000004 	bltz	zero,e5c <__isr_vec_space+0xe3c>
     e4c:	0000275d 	0x275d
     e50:	8d0b0400 	lw	t3,1024(t0)
     e54:	04000003 	bltz	zero,e64 <__isr_vec_space+0xe44>
     e58:	00027c5f 	0x27c5f
     e5c:	ee0b0800 	swc3	$11,2048(s0)
     e60:	04000002 	bltz	zero,e6c <__isr_vec_space+0xe4c>
     e64:	0001e860 	0x1e860
     e68:	0f008800 	jal	c022000 <__memory_size+0xc002800>
     e6c:	00023804 	sllv	a3,v0,zero
     e70:	028c0800 	0x28c0800
     e74:	028c0000 	0x28c0000
     e78:	bb090000 	swr	t1,0(t8)
     e7c:	1f000000 	bgtz	t8,e80 <__isr_vec_space+0xe60>
     e80:	92040f00 	lbu	a0,3840(s0)
     e84:	12000002 	beqz	s0,e90 <__isr_vec_space+0xe70>
     e88:	0004a60d 	break	0x4,0x298
     e8c:	73040800 	madd	$ac1,t8,a0
     e90:	000002b8 	0x2b8
     e94:	0008cc0b 	0x8cc0b
     e98:	b8740400 	swr	s4,1024(v1)
     e9c:	00000002 	srl	zero,zero,0x0
     ea0:	00089a0b 	0x89a0b
     ea4:	27750400 	addiu	s5,k1,1024
     ea8:	04000000 	bltz	zero,eac <__isr_vec_space+0xe8c>
     eac:	35040f00 	ori	a0,t0,0xf00
     eb0:	0d000000 	jal	4000000 <__memory_size+0x3fe0800>
     eb4:	000004c5 	0x4c5
     eb8:	e8b30468 	swc2	$19,1128(a1)
     ebc:	0e000003 	jal	800000c <__memory_size+0x7fe080c>
     ec0:	0400705f 	bltz	zero,1d040 <__isr_vec_space+0x1d020>
     ec4:	0002b8b4 	teq	zero,v0,0x2e2
     ec8:	5f0e0000 	0x5f0e0000
     ecc:	b5040072 	0xb5040072
     ed0:	00000027 	nor	zero,zero,zero
     ed4:	775f0e04 	jalx	d7c3810 <__memory_size+0xd7a4010>
     ed8:	27b60400 	addiu	s6,sp,1024
     edc:	08000000 	j	0 <hardware_exit_hook>
     ee0:	00030c0b 	0x30c0b
     ee4:	3cb70400 	0x3cb70400
     ee8:	0c000000 	jal	0 <hardware_exit_hook>
     eec:	0003ec0b 	0x3ec0b
     ef0:	3cb80400 	0x3cb80400
     ef4:	0e000000 	jal	8000000 <__memory_size+0x7fe0800>
     ef8:	66625f0e 	0x66625f0e
     efc:	93b90400 	lbu	t9,1024(sp)
     f00:	10000002 	b	f0c <__isr_vec_space+0xeec>
     f04:	0002aa0b 	0x2aa0b
     f08:	27ba0400 	addiu	k0,sp,1024
     f0c:	18000000 	blez	zero,f10 <__isr_vec_space+0xef0>
     f10:	0002fc0b 	0x2fc0b
     f14:	f9c10400 	sdc2	$1,1024(t6)
     f18:	1c000000 	bgtz	zero,f1c <__isr_vec_space+0xefc>
     f1c:	0003c00b 	movn	t8,zero,v1
     f20:	4bc30400 	c2	0x1c30400
     f24:	20000005 	addi	zero,zero,5
     f28:	0004380b 	movn	a3,zero,a0
     f2c:	7ac50400 	nori.b	$w16,$w0,0xc5
     f30:	24000005 	li	zero,5
     f34:	0005370b 	0x5370b
     f38:	9ec80400 	0x9ec80400
     f3c:	28000005 	slti	zero,zero,5
     f40:	00061a0b 	0x61a0b
     f44:	b8c90400 	swr	t1,1024(a2)
     f48:	2c000005 	sltiu	zero,zero,5
     f4c:	62755f0e 	0x62755f0e
     f50:	93cc0400 	lbu	t4,1024(s8)
     f54:	30000002 	andi	zero,zero,0x2
     f58:	70755f0e 	q16add	xr12,xr7,xr5,xr13,AA,LW
     f5c:	b8cd0400 	swr	t5,1024(a2)
     f60:	38000002 	xori	zero,zero,0x2
     f64:	72755f0e 	q16add	xr12,xr7,xr5,xr13,SA,LW
     f68:	27ce0400 	addiu	t6,s8,1024
     f6c:	3c000000 	lui	zero,0x0
     f70:	0002d90b 	0x2d90b
     f74:	bed10400 	cache	0x11,1024(s6)
     f78:	40000005 	mfc0	zero,$0,5
     f7c:	0005f20b 	0x5f20b
     f80:	ced20400 	pref	0x12,1024(s6)
     f84:	43000005 	c0	0x1000005
     f88:	626c5f0e 	0x626c5f0e
     f8c:	93d50400 	lbu	s5,1024(s8)
     f90:	44000002 	mfc1	zero,$f0
     f94:	0003220b 	0x3220b
     f98:	27d80400 	addiu	t8,s8,1024
     f9c:	4c000000 	lwxc1	$f0,zero(zero)
     fa0:	0003330b 	0x3330b
     fa4:	63d90400 	0x63d90400
     fa8:	50000000 	beqzl	zero,fac <__isr_vec_space+0xf8c>
     fac:	0006490b 	0x6490b
     fb0:	06dc0400 	0x6dc0400
     fb4:	54000004 	bnezl	zero,fc8 <__isr_vec_space+0xfa8>
     fb8:	0007180b 	movn	v1,zero,a3
     fbc:	eee00400 	swc3	$0,1024(s7)
     fc0:	58000000 	blezl	zero,fc4 <__isr_vec_space+0xfa4>
     fc4:	0004cd0b 	0x4cd0b
     fc8:	e3e20400 	sc	v0,1024(ra)
     fcc:	5c000000 	bgtzl	zero,fd0 <__isr_vec_space+0xfb0>
     fd0:	0004300b 	movn	a2,zero,a0
     fd4:	27e30400 	addiu	v1,ra,1024
     fd8:	64000000 	0x64000000
     fdc:	00271300 	0x271300
     fe0:	04060000 	0x4060000
     fe4:	06140000 	0x6140000
     fe8:	14000004 	bnez	zero,ffc <__isr_vec_space+0xfdc>
     fec:	000000f9 	0xf9
     ff0:	00053e14 	0x53e14
     ff4:	00271400 	0x271400
     ff8:	0f000000 	jal	c000000 <__memory_size+0xbfe0800>
     ffc:	00040c04 	0x40c04
    1000:	051a1500 	0x51a1500
    1004:	04280000 	tgei	at,0
    1008:	3e023904 	0x3e023904
    100c:	16000005 	bnez	s0,1024 <__isr_vec_space+0x1004>
    1010:	00000a8c 	syscall	0x2a
    1014:	27023b04 	addiu	v0,t8,15108
    1018:	00000000 	nop
    101c:	00031b16 	0x31b16
    1020:	02400400 	0x2400400
    1024:	00000625 	0x625
    1028:	03dc1604 	0x3dc1604
    102c:	40040000 	mfc0	a0,c0_index
    1030:	00062502 	srl	a0,a2,0x14
    1034:	a1160800 	sb	s6,2048(t0)
    1038:	04000003 	bltz	zero,1048 <__isr_vec_space+0x1028>
    103c:	06250240 	0x6250240
    1040:	160c0000 	bne	s0,t4,1044 <__isr_vec_space+0x1024>
    1044:	000004ee 	0x4ee
    1048:	27024204 	addiu	v0,t8,16900
    104c:	10000000 	b	1050 <__isr_vec_space+0x1030>
    1050:	00027f16 	0x27f16
    1054:	02430400 	0x2430400
    1058:	00000807 	srav	at,zero,zero
    105c:	05a11614 	bgez	t5,68b0 <__isr_vec_space+0x6890>
    1060:	45040000 	bc1f	$fcc1,1064 <__isr_vec_space+0x1044>
    1064:	00002702 	srl	a0,zero,0x1c
    1068:	f8163000 	sdc2	$22,12288(zero)
    106c:	04000004 	bltz	zero,1080 <__isr_vec_space+0x1060>
    1070:	056f0246 	0x56f0246
    1074:	16340000 	bne	s1,s4,1078 <__isr_vec_space+0x1058>
    1078:	0000044f 	sync_acquire
    107c:	27024804 	addiu	v0,t8,18436
    1080:	38000000 	xori	zero,zero,0x0
    1084:	00050816 	0x50816
    1088:	024a0400 	0x24a0400
    108c:	00000822 	neg	at,zero
    1090:	041b163c 	0x41b163c
    1094:	4d040000 	lwxc1	$f0,a0(t0)
    1098:	00015902 	srl	t3,at,0x4
    109c:	c6164000 	lwc1	$f22,16384(s0)
    10a0:	04000003 	bltz	zero,10b0 <__isr_vec_space+0x1090>
    10a4:	0027024e 	0x27024e
    10a8:	16440000 	bne	s2,a0,10ac <__isr_vec_space+0x108c>
    10ac:	00000634 	teq	zero,zero,0x18
    10b0:	59024f04 	0x59024f04
    10b4:	48000001 	mfc2	zero,$0,1
    10b8:	00047216 	0x47216
    10bc:	02500400 	0x2500400
    10c0:	00000828 	0x828
    10c4:	03e4164c 	syscall	0xf9059
    10c8:	53040000 	beql	t8,a0,10cc <__isr_vec_space+0x10ac>
    10cc:	00002702 	srl	a0,zero,0x1c
    10d0:	2b165000 	slti	s6,t8,20480
    10d4:	04000003 	bltz	zero,10e4 <__isr_vec_space+0x10c4>
    10d8:	053e0254 	0x53e0254
    10dc:	16540000 	bne	s2,s4,10e0 <__isr_vec_space+0x10c0>
    10e0:	0000048e 	0x48e
    10e4:	e5027704 	swc1	$f2,30468(t0)
    10e8:	58000007 	blezl	zero,1108 <__isr_vec_space+0x10e8>
    10ec:	00025217 	0x25217
    10f0:	027b0400 	0x27b0400
    10f4:	00000276 	tne	zero,zero,0x9
    10f8:	f9170148 	sdc2	$23,328(t0)
    10fc:	04000003 	bltz	zero,110c <__isr_vec_space+0x10ec>
    1100:	0238027c 	0x238027c
    1104:	014c0000 	0x14c0000
    1108:	0005e817 	0x5e817
    110c:	02800400 	0x2800400
    1110:	00000839 	0x839
    1114:	041702dc 	0x41702dc
    1118:	04000003 	bltz	zero,1128 <__isr_vec_space+0x1108>
    111c:	05ea0285 	tlti	t7,645
    1120:	02e00000 	0x2e00000
    1124:	0002e917 	0x2e917
    1128:	02860400 	0x2860400
    112c:	00000845 	lsa	at,zero,zero,0x2
    1130:	0f0002ec 	jal	c000bb0 <__memory_size+0xbfe13b0>
    1134:	00054404 	0x54404
    1138:	08010200 	j	40800 <__memory_size+0x21000>
    113c:	00000216 	0x216
    1140:	03e8040f 	0x3e8040f
    1144:	27130000 	addiu	s3,t8,0
    1148:	6f000000 	0x6f000000
    114c:	14000005 	bnez	zero,1164 <__isr_vec_space+0x1144>
    1150:	00000406 	0x406
    1154:	0000f914 	0xf914
    1158:	056f1400 	0x56f1400
    115c:	27140000 	addiu	s4,t8,0
    1160:	00000000 	nop
    1164:	0575040f 	0x575040f
    1168:	44180000 	mfc1	t8,$f0
    116c:	0f000005 	jal	c000014 <__memory_size+0xbfe0814>
    1170:	00055104 	0x55104
    1174:	006e1300 	0x6e1300
    1178:	059e0000 	0x59e0000
    117c:	06140000 	0x6140000
    1180:	14000004 	bnez	zero,1194 <__isr_vec_space+0x1174>
    1184:	000000f9 	0xf9
    1188:	00006e14 	0x6e14
    118c:	00271400 	0x271400
    1190:	0f000000 	jal	c000000 <__memory_size+0xbfe0800>
    1194:	00058004 	sllv	s0,a1,zero
    1198:	00271300 	0x271300
    119c:	05b80000 	0x5b80000
    11a0:	06140000 	0x6140000
    11a4:	14000004 	bnez	zero,11b8 <__isr_vec_space+0x1198>
    11a8:	000000f9 	0xf9
    11ac:	a4040f00 	sh	a0,3840(zero)
    11b0:	08000005 	j	14 <ABIFlags_flags2>
    11b4:	00000035 	0x35
    11b8:	000005ce 	0x5ce
    11bc:	0000bb09 	0xbb09
    11c0:	08000200 	j	800 <__isr_vec_space+0x7e0>
    11c4:	00000035 	0x35
    11c8:	000005de 	0x5de
    11cc:	0000bb09 	0xbb09
    11d0:	05000000 	bltz	t0,11d4 <__isr_vec_space+0x11b4>
    11d4:	000004b3 	tltu	zero,zero,0x12
    11d8:	be011d04 	cache	0x1,7428(s0)
    11dc:	19000002 	blez	t0,11e8 <__isr_vec_space+0x11c8>
    11e0:	000005cf 	sync	0x17
    11e4:	0121040c 	syscall	0x48410
    11e8:	0000061f 	0x61f
    11ec:	0004db16 	0x4db16
    11f0:	01230400 	0x1230400
    11f4:	0000061f 	0x61f
    11f8:	03f21600 	0x3f21600
    11fc:	24040000 	li	a0,0
    1200:	00002701 	0x2701
    1204:	ad160400 	sw	s6,1024(t0)
    1208:	04000004 	bltz	zero,121c <__isr_vec_space+0x11fc>
    120c:	06250125 	0x6250125
    1210:	00080000 	sll	zero,t0,0x0
    1214:	05ea040f 	tlti	t7,1039
    1218:	040f0000 	0x40f0000
    121c:	000005de 	0x5de
    1220:	00027719 	0x27719
    1224:	3d040e00 	0x3d040e00
    1228:	00066001 	0x66001
    122c:	05211600 	bgez	t1,6a30 <__isr_vec_space+0x6a10>
    1230:	3e040000 	0x3e040000
    1234:	00066001 	0x66001
    1238:	58160000 	0x58160000
    123c:	04000005 	bltz	zero,1254 <__isr_vec_space+0x1234>
    1240:	0660013f 	bltz	s3,1740 <__isr_vec_space+0x1720>
    1244:	16060000 	bne	s0,a2,1248 <__isr_vec_space+0x1228>
    1248:	00000574 	teq	zero,zero,0x15
    124c:	43014004 	c0	0x1014004
    1250:	0c000000 	jal	0 <hardware_exit_hook>
    1254:	00430800 	0x430800
    1258:	06700000 	bltzal	s3,125c <__isr_vec_space+0x123c>
    125c:	bb090000 	swr	t1,0(t8)
    1260:	02000000 	0x2000000
    1264:	04d01a00 	bltzal	a2,7a68 <__isr_vec_space+0x7a48>
    1268:	07710258 	bgezal	k1,1bcc <__isr_vec_space+0x1bac>
    126c:	b3160000 	0xb3160000
    1270:	04000005 	bltz	zero,1288 <__isr_vec_space+0x1268>
    1274:	0085025a 	0x85025a
    1278:	16000000 	bnez	s0,127c <__isr_vec_space+0x125c>
    127c:	0000055e 	0x55e
    1280:	3e025b04 	0x3e025b04
    1284:	04000005 	bltz	zero,129c <__isr_vec_space+0x127c>
    1288:	00040e16 	0x40e16
    128c:	025c0400 	0x25c0400
    1290:	00000771 	tgeu	zero,zero,0x1d
    1294:	060b1608 	tltiu	s0,5640
    1298:	5d040000 	0x5d040000
    129c:	00016f02 	srl	t5,at,0x1c
    12a0:	b1162400 	0xb1162400
    12a4:	04000003 	bltz	zero,12b4 <__isr_vec_space+0x1294>
    12a8:	0027025e 	0x27025e
    12ac:	16480000 	bne	s2,t0,12b0 <__isr_vec_space+0x1290>
    12b0:	000004d6 	0x4d6
    12b4:	51025f04 	beql	t0,v0,18ec8 <__isr_vec_space+0x18ea8>
    12b8:	50000000 	beqzl	zero,12bc <__isr_vec_space+0x129c>
    12bc:	00062116 	0x62116
    12c0:	02600400 	0x2600400
    12c4:	0000062b 	0x62b
    12c8:	04e11658 	bgez	a3,6c2c <__isr_vec_space+0x6c0c>
    12cc:	61040000 	0x61040000
    12d0:	0000e302 	srl	gp,zero,0xc
    12d4:	26166800 	addiu	s6,s0,26624
    12d8:	04000006 	bltz	zero,12f4 <__isr_vec_space+0x12d4>
    12dc:	00e30262 	0xe30262
    12e0:	16700000 	bne	s3,s0,12e4 <__isr_vec_space+0x12c4>
    12e4:	000002c2 	srl	zero,zero,0xb
    12e8:	e3026304 	sc	v0,25348(t8)
    12ec:	78000000 	andi.b	$w0,$w0,0x0
    12f0:	0005de16 	0x5de16
    12f4:	02640400 	0x2640400
    12f8:	00000781 	0x781
    12fc:	04021680 	bltzl	zero,6d00 <__isr_vec_space+0x6ce0>
    1300:	65040000 	0x65040000
    1304:	00079102 	srl	s2,a3,0x4
    1308:	81168800 	lb	s6,-30720(t0)
    130c:	04000005 	bltz	zero,1324 <__isr_vec_space+0x1304>
    1310:	00270266 	0x270266
    1314:	16a00000 	bnez	s5,1318 <__isr_vec_space+0x12f8>
    1318:	0000034c 	syscall	0xd
    131c:	e3026704 	sc	v0,26372(t8)
    1320:	a4000000 	sh	zero,0(zero)
    1324:	0002b316 	0x2b316
    1328:	02680400 	0x2680400
    132c:	000000e3 	0xe3
    1330:	033b16ac 	0x33b16ac
    1334:	69040000 	0x69040000
    1338:	0000e302 	srl	gp,zero,0xc
    133c:	8a16b400 	lwl	s6,-19456(s0)
    1340:	04000002 	bltz	zero,134c <__isr_vec_space+0x132c>
    1344:	00e3026a 	0xe3026a
    1348:	16bc0000 	bne	s5,gp,134c <__isr_vec_space+0x132c>
    134c:	00000299 	0x299
    1350:	e3026b04 	sc	v0,27396(t8)
    1354:	c4000000 	lwc1	$f0,0(zero)
    1358:	00049316 	0x49316
    135c:	026c0400 	0x26c0400
    1360:	00000027 	nor	zero,zero,zero
    1364:	440800cc 	0x440800cc
    1368:	81000005 	lb	zero,5(t0)
    136c:	09000007 	j	400001c <__memory_size+0x3fe081c>
    1370:	000000bb 	0xbb
    1374:	44080019 	0x44080019
    1378:	91000005 	lbu	zero,5(t0)
    137c:	09000007 	j	400001c <__memory_size+0x3fe081c>
    1380:	000000bb 	0xbb
    1384:	44080007 	0x44080007
    1388:	a1000005 	sb	zero,5(t0)
    138c:	09000007 	j	400001c <__memory_size+0x3fe081c>
    1390:	000000bb 	0xbb
    1394:	f01a0017 	0xf01a0017
    1398:	c5027104 	lwc1	$f2,28932(t0)
    139c:	16000007 	bnez	s0,13bc <__isr_vec_space+0x139c>
    13a0:	0000043f 	0x43f
    13a4:	c5027404 	lwc1	$f2,29700(t0)
    13a8:	00000007 	srav	zero,zero,zero
    13ac:	0005d516 	0x5d516
    13b0:	02750400 	0x2750400
    13b4:	000007d5 	0x7d5
    13b8:	b8080078 	swr	t0,120(zero)
    13bc:	d5000002 	ldc1	$f0,2(t0)
    13c0:	09000007 	j	400001c <__memory_size+0x3fe081c>
    13c4:	000000bb 	0xbb
    13c8:	8508001d 	lh	t0,29(t0)
    13cc:	e5000000 	swc1	$f0,0(t0)
    13d0:	09000007 	j	400001c <__memory_size+0x3fe081c>
    13d4:	000000bb 	0xbb
    13d8:	f01b001d 	0xf01b001d
    13dc:	07025604 	bltzl	t8,16bf0 <__isr_vec_space+0x16bd0>
    13e0:	1c000008 	bgtz	zero,1404 <__isr_vec_space+0x13e4>
    13e4:	0000051a 	0x51a
    13e8:	70026d04 	0x70026d04
    13ec:	1c000006 	bgtz	zero,1408 <__isr_vec_space+0x13e8>
    13f0:	000005f8 	0x5f8
    13f4:	a1027604 	sb	v0,30212(t0)
    13f8:	00000007 	srav	zero,zero,zero
    13fc:	00054408 	0x54408
    1400:	00081700 	sll	v0,t0,0x1c
    1404:	00bb0900 	0xbb0900
    1408:	00180000 	sll	zero,t8,0x0
    140c:	0008221d 	0x8221d
    1410:	04061400 	0x4061400
    1414:	0f000000 	jal	c000000 <__memory_size+0xbfe0800>
    1418:	00081704 	0x81704
    141c:	59040f00 	0x59040f00
    1420:	1d000001 	bgtz	t0,1428 <__isr_vec_space+0x1408>
    1424:	00000839 	0x839
    1428:	00002714 	0x2714
    142c:	040f0000 	0x40f0000
    1430:	0000083f 	0x83f
    1434:	082e040f 	j	b8103c <__memory_size+0xb6183c>
    1438:	de080000 	ldc3	$8,0(s0)
    143c:	55000005 	bnezl	t0,1454 <__isr_vec_space+0x1434>
    1440:	09000008 	j	4000020 <__memory_size+0x3fe0820>
    1444:	000000bb 	0xbb
    1448:	431e0002 	c0	0x11e0002
    144c:	05000006 	bltz	t0,1468 <__isr_vec_space+0x1448>
    1450:	00040c17 	0x40c17
    1454:	a0030500 	sb	v1,1280(zero)
    1458:	1f80001f 	bgtz	gp,14d8 <__isr_vec_space+0x14b8>
    145c:	00000595 	0x595
    1460:	0602fa04 	bltzl	s0,fffffc74 <__entry+0x403ffc74>
    1464:	05000004 	bltz	t0,1478 <__isr_vec_space+0x1458>
    1468:	00243003 	0x243003
    146c:	058e1f80 	tnei	t4,8064
    1470:	fb040000 	sdc2	$4,0(t8)
    1474:	00088a02 	srl	s1,t0,0x8
    1478:	2c030500 	sltiu	v1,zero,1280
    147c:	18800024 	blez	a0,1510 <__isr_vec_space+0x14f0>
    1480:	00000406 	0x406
    1484:	00092c00 	sll	a1,t1,0x10
    1488:	e5000400 	swc1	$f0,1024(t0)
    148c:	04000004 	bltz	zero,14a0 <__isr_vec_space+0x1480>
    1490:	00016501 	0x16501
    1494:	068a0100 	tlti	s4,256
    1498:	08fc0000 	j	3f00000 <__memory_size+0x3ee0800>
    149c:	01088000 	0x1088000
    14a0:	05830000 	bgezl	t4,14a4 <__isr_vec_space+0x1484>
    14a4:	04020000 	bltzl	zero,14a8 <__isr_vec_space+0x1488>
    14a8:	0000ee05 	0xee05
    14ac:	06830300 	bgezl	s4,20b0 <__isr_vec_space+0x2090>
    14b0:	d4020000 	ldc1	$f2,0(zero)
    14b4:	00000033 	tltu	zero,zero
    14b8:	53070402 	beql	t8,a3,24c4 <__isr_vec_space+0x24a4>
    14bc:	04000001 	bltz	zero,14c4 <__isr_vec_space+0x14a4>
    14c0:	6e690504 	0x6e690504
    14c4:	01020074 	teq	t0,v0,0x1
    14c8:	00020f06 	0x20f06
    14cc:	08010200 	j	40800 <__memory_size+0x21000>
    14d0:	0000020d 	break	0x0,0x8
    14d4:	44050202 	0x44050202
    14d8:	02000002 	0x2000002
    14dc:	00f70702 	0xf70702
    14e0:	08020000 	j	80000 <__memory_size+0x60800>
    14e4:	0000e905 	0xe905
    14e8:	07080200 	tgei	t8,512
    14ec:	0000014e 	0x14e
    14f0:	00047c03 	sra	t7,a0,0x10
    14f4:	3a070300 	xori	a3,s0,0x300
    14f8:	03000000 	0x3000000
    14fc:	0000045a 	0x45a
    1500:	00211004 	sllv	v0,at,at
    1504:	3d030000 	0x3d030000
    1508:	04000005 	bltz	zero,1520 <__isr_vec_space+0x1500>
    150c:	00002127 	0x2127
    1510:	04290500 	tgeiu	at,1280
    1514:	61020000 	0x61020000
    1518:	00009801 	movf	s3,zero,$fcc0
    151c:	07040200 	0x7040200
    1520:	00000158 	0x158
    1524:	4a040406 	c2	0x40406
    1528:	000000be 	0xbe
    152c:	00042307 	0x42307
    1530:	8c4c0400 	lw	t4,1024(v0)
    1534:	07000000 	bltz	t8,1538 <__isr_vec_space+0x1518>
    1538:	000003d5 	0x3d5
    153c:	00be4d04 	0xbe4d04
    1540:	08000000 	j	0 <hardware_exit_hook>
    1544:	00000048 	0x48
    1548:	000000ce 	0xce
    154c:	0000ce09 	0xce09
    1550:	02000300 	0x2000300
    1554:	025a0704 	0x25a0704
    1558:	080a0000 	j	280000 <__memory_size+0x260800>
    155c:	00f64704 	0xf64704
    1560:	270b0000 	addiu	t3,t8,0
    1564:	04000005 	bltz	zero,157c <__isr_vec_space+0x155c>
    1568:	00003a49 	0x3a49
    156c:	2f0b0000 	sltiu	t3,t8,0
    1570:	04000005 	bltz	zero,1588 <__isr_vec_space+0x1568>
    1574:	00009f4e 	0x9f4e
    1578:	03000400 	0x3000400
    157c:	000004ba 	0x4ba
    1580:	00d54f04 	0xd54f04
    1584:	98030000 	lwr	v1,0(zero)
    1588:	04000003 	bltz	zero,1598 <__isr_vec_space+0x1578>
    158c:	00006b53 	0x6b53
    1590:	03040c00 	0x3040c00
    1594:	00000579 	0x579
    1598:	00331605 	0x331605
    159c:	a90d0000 	swl	t5,0(t0)
    15a0:	18000003 	blez	zero,15b0 <__isr_vec_space+0x1590>
    15a4:	016c2d05 	0x16c2d05
    15a8:	db0b0000 	ldc2	$11,0(t8)
    15ac:	05000004 	bltz	t0,15c0 <__isr_vec_space+0x15a0>
    15b0:	00016c2f 	0x16c2f
    15b4:	5f0e0000 	0x5f0e0000
    15b8:	3005006b 	andi	a1,zero,0x6b
    15bc:	0000003a 	0x3a
    15c0:	05120b04 	bltzall	t0,41d4 <__isr_vec_space+0x41b4>
    15c4:	30050000 	andi	a1,zero,0x0
    15c8:	0000003a 	0x3a
    15cc:	03920b08 	0x3920b08
    15d0:	30050000 	andi	a1,zero,0x0
    15d4:	0000003a 	0x3a
    15d8:	05c00b0c 	bltz	t6,420c <__isr_vec_space+0x41ec>
    15dc:	30050000 	andi	a1,zero,0x0
    15e0:	0000003a 	0x3a
    15e4:	785f0e10 	add_a.w	$w24,$w1,$w31
    15e8:	72310500 	0x72310500
    15ec:	14000001 	bnez	zero,15f4 <__isr_vec_space+0x15d4>
    15f0:	19040f00 	0x19040f00
    15f4:	08000001 	j	4 <ABIFlags_gpr_size>
    15f8:	0000010e 	0x10e
    15fc:	00000182 	srl	zero,zero,0x6
    1600:	0000ce09 	0xce09
    1604:	0d000000 	jal	4000000 <__memory_size+0x3fe0800>
    1608:	000003d0 	0x3d0
    160c:	fb350524 	sdc2	$21,1316(t9)
    1610:	0b000001 	j	c000004 <__memory_size+0xbfe0804>
    1614:	000002d0 	0x2d0
    1618:	003a3705 	0x3a3705
    161c:	0b000000 	j	c000000 <__memory_size+0xbfe0800>
    1620:	0000054f 	sync	0x15
    1624:	003a3805 	lsa	a3,at,k0,0x1
    1628:	0b040000 	j	c100000 <__memory_size+0xc0e0800>
    162c:	000002df 	0x2df
    1630:	003a3905 	0x3a3905
    1634:	0b080000 	j	c200000 <__memory_size+0xc1e0800>
    1638:	00000639 	0x639
    163c:	003a3a05 	0x3a3a05
    1640:	0b0c0000 	j	c300000 <__memory_size+0xc2e0800>
    1644:	00000446 	0x446
    1648:	003a3b05 	0x3a3b05
    164c:	0b100000 	j	c400000 <__memory_size+0xc3e0800>
    1650:	00000545 	0x545
    1654:	003a3c05 	0x3a3c05
    1658:	0b140000 	j	c500000 <__memory_size+0xc4e0800>
    165c:	000005c5 	0x5c5
    1660:	003a3d05 	0x3a3d05
    1664:	0b180000 	j	c600000 <__memory_size+0xc5e0800>
    1668:	0000049c 	0x49c
    166c:	003a3e05 	0x3a3e05
    1670:	0b1c0000 	j	c700000 <__memory_size+0xc6e0800>
    1674:	00000600 	sll	zero,zero,0x18
    1678:	003a3f05 	0x3a3f05
    167c:	00200000 	0x200000
    1680:	0002ee10 	0x2ee10
    1684:	05010800 	bgez	t0,3688 <__isr_vec_space+0x3668>
    1688:	00023b48 	0x23b48
    168c:	026f0b00 	0x26f0b00
    1690:	49050000 	bc2t	$cc1,1694 <__isr_vec_space+0x1674>
    1694:	0000023b 	0x23b
    1698:	02630b00 	0x2630b00
    169c:	4a050000 	c2	0x50000
    16a0:	0000023b 	0x23b
    16a4:	056b1180 	tltiu	t3,4480
    16a8:	4c050000 	lwxc1	$f0,a1(zero)
    16ac:	0000010e 	0x10e
    16b0:	13110100 	beq	t8,s1,1ab4 <__isr_vec_space+0x1a94>
    16b4:	05000003 	bltz	t0,16c4 <__isr_vec_space+0x16a4>
    16b8:	00010e4f 	0x10e4f
    16bc:	00010400 	sll	zero,at,0x10
    16c0:	00010c08 	0x10c08
    16c4:	00024b00 	sll	t1,v0,0xc
    16c8:	00ce0900 	0xce0900
    16cc:	001f0000 	sll	zero,ra,0x0
    16d0:	00025210 	0x25210
    16d4:	05019000 	bgez	t0,fffe56d8 <__entry+0x403e56d8>
    16d8:	0002895b 	0x2895b
    16dc:	04db0b00 	0x4db0b00
    16e0:	5c050000 	0x5c050000
    16e4:	00000289 	0x289
    16e8:	04f30b00 	bgezall	a3,42ec <__isr_vec_space+0x42cc>
    16ec:	5d050000 	0x5d050000
    16f0:	0000003a 	0x3a
    16f4:	038d0b04 	0x38d0b04
    16f8:	5f050000 	0x5f050000
    16fc:	0000028f 	sync	0xa
    1700:	02ee0b08 	0x2ee0b08
    1704:	60050000 	0x60050000
    1708:	000001fb 	0x1fb
    170c:	040f0088 	0x40f0088
    1710:	0000024b 	0x24b
    1714:	00029f08 	0x29f08
    1718:	00029f00 	sll	s3,v0,0x1c
    171c:	00ce0900 	0xce0900
    1720:	001f0000 	sll	zero,ra,0x0
    1724:	02a5040f 	0x2a5040f
    1728:	0d120000 	jal	4480000 <__memory_size+0x4460800>
    172c:	000004a6 	0x4a6
    1730:	cb730508 	lwc2	$19,1288(k1)
    1734:	0b000002 	j	c000008 <__memory_size+0xbfe0808>
    1738:	000008cc 	syscall	0x23
    173c:	02cb7405 	0x2cb7405
    1740:	0b000000 	j	c000000 <__memory_size+0xbfe0800>
    1744:	0000089a 	0x89a
    1748:	003a7505 	0x3a7505
    174c:	00040000 	sll	zero,a0,0x0
    1750:	0048040f 	0x48040f
    1754:	c50d0000 	lwc1	$f13,0(t0)
    1758:	68000004 	0x68000004
    175c:	03fbb305 	0x3fbb305
    1760:	5f0e0000 	0x5f0e0000
    1764:	b4050070 	0xb4050070
    1768:	000002cb 	0x2cb
    176c:	725f0e00 	0x725f0e00
    1770:	3ab50500 	xori	s5,s5,0x500
    1774:	04000000 	bltz	zero,1778 <__isr_vec_space+0x1758>
    1778:	00775f0e 	0x775f0e
    177c:	003ab605 	0x3ab605
    1780:	0b080000 	j	c200000 <__memory_size+0xc1e0800>
    1784:	0000030c 	syscall	0xc
    1788:	004fb705 	0x4fb705
    178c:	0b0c0000 	j	c300000 <__memory_size+0xc2e0800>
    1790:	000003ec 	0x3ec
    1794:	004fb805 	lsa	s7,v0,t7,0x1
    1798:	0e0e0000 	jal	8380000 <__memory_size+0x8360800>
    179c:	0066625f 	0x66625f
    17a0:	02a6b905 	0x2a6b905
    17a4:	0b100000 	j	c400000 <__memory_size+0xc3e0800>
    17a8:	000002aa 	0x2aa
    17ac:	003aba05 	0x3aba05
    17b0:	0b180000 	j	c600000 <__memory_size+0xc5e0800>
    17b4:	000002fc 	0x2fc
    17b8:	010cc105 	0x10cc105
    17bc:	0b1c0000 	j	c700000 <__memory_size+0xc6e0800>
    17c0:	000003c0 	sll	zero,zero,0xf
    17c4:	055ec305 	0x55ec305
    17c8:	0b200000 	j	c800000 <__memory_size+0xc7e0800>
    17cc:	00000438 	0x438
    17d0:	058dc505 	0x58dc505
    17d4:	0b240000 	j	c900000 <__memory_size+0xc8e0800>
    17d8:	00000537 	0x537
    17dc:	05b1c805 	bgezal	t5,ffff37f4 <__entry+0x403f37f4>
    17e0:	0b280000 	j	ca00000 <__memory_size+0xc9e0800>
    17e4:	0000061a 	0x61a
    17e8:	05cbc905 	tltiu	t6,-14075
    17ec:	0e2c0000 	jal	8b00000 <__memory_size+0x8ae0800>
    17f0:	0062755f 	0x62755f
    17f4:	02a6cc05 	0x2a6cc05
    17f8:	0e300000 	jal	8c00000 <__memory_size+0x8be0800>
    17fc:	0070755f 	0x70755f
    1800:	02cbcd05 	0x2cbcd05
    1804:	0e380000 	jal	8e00000 <__memory_size+0x8de0800>
    1808:	0072755f 	0x72755f
    180c:	003ace05 	0x3ace05
    1810:	0b3c0000 	j	cf00000 <__memory_size+0xcee0800>
    1814:	000002d9 	0x2d9
    1818:	05d1d105 	bgezal	t6,ffff5c30 <__entry+0x403f5c30>
    181c:	0b400000 	j	d000000 <__memory_size+0xcfe0800>
    1820:	000005f2 	tlt	zero,zero,0x17
    1824:	05e1d205 	bgez	t7,ffff603c <__entry+0x403f603c>
    1828:	0e430000 	jal	90c0000 <__memory_size+0x90a0800>
    182c:	00626c5f 	0x626c5f
    1830:	02a6d505 	0x2a6d505
    1834:	0b440000 	j	d100000 <__memory_size+0xd0e0800>
    1838:	00000322 	0x322
    183c:	003ad805 	lsa	k1,at,k0,0x1
    1840:	0b4c0000 	j	d300000 <__memory_size+0xd2e0800>
    1844:	00000333 	tltu	zero,zero,0xc
    1848:	0076d905 	0x76d905
    184c:	0b500000 	j	d400000 <__memory_size+0xd3e0800>
    1850:	00000649 	0x649
    1854:	0419dc05 	0x419dc05
    1858:	0b540000 	j	d500000 <__memory_size+0xd4e0800>
    185c:	00000718 	0x718
    1860:	0101e005 	lsa	gp,t0,at,0x1
    1864:	0b580000 	j	d600000 <__memory_size+0xd5e0800>
    1868:	000004cd 	break	0x0,0x13
    186c:	00f6e205 	0xf6e205
    1870:	0b5c0000 	j	d700000 <__memory_size+0xd6e0800>
    1874:	00000430 	tge	zero,zero,0x10
    1878:	003ae305 	0x3ae305
    187c:	00640000 	0x640000
    1880:	00003a13 	0x3a13
    1884:	00041900 	sll	v1,a0,0x4
    1888:	04191400 	0x4191400
    188c:	0c140000 	jal	500000 <__memory_size+0x4e0800>
    1890:	14000001 	bnez	zero,1898 <__isr_vec_space+0x1878>
    1894:	00000551 	0x551
    1898:	00003a14 	0x3a14
    189c:	040f0000 	0x40f0000
    18a0:	0000041f 	0x41f
    18a4:	00051a15 	0x51a15
    18a8:	05042800 	0x5042800
    18ac:	05510239 	bgezal	t2,2194 <__isr_vec_space+0x2174>
    18b0:	8c160000 	lw	s6,0(zero)
    18b4:	0500000a 	bltz	t0,18e0 <__isr_vec_space+0x18c0>
    18b8:	003a023b 	0x3a023b
    18bc:	16000000 	bnez	s0,18c0 <__isr_vec_space+0x18a0>
    18c0:	0000031b 	0x31b
    18c4:	38024005 	xori	v0,zero,0x4005
    18c8:	04000006 	bltz	zero,18e4 <__isr_vec_space+0x18c4>
    18cc:	0003dc16 	0x3dc16
    18d0:	02400500 	0x2400500
    18d4:	00000638 	0x638
    18d8:	03a11608 	0x3a11608
    18dc:	40050000 	mfc0	a1,c0_index
    18e0:	00063802 	srl	a3,a2,0x0
    18e4:	ee160c00 	swc3	$22,3072(s0)
    18e8:	05000004 	bltz	t0,18fc <__isr_vec_space+0x18dc>
    18ec:	003a0242 	ror	zero,k0,0x9
    18f0:	16100000 	bne	s0,s0,18f4 <__isr_vec_space+0x18d4>
    18f4:	0000027f 	0x27f
    18f8:	1a024305 	0x1a024305
    18fc:	14000008 	bnez	zero,1920 <__isr_vec_space+0x1900>
    1900:	0005a116 	0x5a116
    1904:	02450500 	0x2450500
    1908:	0000003a 	0x3a
    190c:	04f81630 	0x4f81630
    1910:	46050000 	add.s	$f0,$f0,$f5
    1914:	00058202 	srl	s0,a1,0x8
    1918:	4f163400 	c3	0x1163400
    191c:	05000004 	bltz	t0,1930 <__isr_vec_space+0x1910>
    1920:	003a0248 	0x3a0248
    1924:	16380000 	bne	s1,t8,1928 <__isr_vec_space+0x1908>
    1928:	00000508 	0x508
    192c:	35024a05 	ori	v0,t0,0x4a05
    1930:	3c000008 	lui	zero,0x8
    1934:	00041b16 	0x41b16
    1938:	024d0500 	0x24d0500
    193c:	0000016c 	0x16c
    1940:	03c61640 	0x3c61640
    1944:	4e050000 	lwxc1	$f0,a1(s0)
    1948:	00003a02 	srl	a3,zero,0x8
    194c:	34164400 	li	s6,0x4400
    1950:	05000006 	bltz	t0,196c <__isr_vec_space+0x194c>
    1954:	016c024f 	0x16c024f
    1958:	16480000 	bne	s2,t0,195c <__isr_vec_space+0x193c>
    195c:	00000472 	tlt	zero,zero,0x11
    1960:	3b025005 	xori	v0,t8,0x5005
    1964:	4c000008 	swxc1	$f0,zero(zero)
    1968:	0003e416 	0x3e416
    196c:	02530500 	0x2530500
    1970:	0000003a 	0x3a
    1974:	032b1650 	0x32b1650
    1978:	54050000 	bnel	zero,a1,197c <__isr_vec_space+0x195c>
    197c:	00055102 	srl	t2,a1,0x4
    1980:	8e165400 	lw	s6,21504(s0)
    1984:	05000004 	bltz	t0,1998 <__isr_vec_space+0x1978>
    1988:	07f80277 	0x7f80277
    198c:	17580000 	bne	k0,t8,1990 <__isr_vec_space+0x1970>
    1990:	00000252 	0x252
    1994:	89027b05 	lwl	v0,31493(t0)
    1998:	48000002 	mfc2	zero,$0,2
    199c:	03f91701 	0x3f91701
    19a0:	7c050000 	ext	a1,zero,0x0,0x1
    19a4:	00024b02 	srl	t1,v0,0xc
    19a8:	17014c00 	bne	t8,at,149ac <__isr_vec_space+0x1498c>
    19ac:	000005e8 	0x5e8
    19b0:	4c028005 	mfc3	v0,$16,5
    19b4:	dc000008 	ldc3	$0,8(zero)
    19b8:	03041702 	0x3041702
    19bc:	85050000 	lh	a1,0(t0)
    19c0:	0005fd02 	srl	ra,a1,0x14
    19c4:	1702e000 	bne	t8,v0,ffff99c8 <__entry+0x403f99c8>
    19c8:	000002e9 	0x2e9
    19cc:	58028605 	0x58028605
    19d0:	ec000008 	swc3	$0,8(zero)
    19d4:	040f0002 	0x40f0002
    19d8:	00000557 	0x557
    19dc:	16080102 	bne	s0,t0,1de8 <__isr_vec_space+0x1dc8>
    19e0:	0f000002 	jal	c000008 <__memory_size+0xbfe0808>
    19e4:	0003fb04 	0x3fb04
    19e8:	003a1300 	0x3a1300
    19ec:	05820000 	bltzl	t4,19f0 <__isr_vec_space+0x19d0>
    19f0:	19140000 	0x19140000
    19f4:	14000004 	bnez	zero,1a08 <__isr_vec_space+0x19e8>
    19f8:	0000010c 	syscall	0x4
    19fc:	00058214 	0x58214
    1a00:	003a1400 	0x3a1400
    1a04:	0f000000 	jal	c000000 <__memory_size+0xbfe0800>
    1a08:	00058804 	sllv	s1,a1,zero
    1a0c:	05571800 	0x5571800
    1a10:	040f0000 	0x40f0000
    1a14:	00000564 	0x564
    1a18:	00008113 	0x8113
    1a1c:	0005b100 	sll	s6,a1,0x4
    1a20:	04191400 	0x4191400
    1a24:	0c140000 	jal	500000 <__memory_size+0x4e0800>
    1a28:	14000001 	bnez	zero,1a30 <__isr_vec_space+0x1a10>
    1a2c:	00000081 	0x81
    1a30:	00003a14 	0x3a14
    1a34:	040f0000 	0x40f0000
    1a38:	00000593 	0x593
    1a3c:	00003a13 	0x3a13
    1a40:	0005cb00 	sll	t9,a1,0xc
    1a44:	04191400 	0x4191400
    1a48:	0c140000 	jal	500000 <__memory_size+0x4e0800>
    1a4c:	00000001 	movf	zero,zero,$fcc0
    1a50:	05b7040f 	0x5b7040f
    1a54:	48080000 	mfc2	t0,$0
    1a58:	e1000000 	sc	zero,0(t0)
    1a5c:	09000005 	j	4000014 <__memory_size+0x3fe0814>
    1a60:	000000ce 	0xce
    1a64:	48080002 	mfc2	t0,$0,2
    1a68:	f1000000 	0xf1000000
    1a6c:	09000005 	j	4000014 <__memory_size+0x3fe0814>
    1a70:	000000ce 	0xce
    1a74:	b3050000 	0xb3050000
    1a78:	05000004 	bltz	t0,1a8c <__isr_vec_space+0x1a6c>
    1a7c:	02d1011d 	0x2d1011d
    1a80:	cf190000 	pref	0x19,0(t8)
    1a84:	0c000005 	jal	14 <ABIFlags_flags2>
    1a88:	32012105 	andi	at,s0,0x2105
    1a8c:	16000006 	bnez	s0,1aa8 <__isr_vec_space+0x1a88>
    1a90:	000004db 	0x4db
    1a94:	32012305 	andi	at,s0,0x2305
    1a98:	00000006 	srlv	zero,zero,zero
    1a9c:	0003f216 	0x3f216
    1aa0:	01240500 	0x1240500
    1aa4:	0000003a 	0x3a
    1aa8:	04ad1604 	0x4ad1604
    1aac:	25050000 	addiu	a1,t0,0
    1ab0:	00063801 	0x63801
    1ab4:	0f000800 	jal	c002000 <__memory_size+0xbfe2800>
    1ab8:	0005fd04 	0x5fd04
    1abc:	f1040f00 	0xf1040f00
    1ac0:	19000005 	blez	t0,1ad8 <__isr_vec_space+0x1ab8>
    1ac4:	00000277 	0x277
    1ac8:	013d050e 	0x13d050e
    1acc:	00000673 	tltu	zero,zero,0x19
    1ad0:	00052116 	0x52116
    1ad4:	013e0500 	0x13e0500
    1ad8:	00000673 	tltu	zero,zero,0x19
    1adc:	05581600 	0x5581600
    1ae0:	3f050000 	0x3f050000
    1ae4:	00067301 	0x67301
    1ae8:	74160600 	jalx	581800 <__memory_size+0x562000>
    1aec:	05000005 	bltz	t0,1b04 <__isr_vec_space+0x1ae4>
    1af0:	00560140 	0x560140
    1af4:	000c0000 	sll	zero,t4,0x0
    1af8:	00005608 	0x5608
    1afc:	00068300 	sll	s0,a2,0xc
    1b00:	00ce0900 	0xce0900
    1b04:	00020000 	sll	zero,v0,0x0
    1b08:	5805d01a 	0x5805d01a
    1b0c:	00078402 	srl	s0,a3,0x10
    1b10:	05b31600 	bgezall	t5,7314 <__isr_vec_space+0x72f4>
    1b14:	5a050000 	0x5a050000
    1b18:	00009802 	srl	s3,zero,0x0
    1b1c:	5e160000 	0x5e160000
    1b20:	05000005 	bltz	t0,1b38 <__isr_vec_space+0x1b18>
    1b24:	0551025b 	bgezal	t2,2494 <__isr_vec_space+0x2474>
    1b28:	16040000 	bne	s0,a0,1b2c <__isr_vec_space+0x1b0c>
    1b2c:	0000040e 	0x40e
    1b30:	84025c05 	lh	v0,23557(zero)
    1b34:	08000007 	j	1c <ABIFlags_flags2+0x8>
    1b38:	00060b16 	0x60b16
    1b3c:	025d0500 	0x25d0500
    1b40:	00000182 	srl	zero,zero,0x6
    1b44:	03b11624 	0x3b11624
    1b48:	5e050000 	0x5e050000
    1b4c:	00003a02 	srl	a3,zero,0x8
    1b50:	d6164800 	ldc1	$f22,18432(s0)
    1b54:	05000004 	bltz	t0,1b68 <__isr_vec_space+0x1b48>
    1b58:	0064025f 	0x64025f
    1b5c:	16500000 	bne	s2,s0,1b60 <__isr_vec_space+0x1b40>
    1b60:	00000621 	0x621
    1b64:	3e026005 	0x3e026005
    1b68:	58000006 	blezl	zero,1b84 <__isr_vec_space+0x1b64>
    1b6c:	0004e116 	0x4e116
    1b70:	02610500 	0x2610500
    1b74:	000000f6 	tne	zero,zero,0x3
    1b78:	06261668 	0x6261668
    1b7c:	62050000 	0x62050000
    1b80:	0000f602 	srl	s8,zero,0x18
    1b84:	c2167000 	ll	s6,28672(s0)
    1b88:	05000002 	bltz	t0,1b94 <__isr_vec_space+0x1b74>
    1b8c:	00f60263 	0xf60263
    1b90:	16780000 	bne	s3,t8,1b94 <__isr_vec_space+0x1b74>
    1b94:	000005de 	0x5de
    1b98:	94026405 	lhu	v0,25605(zero)
    1b9c:	80000007 	lb	zero,7(zero)
    1ba0:	00040216 	0x40216
    1ba4:	02650500 	0x2650500
    1ba8:	000007a4 	0x7a4
    1bac:	05811688 	bgez	t4,75d0 <__isr_vec_space+0x75b0>
    1bb0:	66050000 	0x66050000
    1bb4:	00003a02 	srl	a3,zero,0x8
    1bb8:	4c16a000 	mfc3	s6,$20
    1bbc:	05000003 	bltz	t0,1bcc <__isr_vec_space+0x1bac>
    1bc0:	00f60267 	0xf60267
    1bc4:	16a40000 	bne	s5,a0,1bc8 <__isr_vec_space+0x1ba8>
    1bc8:	000002b3 	tltu	zero,zero,0xa
    1bcc:	f6026805 	sdc1	$f2,26629(s0)
    1bd0:	ac000000 	sw	zero,0(zero)
    1bd4:	00033b16 	0x33b16
    1bd8:	02690500 	0x2690500
    1bdc:	000000f6 	tne	zero,zero,0x3
    1be0:	028a16b4 	teq	s4,t2,0x5a
    1be4:	6a050000 	0x6a050000
    1be8:	0000f602 	srl	s8,zero,0x18
    1bec:	9916bc00 	lwr	s6,-17408(t0)
    1bf0:	05000002 	bltz	t0,1bfc <__isr_vec_space+0x1bdc>
    1bf4:	00f6026b 	0xf6026b
    1bf8:	16c40000 	bne	s6,a0,1bfc <__isr_vec_space+0x1bdc>
    1bfc:	00000493 	0x493
    1c00:	3a026c05 	xori	v0,s0,0x6c05
    1c04:	cc000000 	pref	0x0,0(zero)
    1c08:	05570800 	0x5570800
    1c0c:	07940000 	0x7940000
    1c10:	ce090000 	pref	0x9,0(s0)
    1c14:	19000000 	blez	t0,1c18 <__isr_vec_space+0x1bf8>
    1c18:	05570800 	0x5570800
    1c1c:	07a40000 	0x7a40000
    1c20:	ce090000 	pref	0x9,0(s0)
    1c24:	07000000 	bltz	t8,1c28 <__isr_vec_space+0x1c08>
    1c28:	05570800 	0x5570800
    1c2c:	07b40000 	0x7b40000
    1c30:	ce090000 	pref	0x9,0(s0)
    1c34:	17000000 	bnez	t8,1c38 <__isr_vec_space+0x1c18>
    1c38:	05f01a00 	bltzal	t7,843c <__isr_vec_space+0x841c>
    1c3c:	07d80271 	0x7d80271
    1c40:	3f160000 	0x3f160000
    1c44:	05000004 	bltz	t0,1c58 <__isr_vec_space+0x1c38>
    1c48:	07d80274 	0x7d80274
    1c4c:	16000000 	bnez	s0,1c50 <__isr_vec_space+0x1c30>
    1c50:	000005d5 	0x5d5
    1c54:	e8027505 	swc2	$2,29957(zero)
    1c58:	78000007 	ceqi.b	$w0,$w0,0
    1c5c:	02cb0800 	0x2cb0800
    1c60:	07e80000 	tgei	ra,0
    1c64:	ce090000 	pref	0x9,0(s0)
    1c68:	1d000000 	bgtz	t0,1c6c <__isr_vec_space+0x1c4c>
    1c6c:	00980800 	0x980800
    1c70:	07f80000 	0x7f80000
    1c74:	ce090000 	pref	0x9,0(s0)
    1c78:	1d000000 	bgtz	t0,1c7c <__isr_vec_space+0x1c5c>
    1c7c:	05f01b00 	bltzal	t7,8880 <__isr_vec_space+0x8860>
    1c80:	081a0256 	j	680958 <__memory_size+0x661158>
    1c84:	1a1c0000 	0x1a1c0000
    1c88:	05000005 	bltz	t0,1ca0 <__isr_vec_space+0x1c80>
    1c8c:	0683026d 	bgezl	s4,2644 <__isr_vec_space+0x2624>
    1c90:	f81c0000 	sdc2	$28,0(zero)
    1c94:	05000005 	bltz	t0,1cac <__isr_vec_space+0x1c8c>
    1c98:	07b40276 	0x7b40276
    1c9c:	08000000 	j	0 <hardware_exit_hook>
    1ca0:	00000557 	0x557
    1ca4:	0000082a 	slt	at,zero,zero
    1ca8:	0000ce09 	0xce09
    1cac:	1d001800 	bgtz	t0,7cb0 <__isr_vec_space+0x7c90>
    1cb0:	00000835 	0x835
    1cb4:	00041914 	0x41914
    1cb8:	040f0000 	0x40f0000
    1cbc:	0000082a 	slt	at,zero,zero
    1cc0:	016c040f 	0x16c040f
    1cc4:	4c1d0000 	lwxc1	$f0,sp(zero)
    1cc8:	14000008 	bnez	zero,1cec <__isr_vec_space+0x1ccc>
    1ccc:	0000003a 	0x3a
    1cd0:	52040f00 	beql	s0,a0,58d4 <__isr_vec_space+0x58b4>
    1cd4:	0f000008 	jal	c000020 <__memory_size+0xbfe0820>
    1cd8:	00084104 	0x84104
    1cdc:	05f10800 	bgezal	t7,3ce0 <__isr_vec_space+0x3cc0>
    1ce0:	08680000 	j	1a00000 <__memory_size+0x19e0800>
    1ce4:	ce090000 	pref	0x9,0(s0)
    1ce8:	02000000 	0x2000000
    1cec:	010a1e00 	0x10a1e00
    1cf0:	06040000 	0x6040000
    1cf4:	00088705 	0x88705
    1cf8:	024e1f00 	0x24e1f00
    1cfc:	1f000000 	bgtz	t8,1d00 <__isr_vec_space+0x1ce0>
    1d00:	0000022f 	0x22f
    1d04:	023b1f01 	0x23b1f01
    1d08:	00020000 	sll	zero,v0,0x0
    1d0c:	00021b20 	0x21b20
    1d10:	3a420100 	xori	v0,s2,0x100
    1d14:	fc000000 	sdc3	$0,0(zero)
    1d18:	08800008 	j	2000020 <__memory_size+0x1fe0820>
    1d1c:	01000001 	movf	zero,t0,$fcc0
    1d20:	0009079c 	0x9079c
    1d24:	025e2100 	0x25e2100
    1d28:	42010000 	c0	0x10000
    1d2c:	0000003a 	0x3a
    1d30:	0000029e 	0x29e
    1d34:	006e6622 	0x6e6622
    1d38:	029f4201 	0x29f4201
    1d3c:	02ca0000 	0x2ca0000
    1d40:	61220000 	0x61220000
    1d44:	01006772 	tlt	t0,zero,0x19d
    1d48:	00010c42 	srl	at,at,0x11
    1d4c:	00030100 	sll	zero,v1,0x4
    1d50:	00642200 	0x642200
    1d54:	010c4201 	0x10c4201
    1d58:	03380000 	0x3380000
    1d5c:	f7230000 	sdc1	$f3,0(t9)
    1d60:	01000002 	0x1000002
    1d64:	00090749 	0x90749
    1d68:	00036f00 	sll	t5,v1,0x1c
    1d6c:	00702400 	0x702400
    1d70:	02894a01 	0x2894a01
    1d74:	03850000 	0x3850000
    1d78:	68250000 	0x68250000
    1d7c:	1e800009 	bgtz	s4,1da4 <__isr_vec_space+0x1d84>
    1d80:	26000009 	addiu	zero,s0,9
    1d84:	0a035401 	j	80d5004 <__memory_size+0x80b5804>
    1d88:	00000190 	0x190
    1d8c:	01fb040f 	0x1fb040f
    1d90:	8e270000 	lw	a3,0(s1)
    1d94:	05000005 	bltz	t0,1dac <__isr_vec_space+0x1d8c>
    1d98:	091902fb 	j	4640bec <__memory_size+0x46213ec>
    1d9c:	19180000 	0x19180000
    1da0:	28000004 	slti	zero,zero,4
    1da4:	000005d7 	0x5d7
    1da8:	010c6007 	srav	t4,t4,t0
    1dac:	28140000 	slti	s4,zero,0
    1db0:	00000000 	nop
    1db4:	00095100 	sll	t2,t1,0x4
    1db8:	f2000400 	0xf2000400
    1dbc:	04000006 	bltz	zero,1dd8 <__isr_vec_space+0x1db8>
    1dc0:	00016501 	0x16501
    1dc4:	06d40100 	0x6d40100
    1dc8:	0a040000 	j	8100000 <__memory_size+0x80e0800>
    1dcc:	01808000 	0x1808000
    1dd0:	07070000 	aclr	0x0,0(t8)
    1dd4:	04020000 	bltzl	zero,1dd8 <__isr_vec_space+0x1db8>
    1dd8:	00015307 	0x15307
    1ddc:	05040300 	0x5040300
    1de0:	00746e69 	0x746e69
    1de4:	ee050402 	swc3	$5,1026(s0)
    1de8:	02000000 	0x2000000
    1dec:	020f0601 	0x20f0601
    1df0:	01020000 	0x1020000
    1df4:	00020d08 	0x20d08
    1df8:	05020200 	bltzl	t0,25fc <__isr_vec_space+0x25dc>
    1dfc:	00000244 	0x244
    1e00:	f7070202 	sdc1	$f7,514(t8)
    1e04:	02000000 	0x2000000
    1e08:	00e90508 	0xe90508
    1e0c:	08020000 	j	80000 <__memory_size+0x60800>
    1e10:	00014e07 	0x14e07
    1e14:	047c0400 	0x47c0400
    1e18:	07020000 	bltzl	t8,1e1c <__isr_vec_space+0x1dfc>
    1e1c:	00000028 	0x28
    1e20:	00045a04 	0x45a04
    1e24:	2f100300 	sltiu	s0,t8,768
    1e28:	04000000 	bltz	zero,1e2c <__isr_vec_space+0x1e0c>
    1e2c:	0000053d 	0x53d
    1e30:	002f2703 	0x2f2703
    1e34:	29050000 	slti	a1,t0,0
    1e38:	04000004 	bltz	zero,1e4c <__isr_vec_space+0x1e2c>
    1e3c:	008d0161 	0x8d0161
    1e40:	04020000 	bltzl	zero,1e44 <__isr_vec_space+0x1e24>
    1e44:	00015807 	srav	t3,at,zero
    1e48:	03040600 	0x3040600
    1e4c:	0000b34a 	0xb34a
    1e50:	04230700 	bgezl	at,3a54 <__isr_vec_space+0x3a34>
    1e54:	4c030000 	lwxc1	$f0,v1(zero)
    1e58:	00000081 	0x81
    1e5c:	0003d507 	0x3d507
    1e60:	b34d0300 	0xb34d0300
    1e64:	00000000 	nop
    1e68:	00003d08 	0x3d08
    1e6c:	0000c300 	sll	t8,zero,0xc
    1e70:	00c30900 	0xc30900
    1e74:	00030000 	sll	zero,v1,0x0
    1e78:	5a070402 	0x5a070402
    1e7c:	0a000002 	j	8000008 <__memory_size+0x7fe0808>
    1e80:	eb470308 	swc2	$7,776(k0)
    1e84:	0b000000 	j	c000000 <__memory_size+0xbfe0800>
    1e88:	00000527 	0x527
    1e8c:	00284903 	0x284903
    1e90:	0b000000 	j	c000000 <__memory_size+0xbfe0800>
    1e94:	0000052f 	0x52f
    1e98:	00944e03 	0x944e03
    1e9c:	00040000 	sll	zero,a0,0x0
    1ea0:	0004ba04 	0x4ba04
    1ea4:	ca4f0300 	lwc2	$15,768(s2)
    1ea8:	04000000 	bltz	zero,1eac <__isr_vec_space+0x1e8c>
    1eac:	00000398 	0x398
    1eb0:	00605303 	0x605303
    1eb4:	040c0000 	teqi	zero,0
    1eb8:	00057904 	0x57904
    1ebc:	21160500 	addi	s6,t0,1280
    1ec0:	0d000000 	jal	4000000 <__memory_size+0x3fe0800>
    1ec4:	000003a9 	0x3a9
    1ec8:	612d0518 	0x612d0518
    1ecc:	0b000001 	j	c000004 <__memory_size+0xbfe0804>
    1ed0:	000004db 	0x4db
    1ed4:	01612f05 	0x1612f05
    1ed8:	0e000000 	jal	8000000 <__memory_size+0x7fe0800>
    1edc:	05006b5f 	bltz	t0,1cc5c <__isr_vec_space+0x1cc3c>
    1ee0:	00002830 	tge	zero,zero,0xa0
    1ee4:	120b0400 	beq	s0,t3,2ee8 <__isr_vec_space+0x2ec8>
    1ee8:	05000005 	bltz	t0,1f00 <__isr_vec_space+0x1ee0>
    1eec:	00002830 	tge	zero,zero,0xa0
    1ef0:	920b0800 	lbu	t3,2048(s0)
    1ef4:	05000003 	bltz	t0,1f04 <__isr_vec_space+0x1ee4>
    1ef8:	00002830 	tge	zero,zero,0xa0
    1efc:	c00b0c00 	ll	t3,3072(zero)
    1f00:	05000005 	bltz	t0,1f18 <__isr_vec_space+0x1ef8>
    1f04:	00002830 	tge	zero,zero,0xa0
    1f08:	5f0e1000 	0x5f0e1000
    1f0c:	31050078 	andi	a1,t0,0x78
    1f10:	00000167 	0x167
    1f14:	040f0014 	0x40f0014
    1f18:	0000010e 	0x10e
    1f1c:	00010308 	0x10308
    1f20:	00017700 	sll	t6,at,0x1c
    1f24:	00c30900 	0xc30900
    1f28:	00000000 	nop
    1f2c:	0003d00d 	break	0x3,0x340
    1f30:	35052400 	ori	a1,t0,0x2400
    1f34:	000001f0 	tge	zero,zero,0x7
    1f38:	0002d00b 	movn	k0,zero,v0
    1f3c:	28370500 	slti	s7,at,1280
    1f40:	00000000 	nop
    1f44:	00054f0b 	0x54f0b
    1f48:	28380500 	slti	t8,at,1280
    1f4c:	04000000 	bltz	zero,1f50 <__isr_vec_space+0x1f30>
    1f50:	0002df0b 	0x2df0b
    1f54:	28390500 	slti	t9,at,1280
    1f58:	08000000 	j	0 <hardware_exit_hook>
    1f5c:	0006390b 	0x6390b
    1f60:	283a0500 	slti	k0,at,1280
    1f64:	0c000000 	jal	0 <hardware_exit_hook>
    1f68:	0004460b 	0x4460b
    1f6c:	283b0500 	slti	k1,at,1280
    1f70:	10000000 	b	1f74 <__isr_vec_space+0x1f54>
    1f74:	0005450b 	0x5450b
    1f78:	283c0500 	slti	gp,at,1280
    1f7c:	14000000 	bnez	zero,1f80 <__isr_vec_space+0x1f60>
    1f80:	0005c50b 	0x5c50b
    1f84:	283d0500 	slti	sp,at,1280
    1f88:	18000000 	blez	zero,1f8c <__isr_vec_space+0x1f6c>
    1f8c:	00049c0b 	0x49c0b
    1f90:	283e0500 	slti	s8,at,1280
    1f94:	1c000000 	bgtz	zero,1f98 <__isr_vec_space+0x1f78>
    1f98:	0006000b 	movn	zero,zero,a2
    1f9c:	283f0500 	slti	ra,at,1280
    1fa0:	20000000 	addi	zero,zero,0
    1fa4:	02ee1000 	0x2ee1000
    1fa8:	01080000 	0x1080000
    1fac:	02304805 	lsa	t1,s1,s0,0x1
    1fb0:	6f0b0000 	0x6f0b0000
    1fb4:	05000002 	bltz	t0,1fc0 <__isr_vec_space+0x1fa0>
    1fb8:	00023049 	0x23049
    1fbc:	630b0000 	0x630b0000
    1fc0:	05000002 	bltz	t0,1fcc <__isr_vec_space+0x1fac>
    1fc4:	0002304a 	0x2304a
    1fc8:	6b118000 	0x6b118000
    1fcc:	05000005 	bltz	t0,1fe4 <__isr_vec_space+0x1fc4>
    1fd0:	0001034c 	syscall	0x40d
    1fd4:	11010000 	beq	t0,at,1fd8 <__isr_vec_space+0x1fb8>
    1fd8:	00000313 	0x313
    1fdc:	01034f05 	0x1034f05
    1fe0:	01040000 	0x1040000
    1fe4:	01010800 	0x1010800
    1fe8:	02400000 	0x2400000
    1fec:	c3090000 	ll	t1,0(t8)
    1ff0:	1f000000 	bgtz	t8,1ff4 <__isr_vec_space+0x1fd4>
    1ff4:	02521000 	0x2521000
    1ff8:	01900000 	0x1900000
    1ffc:	027e5b05 	0x27e5b05
    2000:	db0b0000 	ldc2	$11,0(t8)
    2004:	05000004 	bltz	t0,2018 <__isr_vec_space+0x1ff8>
    2008:	00027e5c 	0x27e5c
    200c:	f30b0000 	0xf30b0000
    2010:	05000004 	bltz	t0,2024 <__isr_vec_space+0x2004>
    2014:	0000285d 	0x285d
    2018:	8d0b0400 	lw	t3,1024(t0)
    201c:	05000003 	bltz	t0,202c <__isr_vec_space+0x200c>
    2020:	0002845f 	0x2845f
    2024:	ee0b0800 	swc3	$11,2048(s0)
    2028:	05000002 	bltz	t0,2034 <__isr_vec_space+0x2014>
    202c:	0001f060 	0x1f060
    2030:	0f008800 	jal	c022000 <__memory_size+0xc002800>
    2034:	00024004 	sllv	t0,v0,zero
    2038:	02940800 	0x2940800
    203c:	02940000 	0x2940000
    2040:	c3090000 	ll	t1,0(t8)
    2044:	1f000000 	bgtz	t8,2048 <__isr_vec_space+0x2028>
    2048:	9a040f00 	lwr	a0,3840(s0)
    204c:	12000002 	beqz	s0,2058 <__isr_vec_space+0x2038>
    2050:	0004a60d 	break	0x4,0x298
    2054:	73050800 	madd	$ac1,t8,a1
    2058:	000002c0 	sll	zero,zero,0xb
    205c:	0008cc0b 	0x8cc0b
    2060:	c0740500 	ll	s4,1280(v1)
    2064:	00000002 	srl	zero,zero,0x0
    2068:	00089a0b 	0x89a0b
    206c:	28750500 	slti	s5,v1,1280
    2070:	04000000 	bltz	zero,2074 <__isr_vec_space+0x2054>
    2074:	3d040f00 	0x3d040f00
    2078:	0d000000 	jal	4000000 <__memory_size+0x3fe0800>
    207c:	000004c5 	0x4c5
    2080:	f0b30568 	0xf0b30568
    2084:	0e000003 	jal	800000c <__memory_size+0x7fe080c>
    2088:	0500705f 	bltz	t0,1e208 <__isr_vec_space+0x1e1e8>
    208c:	0002c0b4 	teq	zero,v0,0x302
    2090:	5f0e0000 	0x5f0e0000
    2094:	b5050072 	0xb5050072
    2098:	00000028 	0x28
    209c:	775f0e04 	jalx	d7c3810 <__memory_size+0xd7a4010>
    20a0:	28b60500 	slti	s6,a1,1280
    20a4:	08000000 	j	0 <hardware_exit_hook>
    20a8:	00030c0b 	0x30c0b
    20ac:	44b70500 	0x44b70500
    20b0:	0c000000 	jal	0 <hardware_exit_hook>
    20b4:	0003ec0b 	0x3ec0b
    20b8:	44b80500 	0x44b80500
    20bc:	0e000000 	jal	8000000 <__memory_size+0x7fe0800>
    20c0:	66625f0e 	0x66625f0e
    20c4:	9bb90500 	lwr	t9,1280(sp)
    20c8:	10000002 	b	20d4 <__isr_vec_space+0x20b4>
    20cc:	0002aa0b 	0x2aa0b
    20d0:	28ba0500 	slti	k0,a1,1280
    20d4:	18000000 	blez	zero,20d8 <__isr_vec_space+0x20b8>
    20d8:	0002fc0b 	0x2fc0b
    20dc:	01c10500 	0x1c10500
    20e0:	1c000001 	bgtz	zero,20e8 <__isr_vec_space+0x20c8>
    20e4:	0003c00b 	movn	t8,zero,v1
    20e8:	53c30500 	beql	s8,v1,34ec <__isr_vec_space+0x34cc>
    20ec:	20000005 	addi	zero,zero,5
    20f0:	0004380b 	movn	a3,zero,a0
    20f4:	82c50500 	lb	a1,1280(s6)
    20f8:	24000005 	li	zero,5
    20fc:	0005370b 	0x5370b
    2100:	a6c80500 	sh	t0,1280(s6)
    2104:	28000005 	slti	zero,zero,5
    2108:	00061a0b 	0x61a0b
    210c:	c0c90500 	ll	t1,1280(a2)
    2110:	2c000005 	sltiu	zero,zero,5
    2114:	62755f0e 	0x62755f0e
    2118:	9bcc0500 	lwr	t4,1280(s8)
    211c:	30000002 	andi	zero,zero,0x2
    2120:	70755f0e 	q16add	xr12,xr7,xr5,xr13,AA,LW
    2124:	c0cd0500 	ll	t5,1280(a2)
    2128:	38000002 	xori	zero,zero,0x2
    212c:	72755f0e 	q16add	xr12,xr7,xr5,xr13,SA,LW
    2130:	28ce0500 	slti	t6,a2,1280
    2134:	3c000000 	lui	zero,0x0
    2138:	0002d90b 	0x2d90b
    213c:	c6d10500 	lwc1	$f17,1280(s6)
    2140:	40000005 	mfc0	zero,$0,5
    2144:	0005f20b 	0x5f20b
    2148:	d6d20500 	ldc1	$f18,1280(s6)
    214c:	43000005 	c0	0x1000005
    2150:	626c5f0e 	0x626c5f0e
    2154:	9bd50500 	lwr	s5,1280(s8)
    2158:	44000002 	mfc1	zero,$f0
    215c:	0003220b 	0x3220b
    2160:	28d80500 	slti	t8,a2,1280
    2164:	4c000000 	lwxc1	$f0,zero(zero)
    2168:	0003330b 	0x3330b
    216c:	6bd90500 	0x6bd90500
    2170:	50000000 	beqzl	zero,2174 <__isr_vec_space+0x2154>
    2174:	0006490b 	0x6490b
    2178:	0edc0500 	jal	b701400 <__memory_size+0xb6e1c00>
    217c:	54000004 	bnezl	zero,2190 <__isr_vec_space+0x2170>
    2180:	0007180b 	movn	v1,zero,a3
    2184:	f6e00500 	sdc1	$f0,1280(s7)
    2188:	58000000 	blezl	zero,218c <__isr_vec_space+0x216c>
    218c:	0004cd0b 	0x4cd0b
    2190:	ebe20500 	swc2	$2,1280(ra)
    2194:	5c000000 	bgtzl	zero,2198 <__isr_vec_space+0x2178>
    2198:	0004300b 	movn	a2,zero,a0
    219c:	28e30500 	slti	v1,a3,1280
    21a0:	64000000 	0x64000000
    21a4:	00281300 	0x281300
    21a8:	040e0000 	tnei	zero,0
    21ac:	0e140000 	jal	8500000 <__memory_size+0x84e0800>
    21b0:	14000004 	bnez	zero,21c4 <__isr_vec_space+0x21a4>
    21b4:	00000101 	0x101
    21b8:	00054614 	0x54614
    21bc:	00281400 	0x281400
    21c0:	0f000000 	jal	c000000 <__memory_size+0xbfe0800>
    21c4:	00041404 	0x41404
    21c8:	051a1500 	0x51a1500
    21cc:	04280000 	tgei	at,0
    21d0:	46023905 	c1	0x23905
    21d4:	16000005 	bnez	s0,21ec <__isr_vec_space+0x21cc>
    21d8:	00000a8c 	syscall	0x2a
    21dc:	28023b05 	slti	v0,zero,15109
    21e0:	00000000 	nop
    21e4:	00031b16 	0x31b16
    21e8:	02400500 	0x2400500
    21ec:	0000062d 	0x62d
    21f0:	03dc1604 	0x3dc1604
    21f4:	40050000 	mfc0	a1,c0_index
    21f8:	00062d02 	srl	a1,a2,0x14
    21fc:	a1160800 	sb	s6,2048(t0)
    2200:	05000003 	bltz	t0,2210 <__isr_vec_space+0x21f0>
    2204:	062d0240 	0x62d0240
    2208:	160c0000 	bne	s0,t4,220c <__isr_vec_space+0x21ec>
    220c:	000004ee 	0x4ee
    2210:	28024205 	slti	v0,zero,16901
    2214:	10000000 	b	2218 <__isr_vec_space+0x21f8>
    2218:	00027f16 	0x27f16
    221c:	02430500 	0x2430500
    2220:	0000080f 	0x80f
    2224:	05a11614 	bgez	t5,7a78 <__isr_vec_space+0x7a58>
    2228:	45050000 	bc1t	$fcc1,222c <__isr_vec_space+0x220c>
    222c:	00002802 	srl	a1,zero,0x0
    2230:	f8163000 	sdc2	$22,12288(zero)
    2234:	05000004 	bltz	t0,2248 <__isr_vec_space+0x2228>
    2238:	05770246 	0x5770246
    223c:	16340000 	bne	s1,s4,2240 <__isr_vec_space+0x2220>
    2240:	0000044f 	sync_acquire
    2244:	28024805 	slti	v0,zero,18437
    2248:	38000000 	xori	zero,zero,0x0
    224c:	00050816 	0x50816
    2250:	024a0500 	0x24a0500
    2254:	0000082a 	slt	at,zero,zero
    2258:	041b163c 	0x41b163c
    225c:	4d050000 	lwxc1	$f0,a1(t0)
    2260:	00016102 	srl	t4,at,0x4
    2264:	c6164000 	lwc1	$f22,16384(s0)
    2268:	05000003 	bltz	t0,2278 <__isr_vec_space+0x2258>
    226c:	0028024e 	0x28024e
    2270:	16440000 	bne	s2,a0,2274 <__isr_vec_space+0x2254>
    2274:	00000634 	teq	zero,zero,0x18
    2278:	61024f05 	0x61024f05
    227c:	48000001 	mfc2	zero,$0,1
    2280:	00047216 	0x47216
    2284:	02500500 	0x2500500
    2288:	00000830 	tge	zero,zero,0x20
    228c:	03e4164c 	syscall	0xf9059
    2290:	53050000 	beql	t8,a1,2294 <__isr_vec_space+0x2274>
    2294:	00002802 	srl	a1,zero,0x0
    2298:	2b165000 	slti	s6,t8,20480
    229c:	05000003 	bltz	t0,22ac <__isr_vec_space+0x228c>
    22a0:	05460254 	0x5460254
    22a4:	16540000 	bne	s2,s4,22a8 <__isr_vec_space+0x2288>
    22a8:	0000048e 	0x48e
    22ac:	ed027705 	swc3	$2,30469(t0)
    22b0:	58000007 	blezl	zero,22d0 <__isr_vec_space+0x22b0>
    22b4:	00025217 	0x25217
    22b8:	027b0500 	0x27b0500
    22bc:	0000027e 	0x27e
    22c0:	f9170148 	sdc2	$23,328(t0)
    22c4:	05000003 	bltz	t0,22d4 <__isr_vec_space+0x22b4>
    22c8:	0240027c 	0x240027c
    22cc:	014c0000 	0x14c0000
    22d0:	0005e817 	0x5e817
    22d4:	02800500 	0x2800500
    22d8:	00000841 	0x841
    22dc:	041702dc 	0x41702dc
    22e0:	05000003 	bltz	t0,22f0 <__isr_vec_space+0x22d0>
    22e4:	05f20285 	bltzall	t7,2cfc <__isr_vec_space+0x2cdc>
    22e8:	02e00000 	0x2e00000
    22ec:	0002e917 	0x2e917
    22f0:	02860500 	0x2860500
    22f4:	0000084d 	break	0x0,0x21
    22f8:	0f0002ec 	jal	c000bb0 <__memory_size+0xbfe13b0>
    22fc:	00054c04 	0x54c04
    2300:	08010200 	j	40800 <__memory_size+0x21000>
    2304:	00000216 	0x216
    2308:	03f0040f 	0x3f0040f
    230c:	28130000 	slti	s3,zero,0
    2310:	77000000 	jalx	c000000 <__memory_size+0xbfe0800>
    2314:	14000005 	bnez	zero,232c <__isr_vec_space+0x230c>
    2318:	0000040e 	0x40e
    231c:	00010114 	0x10114
    2320:	05771400 	0x5771400
    2324:	28140000 	slti	s4,zero,0
    2328:	00000000 	nop
    232c:	057d040f 	0x57d040f
    2330:	4c180000 	lwxc1	$f0,t8(zero)
    2334:	0f000005 	jal	c000014 <__memory_size+0xbfe0814>
    2338:	00055904 	0x55904
    233c:	00761300 	0x761300
    2340:	05a60000 	0x5a60000
    2344:	0e140000 	jal	8500000 <__memory_size+0x84e0800>
    2348:	14000004 	bnez	zero,235c <__isr_vec_space+0x233c>
    234c:	00000101 	0x101
    2350:	00007614 	0x7614
    2354:	00281400 	0x281400
    2358:	0f000000 	jal	c000000 <__memory_size+0xbfe0800>
    235c:	00058804 	sllv	s1,a1,zero
    2360:	00281300 	0x281300
    2364:	05c00000 	bltz	t6,2368 <__isr_vec_space+0x2348>
    2368:	0e140000 	jal	8500000 <__memory_size+0x84e0800>
    236c:	14000004 	bnez	zero,2380 <__isr_vec_space+0x2360>
    2370:	00000101 	0x101
    2374:	ac040f00 	sw	a0,3840(zero)
    2378:	08000005 	j	14 <ABIFlags_flags2>
    237c:	0000003d 	0x3d
    2380:	000005d6 	0x5d6
    2384:	0000c309 	0xc309
    2388:	08000200 	j	800 <__isr_vec_space+0x7e0>
    238c:	0000003d 	0x3d
    2390:	000005e6 	0x5e6
    2394:	0000c309 	0xc309
    2398:	05000000 	bltz	t0,239c <__isr_vec_space+0x237c>
    239c:	000004b3 	tltu	zero,zero,0x12
    23a0:	c6011d05 	lwc1	$f1,7429(s0)
    23a4:	19000002 	blez	t0,23b0 <__isr_vec_space+0x2390>
    23a8:	000005cf 	sync	0x17
    23ac:	0121050c 	syscall	0x48414
    23b0:	00000627 	0x627
    23b4:	0004db16 	0x4db16
    23b8:	01230500 	0x1230500
    23bc:	00000627 	0x627
    23c0:	03f21600 	0x3f21600
    23c4:	24050000 	li	a1,0
    23c8:	00002801 	movf	a1,zero,$fcc0
    23cc:	ad160400 	sw	s6,1024(t0)
    23d0:	05000004 	bltz	t0,23e4 <__isr_vec_space+0x23c4>
    23d4:	062d0125 	0x62d0125
    23d8:	00080000 	sll	zero,t0,0x0
    23dc:	05f2040f 	bltzall	t7,341c <__isr_vec_space+0x33fc>
    23e0:	040f0000 	0x40f0000
    23e4:	000005e6 	0x5e6
    23e8:	00027719 	0x27719
    23ec:	3d050e00 	0x3d050e00
    23f0:	00066801 	0x66801
    23f4:	05211600 	bgez	t1,7bf8 <__isr_vec_space+0x7bd8>
    23f8:	3e050000 	0x3e050000
    23fc:	00066801 	0x66801
    2400:	58160000 	0x58160000
    2404:	05000005 	bltz	t0,241c <__isr_vec_space+0x23fc>
    2408:	0668013f 	tgei	s3,319
    240c:	16060000 	bne	s0,a2,2410 <__isr_vec_space+0x23f0>
    2410:	00000574 	teq	zero,zero,0x15
    2414:	4b014005 	c2	0x1014005
    2418:	0c000000 	jal	0 <hardware_exit_hook>
    241c:	004b0800 	0x4b0800
    2420:	06780000 	0x6780000
    2424:	c3090000 	ll	t1,0(t8)
    2428:	02000000 	0x2000000
    242c:	05d01a00 	bltzal	t6,8c30 <__isr_vec_space+0x8c10>
    2430:	07790258 	0x7790258
    2434:	b3160000 	0xb3160000
    2438:	05000005 	bltz	t0,2450 <__isr_vec_space+0x2430>
    243c:	008d025a 	0x8d025a
    2440:	16000000 	bnez	s0,2444 <__isr_vec_space+0x2424>
    2444:	0000055e 	0x55e
    2448:	46025b05 	c1	0x25b05
    244c:	04000005 	bltz	zero,2464 <__isr_vec_space+0x2444>
    2450:	00040e16 	0x40e16
    2454:	025c0500 	0x25c0500
    2458:	00000779 	0x779
    245c:	060b1608 	tltiu	s0,5640
    2460:	5d050000 	0x5d050000
    2464:	00017702 	srl	t6,at,0x1c
    2468:	b1162400 	0xb1162400
    246c:	05000003 	bltz	t0,247c <__isr_vec_space+0x245c>
    2470:	0028025e 	0x28025e
    2474:	16480000 	bne	s2,t0,2478 <__isr_vec_space+0x2458>
    2478:	000004d6 	0x4d6
    247c:	59025f05 	0x59025f05
    2480:	50000000 	beqzl	zero,2484 <__isr_vec_space+0x2464>
    2484:	00062116 	0x62116
    2488:	02600500 	0x2600500
    248c:	00000633 	tltu	zero,zero,0x18
    2490:	04e11658 	bgez	a3,7df4 <__isr_vec_space+0x7dd4>
    2494:	61050000 	0x61050000
    2498:	0000eb02 	srl	sp,zero,0xc
    249c:	26166800 	addiu	s6,s0,26624
    24a0:	05000006 	bltz	t0,24bc <__isr_vec_space+0x249c>
    24a4:	00eb0262 	0xeb0262
    24a8:	16700000 	bne	s3,s0,24ac <__isr_vec_space+0x248c>
    24ac:	000002c2 	srl	zero,zero,0xb
    24b0:	eb026305 	swc2	$2,25349(t8)
    24b4:	78000000 	andi.b	$w0,$w0,0x0
    24b8:	0005de16 	0x5de16
    24bc:	02640500 	0x2640500
    24c0:	00000789 	0x789
    24c4:	04021680 	bltzl	zero,7ec8 <__isr_vec_space+0x7ea8>
    24c8:	65050000 	0x65050000
    24cc:	00079902 	srl	s3,a3,0x4
    24d0:	81168800 	lb	s6,-30720(t0)
    24d4:	05000005 	bltz	t0,24ec <__isr_vec_space+0x24cc>
    24d8:	00280266 	0x280266
    24dc:	16a00000 	bnez	s5,24e0 <__isr_vec_space+0x24c0>
    24e0:	0000034c 	syscall	0xd
    24e4:	eb026705 	swc2	$2,26373(t8)
    24e8:	a4000000 	sh	zero,0(zero)
    24ec:	0002b316 	0x2b316
    24f0:	02680500 	0x2680500
    24f4:	000000eb 	0xeb
    24f8:	033b16ac 	0x33b16ac
    24fc:	69050000 	0x69050000
    2500:	0000eb02 	srl	sp,zero,0xc
    2504:	8a16b400 	lwl	s6,-19456(s0)
    2508:	05000002 	bltz	t0,2514 <__isr_vec_space+0x24f4>
    250c:	00eb026a 	0xeb026a
    2510:	16bc0000 	bne	s5,gp,2514 <__isr_vec_space+0x24f4>
    2514:	00000299 	0x299
    2518:	eb026b05 	swc2	$2,27397(t8)
    251c:	c4000000 	lwc1	$f0,0(zero)
    2520:	00049316 	0x49316
    2524:	026c0500 	0x26c0500
    2528:	00000028 	0x28
    252c:	4c0800cc 	0x4c0800cc
    2530:	89000005 	lwl	zero,5(t0)
    2534:	09000007 	j	400001c <__memory_size+0x3fe081c>
    2538:	000000c3 	sra	zero,zero,0x3
    253c:	4c080019 	0x4c080019
    2540:	99000005 	lwr	zero,5(t0)
    2544:	09000007 	j	400001c <__memory_size+0x3fe081c>
    2548:	000000c3 	sra	zero,zero,0x3
    254c:	4c080007 	mfc3	t0,$0,7
    2550:	a9000005 	swl	zero,5(t0)
    2554:	09000007 	j	400001c <__memory_size+0x3fe081c>
    2558:	000000c3 	sra	zero,zero,0x3
    255c:	f01a0017 	0xf01a0017
    2560:	cd027105 	pref	0x2,28933(t0)
    2564:	16000007 	bnez	s0,2584 <__isr_vec_space+0x2564>
    2568:	0000043f 	0x43f
    256c:	cd027405 	pref	0x2,29701(t0)
    2570:	00000007 	srav	zero,zero,zero
    2574:	0005d516 	0x5d516
    2578:	02750500 	0x2750500
    257c:	000007dd 	0x7dd
    2580:	c0080078 	ll	t0,120(zero)
    2584:	dd000002 	ldc3	$0,2(t0)
    2588:	09000007 	j	400001c <__memory_size+0x3fe081c>
    258c:	000000c3 	sra	zero,zero,0x3
    2590:	8d08001d 	lw	t0,29(t0)
    2594:	ed000000 	swc3	$0,0(t0)
    2598:	09000007 	j	400001c <__memory_size+0x3fe081c>
    259c:	000000c3 	sra	zero,zero,0x3
    25a0:	f01b001d 	0xf01b001d
    25a4:	0f025605 	jal	c095814 <__memory_size+0xc076014>
    25a8:	1c000008 	bgtz	zero,25cc <__isr_vec_space+0x25ac>
    25ac:	0000051a 	0x51a
    25b0:	78026d05 	0x78026d05
    25b4:	1c000006 	bgtz	zero,25d0 <__isr_vec_space+0x25b0>
    25b8:	000005f8 	0x5f8
    25bc:	a9027605 	swl	v0,30213(t0)
    25c0:	00000007 	srav	zero,zero,zero
    25c4:	00054c08 	0x54c08
    25c8:	00081f00 	sll	v1,t0,0x1c
    25cc:	00c30900 	0xc30900
    25d0:	00180000 	sll	zero,t8,0x0
    25d4:	00082a1d 	0x82a1d
    25d8:	040e1400 	tnei	zero,5120
    25dc:	0f000000 	jal	c000000 <__memory_size+0xbfe0800>
    25e0:	00081f04 	0x81f04
    25e4:	61040f00 	0x61040f00
    25e8:	1d000001 	bgtz	t0,25f0 <__isr_vec_space+0x25d0>
    25ec:	00000841 	0x841
    25f0:	00002814 	0x2814
    25f4:	040f0000 	0x40f0000
    25f8:	00000847 	0x847
    25fc:	0836040f 	j	d8103c <__memory_size+0xd6183c>
    2600:	e6080000 	swc1	$f8,0(s0)
    2604:	5d000005 	bgtzl	t0,261c <__isr_vec_space+0x25fc>
    2608:	09000008 	j	4000020 <__memory_size+0x3fe0820>
    260c:	000000c3 	sra	zero,zero,0x3
    2610:	611e0002 	0x611e0002
    2614:	01000004 	sllv	zero,zero,t0
    2618:	000a0442 	srl	zero,t2,0x11
    261c:	00018080 	sll	s0,at,0x2
    2620:	1e9c0100 	0x1e9c0100
    2624:	1f000009 	bgtz	t8,264c <__isr_vec_space+0x262c>
    2628:	000007e7 	0x7e7
    262c:	00284201 	0x284201
    2630:	03b00000 	0x3b00000
    2634:	64200000 	0x64200000
    2638:	01420100 	0x1420100
    263c:	dc000001 	ldc3	$0,1(zero)
    2640:	21000003 	addi	zero,t0,3
    2644:	45010070 	bc1t	2808 <__isr_vec_space+0x27e8>
    2648:	0000027e 	0x27e
    264c:	00000408 	jr.hb	zero
    2650:	0006c622 	0x6c622
    2654:	1e460100 	0x1e460100
    2658:	27000009 	addiu	zero,t8,9
    265c:	22000004 	addi	zero,s0,4
    2660:	000002f7 	0x2f7
    2664:	09244701 	j	4911c04 <__memory_size+0x48f2404>
    2668:	04500000 	bltzal	v0,266c <__isr_vec_space+0x264c>
    266c:	6e210000 	0x6e210000
    2670:	28480100 	slti	t0,v0,256
    2674:	77000000 	jalx	c000000 <__memory_size+0xbfe0800>
    2678:	21000004 	addi	zero,t0,4
    267c:	49010069 	bc2t	2824 <__isr_vec_space+0x2804>
    2680:	00000028 	0x28
    2684:	0000048a 	0x48a
    2688:	006e6621 	0x6e6621
    268c:	02944a01 	0x2944a01
    2690:	04bf0000 	synci	0(a1)
    2694:	cc230000 	pref	0x3,0(at)
    2698:	01000006 	srlv	zero,zero,t0
    269c:	00002451 	0x2451
    26a0:	090d0000 	j	4340000 <__memory_size+0x4320800>
    26a4:	69210000 	0x69210000
    26a8:	0100646e 	0x100646e
    26ac:	0000285e 	0x285e
    26b0:	0004e800 	sll	sp,a0,0x0
    26b4:	0b402500 	j	d009400 <__memory_size+0xcfe9c00>
    26b8:	01268000 	0x1268000
    26bc:	00860254 	0x860254
    26c0:	14270000 	bne	at,a3,26c4 <__isr_vec_space+0x26a4>
    26c4:	4780000b 	bnz.b	$w0,26f4 <__isr_vec_space+0x26d4>
    26c8:	26000009 	addiu	zero,s0,9
    26cc:	80025401 	lb	v0,21505(zero)
    26d0:	0f000000 	jal	c000000 <__memory_size+0xbfe0800>
    26d4:	00027e04 	0x27e04
    26d8:	f0040f00 	0xf0040f00
    26dc:	28000001 	slti	zero,zero,1
    26e0:	00000710 	0x710
    26e4:	00280e01 	0x280e01
    26e8:	29000000 	slti	zero,t0,0
    26ec:	0000058e 	0x58e
    26f0:	4202fb05 	c0	0x2fb05
    26f4:	18000009 	blez	zero,271c <__isr_vec_space+0x26fc>
    26f8:	0000040e 	0x40e
    26fc:	0006c12a 	0x6c12a
    2700:	14550600 	bne	v0,s5,3f04 <__isr_vec_space+0x3ee4>
    2704:	00000101 	0x101
    2708:	01220000 	0x1220000
    270c:	00040000 	sll	zero,a0,0x0
    2710:	0000090f 	0x90f
    2714:	071e0104 	0x71e0104
    2718:	13010000 	beq	t8,at,271c <__isr_vec_space+0x26fc>
    271c:	84000008 	lh	zero,8(zero)
    2720:	8880000b 	lwl	zero,11(a0)
    2724:	c6000000 	lwc1	$f0,0(s0)
    2728:	02000008 	jr	s0
    272c:	020f0601 	0x20f0601
    2730:	01020000 	0x1020000
    2734:	00020d08 	0x20d08
    2738:	05020200 	bltzl	t0,2f3c <__isr_vec_space+0x2f1c>
    273c:	00000244 	0x244
    2740:	f7070202 	sdc1	$f7,514(t8)
    2744:	03000000 	0x3000000
    2748:	00000804 	sllv	at,zero,zero
    274c:	00483702 	0x483702
    2750:	04020000 	bltzl	zero,2754 <__isr_vec_space+0x2734>
    2754:	0000ee05 	0xee05
    2758:	07040200 	0x7040200
    275c:	00000153 	0x153
    2760:	e9050802 	swc2	$5,2050(t0)
    2764:	02000000 	0x2000000
    2768:	014e0708 	0x14e0708
    276c:	06030000 	bgezl	s0,2770 <__isr_vec_space+0x2750>
    2770:	03000008 	jr	t8
    2774:	00003d41 	0x3d41
    2778:	05040400 	0x5040400
    277c:	00746e69 	0x746e69
    2780:	58070402 	0x58070402
    2784:	02000001 	movf	zero,s0,$fcc0
    2788:	025a0704 	0x25a0704
    278c:	01020000 	0x1020000
    2790:	00021608 	0x21608
    2794:	07ec0500 	teqi	ra,1280
    2798:	3c010000 	lui	at,0x0
    279c:	80000b84 	lb	zero,2948(zero)
    27a0:	00000088 	0x88
    27a4:	00f39c01 	0xf39c01
    27a8:	e2060000 	sc	a2,0(s0)
    27ac:	01000007 	srav	zero,zero,t0
    27b0:	0000643c 	0x643c
    27b4:	00050600 	sll	zero,a1,0x18
    27b8:	080e0700 	j	381c00 <__memory_size+0x362400>
    27bc:	3e010000 	0x3e010000
    27c0:	00000064 	0x64
    27c4:	6f085401 	0x6f085401
    27c8:	3f010070 	0x3f010070
    27cc:	00000064 	0x64
    27d0:	72086901 	0x72086901
    27d4:	01007465 	0x1007465
    27d8:	00006440 	sll	t4,zero,0x11
    27dc:	09520100 	j	5480400 <__memory_size+0x5460c00>
    27e0:	80000be4 	lb	zero,3044(zero)
    27e4:	00000109 	0x109
    27e8:	000000e9 	0xe9
    27ec:	0254010a 	0x254010a
    27f0:	0b000083 	j	c00020c <__memory_size+0xbfe0a0c>
    27f4:	80000bfc 	lb	zero,3068(zero)
    27f8:	0000011a 	0x11a
    27fc:	00840c00 	0x840c00
    2800:	00fe0000 	0xfe0000
    2804:	000d0000 	sll	zero,t5,0x0
    2808:	0007f30e 	0x7f30e
    280c:	f3380100 	0xf3380100
    2810:	0f000000 	jal	c000000 <__memory_size+0xbfe0800>
    2814:	000007d1 	0x7d1
    2818:	011a3401 	0x11a3401
    281c:	64100000 	0x64100000
    2820:	00000000 	nop
    2824:	00084511 	0x84511
    2828:	6f330100 	0x6f330100
    282c:	00000000 	nop
    2830:	000000b9 	0xb9
    2834:	09fb0002 	j	7ec0008 <__memory_size+0x7ea0808>
    2838:	01040000 	0x1040000
    283c:	000009d7 	0x9d7
    2840:	80000c0c 	lb	zero,3084(zero)
    2844:	80000cc4 	lb	zero,3268(zero)
    2848:	6573752f 	0x6573752f
    284c:	696d2f72 	0x696d2f72
    2850:	77737370 	jalx	dcdcdc0 <__memory_size+0xdcbd5c0>
    2854:	69672f74 	0x69672f74
    2858:	656e2f74 	0x656e2f74
    285c:	62696c77 	0x62696c77
    2860:	62696c2f 	0x62696c2f
    2864:	736f6c67 	0x736f6c67
    2868:	696d2f73 	0x696d2f73
    286c:	752f7370 	jalx	4bdcdc0 <__memory_size+0x4bbd5c0>
    2870:	675f6968 	0x675f6968
    2874:	72617465 	s8sdi	xr1,s3,93,ptn0
    2878:	532e7367 	beql	t9,t6,1f618 <__isr_vec_space+0x1f5f8>
    287c:	73752f00 	0x73752f00
    2880:	6d2f7265 	0x6d2f7265
    2884:	73737069 	0x73737069
    2888:	622f7477 	0x622f7477
    288c:	646c6975 	0x646c6975
    2890:	3130322d 	andi	s0,t1,0x322d
    2894:	36302e35 	ori	s0,s1,0x2e35
    2898:	2f35302d 	sltiu	s5,t9,12333
    289c:	2d6a626f 	sltiu	t2,t3,25199
    28a0:	736f7263 	s8std	xr9,k1,-36,ptn3
    28a4:	696d2d73 	0x696d2d73
    28a8:	6d2d7370 	0x6d2d7370
    28ac:	652d6974 	0x652d6974
    28b0:	6e2f666c 	0x6e2f666c
    28b4:	696c7765 	0x696c7765
    28b8:	696d2f62 	0x696d2f62
    28bc:	6d2d7370 	0x6d2d7370
    28c0:	652d6974 	0x652d6974
    28c4:	652f666c 	0x652f666c
    28c8:	6f732f6c 	0x6f732f6c
    28cc:	696c2f66 	0x696c2f66
    28d0:	6f6c6762 	0x6f6c6762
    28d4:	6d2f7373 	0x6d2f7373
    28d8:	00737069 	0x737069
    28dc:	20554e47 	addi	s5,v0,20039
    28e0:	32205341 	andi	zero,s1,0x5341
    28e4:	2e34322e 	sltiu	s4,s1,12846
    28e8:	01003039 	0x1003039
    28ec:	00010b80 	sll	at,at,0xe
    28f0:	0f000400 	jal	c001000 <__memory_size+0xbfe1800>
    28f4:	0400000a 	bltz	zero,2920 <__isr_vec_space+0x2900>
    28f8:	00071e01 	0x71e01
    28fc:	08570100 	j	15c0400 <__memory_size+0x15a0c00>
    2900:	0cc40000 	jal	3100000 <__memory_size+0x30e0800>
    2904:	00488000 	0x488000
    2908:	0a620000 	j	9880000 <__memory_size+0x9860800>
    290c:	01020000 	0x1020000
    2910:	00020f06 	0x20f06
    2914:	08010200 	j	40800 <__memory_size+0x21000>
    2918:	0000020d 	break	0x0,0x8
    291c:	44050202 	0x44050202
    2920:	02000002 	0x2000002
    2924:	00f70702 	0xf70702
    2928:	04030000 	bgezl	zero,292c <__isr_vec_space+0x290c>
    292c:	02000008 	jr	s0
    2930:	00004837 	0x4837
    2934:	05040200 	0x5040200
    2938:	000000ee 	0xee
    293c:	53070402 	beql	t8,a3,3948 <__isr_vec_space+0x3928>
    2940:	02000001 	movf	zero,s0,$fcc0
    2944:	00e90508 	0xe90508
    2948:	08020000 	j	80000 <__memory_size+0x60800>
    294c:	00014e07 	0x14e07
    2950:	08060300 	j	180c00 <__memory_size+0x161400>
    2954:	41030000 	mftc0	zero,c0_entrylo1
    2958:	0000003d 	0x3d
    295c:	69050404 	0x69050404
    2960:	0200746e 	0x200746e
    2964:	01580704 	0x1580704
    2968:	04020000 	bltzl	zero,296c <__isr_vec_space+0x294c>
    296c:	00025a07 	0x25a07
    2970:	02040500 	0x2040500
    2974:	02160801 	0x2160801
    2978:	d2060000 	0xd2060000
    297c:	01000008 	jr	t0
    2980:	000cc427 	0xcc427
    2984:	00004880 	sll	t1,zero,0x2
    2988:	e79c0100 	swc1	$f28,256(gp)
    298c:	07000000 	bltz	t8,2990 <__isr_vec_space+0x2970>
    2990:	000008c9 	0x8c9
    2994:	00e72701 	0xe72701
    2998:	05240000 	0x5240000
    299c:	a9070000 	swl	a3,0(t0)
    29a0:	01000008 	jr	t0
    29a4:	0000e727 	0xe727
    29a8:	00054200 	sll	t0,a1,0x8
    29ac:	706f0800 	madd	$ac1,v1,t7
    29b0:	64290100 	0x64290100
    29b4:	01000000 	0x1000000
    29b8:	08c20969 	j	30825a4 <__memory_size+0x3062da4>
    29bc:	2a010000 	slti	at,s0,0
    29c0:	00000084 	0x84
    29c4:	a0095201 	sb	t1,20993(zero)
    29c8:	01000008 	jr	t0
    29cc:	0000842b 	0x842b
    29d0:	00530100 	0x530100
    29d4:	0084040a 	0x84040a
    29d8:	860b0000 	lh	t3,0(s0)
    29dc:	f8000000 	sdc2	$0,0(zero)
    29e0:	0c000000 	jal	0 <hardware_exit_hook>
    29e4:	08920d00 	j	2483400 <__memory_size+0x2463c00>
    29e8:	23010000 	addi	at,t8,0
    29ec:	000000ed 	0xed
    29f0:	0008b40d 	break	0x8,0x2d0
    29f4:	ed240100 	swc3	$4,256(t1)
    29f8:	00000000 	nop
    29fc:	000000c7 	0xc7
    2a00:	0aba0002 	j	ae80008 <__memory_size+0xae60808>
    2a04:	01040000 	0x1040000
    2a08:	00000b5a 	0xb5a
    2a0c:	00000020 	add	zero,zero,zero
    2a10:	6573752f 	0x6573752f
    2a14:	696d2f72 	0x696d2f72
    2a18:	77737370 	jalx	dcdcdc0 <__memory_size+0xdcbd5c0>
    2a1c:	69672f74 	0x69672f74
    2a20:	656e2f74 	0x656e2f74
    2a24:	62696c77 	0x62696c77
    2a28:	62696c2f 	0x62696c2f
    2a2c:	736f6c67 	0x736f6c67
    2a30:	696d2f73 	0x696d2f73
    2a34:	682f7370 	0x682f7370
    2a38:	6c2f6c61 	0x6c2f6c61
    2a3c:	6d2f6269 	0x6d2f6269
    2a40:	2f737069 	sltiu	s3,k1,28777
    2a44:	7370696d 	s16sdi	xr5,k1,52,
    2a48:	6378655f 	0x6378655f
    2a4c:	655f7470 	0x655f7470
    2a50:	7972746e 	0x7972746e
    2a54:	2f00532e 	sltiu	zero,t8,21294
    2a58:	72657375 	q16slr	xr13,xr12,xr5,xr9,9
    2a5c:	70696d2f 	0x70696d2f
    2a60:	74777373 	jalx	1ddcdcc <__memory_size+0x1dbd5cc>
    2a64:	6975622f 	0x6975622f
    2a68:	322d646c 	andi	t5,s1,0x646c
    2a6c:	2e353130 	sltiu	s5,s1,12592
    2a70:	302d3630 	andi	t5,at,0x3630
    2a74:	626f2f35 	0x626f2f35
    2a78:	72632d6a 	s16ldd	xr5,s3,406,ptn0
    2a7c:	2d73736f 	sltiu	s3,t3,29551
    2a80:	7370696d 	s16sdi	xr5,k1,52,
    2a84:	69746d2d 	0x69746d2d
    2a88:	666c652d 	0x666c652d
    2a8c:	77656e2f 	jalx	d95b8bc <__memory_size+0xd93c0bc>
    2a90:	2f62696c 	sltiu	v0,k1,26988
    2a94:	7370696d 	s16sdi	xr5,k1,52,
    2a98:	69746d2d 	0x69746d2d
    2a9c:	666c652d 	0x666c652d
    2aa0:	2f6c652f 	sltiu	t4,k1,25903
    2aa4:	2f666f73 	sltiu	a2,k1,28531
    2aa8:	6762696c 	0x6762696c
    2aac:	73736f6c 	s16ldi	xr13,k1,438,ptn2
    2ab0:	70696d2f 	0x70696d2f
    2ab4:	4e470073 	c3	0x470073
    2ab8:	53412055 	beql	k0,at,ac10 <__isr_vec_space+0xabf0>
    2abc:	322e3220 	andi	t6,s1,0x3220
    2ac0:	30392e34 	andi	t9,at,0x2e34
    2ac4:	71800100 	0x71800100
    2ac8:	0400000b 	bltz	zero,2af8 <__isr_vec_space+0x2ad8>
    2acc:	000acc00 	sll	t9,t2,0x10
    2ad0:	1e010400 	0x1e010400
    2ad4:	01000007 	srav	zero,zero,t0
    2ad8:	000009c0 	sll	at,zero,0x7
    2adc:	80000d0c 	lb	zero,3340(zero)
    2ae0:	000007a4 	0x7a4
    2ae4:	00000c62 	0xc62
    2ae8:	00068302 	srl	s0,a2,0xc
    2aec:	2cd40200 	sltiu	s4,a2,512
    2af0:	03000000 	0x3000000
    2af4:	01530704 	0x1530704
    2af8:	04040000 	0x4040000
    2afc:	746e6905 	jalx	1b9a414 <__memory_size+0x1b7ac14>
    2b00:	05040300 	0x5040300
    2b04:	000000ee 	0xee
    2b08:	0f060103 	jal	c18040c <__memory_size+0xc160c0c>
    2b0c:	03000002 	0x3000002
    2b10:	020d0801 	movt	at,s0,$fcc3
    2b14:	02030000 	0x2030000
    2b18:	00024405 	0x24405
    2b1c:	07020300 	bltzl	t8,3720 <__isr_vec_space+0x3700>
    2b20:	000000f7 	0xf7
    2b24:	00080402 	srl	zero,t0,0x10
    2b28:	3a370300 	xori	s7,s1,0x300
    2b2c:	02000000 	0x2000000
    2b30:	0000093f 	0x93f
    2b34:	002c3803 	0x2c3803
    2b38:	08030000 	j	c0000 <__memory_size+0xa0800>
    2b3c:	0000e905 	0xe905
    2b40:	07080300 	tgei	t8,768
    2b44:	0000014e 	0x14e
    2b48:	58070403 	0x58070403
    2b4c:	03000001 	movf	zero,t8,$fcc0
    2b50:	025a0704 	0x25a0704
    2b54:	01030000 	0x1030000
    2b58:	00021608 	0x21608
    2b5c:	9c040500 	0x9c040500
    2b60:	06000000 	bltz	s0,2b64 <__isr_vec_space+0x2b44>
    2b64:	0000008f 	sync	0x2
    2b68:	00a70405 	0xa70405
    2b6c:	08070000 	j	1c0000 <__memory_size+0x1a0800>
    2b70:	00000971 	tgeu	zero,zero,0x25
    2b74:	81038104 	lb	v1,-32508(t0)
    2b78:	08000000 	j	0 <hardware_exit_hook>
    2b7c:	00000970 	tge	zero,zero,0x25
    2b80:	33038204 	andi	v1,t8,0x8204
    2b84:	02000000 	0x2000000
    2b88:	00000806 	srlv	at,zero,zero
    2b8c:	005d4105 	0x5d4105
    2b90:	41020000 	mftc0	zero,c0_entrylo0
    2b94:	05000009 	bltz	t0,2bbc <__isr_vec_space+0x2b9c>
    2b98:	00006842 	srl	t5,zero,0x1
    2b9c:	067c0900 	0x67c0900
    2ba0:	000153ec 	0x153ec
    2ba4:	74610a00 	jalx	1842800 <__memory_size+0x1823000>
    2ba8:	a8ee0600 	swl	t6,1536(a3)
    2bac:	00000000 	nop
    2bb0:	0600760a 	bltz	s0,203dc <__memory_size+0xbdc>
    2bb4:	000153ef 	0x153ef
    2bb8:	610a0400 	0x610a0400
    2bbc:	63f40600 	0x63f40600
    2bc0:	0c000001 	jal	4 <ABIFlags_gpr_size>
    2bc4:	0600740a 	bltz	s0,1fbf0 <__memory_size+0x3f0>
    2bc8:	000173f5 	0x173f5
    2bcc:	730a1c00 	0x730a1c00
    2bd0:	73f70600 	0x73f70600
    2bd4:	3c000001 	lui	zero,0x1
    2bd8:	0032740a 	0x32740a
    2bdc:	0153f806 	srlv	ra,s3,t2
    2be0:	0a5c0000 	j	9700000 <__memory_size+0x96e0800>
    2be4:	f906006b 	sdc2	$6,107(t0)
    2be8:	00000153 	0x153
    2bec:	70670a64 	s8ldi	xr9,v1,-62,ptn1
    2bf0:	a8fa0600 	swl	k0,1536(a3)
    2bf4:	6c000000 	0x6c000000
    2bf8:	0070730a 	0x70730a
    2bfc:	00a8fb06 	0xa8fb06
    2c00:	0a700000 	j	9c00000 <__memory_size+0x9be0800>
    2c04:	06007066 	bltz	s0,1eda0 <__isr_vec_space+0x1ed80>
    2c08:	0000a8fc 	0xa8fc
    2c0c:	720a7400 	0x720a7400
    2c10:	fd060061 	sdc3	$6,97(t0)
    2c14:	000000a8 	0xa8
    2c18:	a80b0078 	swl	t3,120(zero)
    2c1c:	63000000 	0x63000000
    2c20:	0c000001 	jal	4 <ABIFlags_gpr_size>
    2c24:	00000088 	0x88
    2c28:	a80b0001 	swl	t3,1(zero)
    2c2c:	73000000 	madd	t8,zero
    2c30:	0c000001 	jal	4 <ABIFlags_gpr_size>
    2c34:	00000088 	0x88
    2c38:	a80b0003 	swl	t3,3(zero)
    2c3c:	83000000 	lb	zero,0(t8)
    2c40:	0c000001 	jal	4 <ABIFlags_gpr_size>
    2c44:	00000088 	0x88
    2c48:	7c0d0007 	0x7c0d0007
    2c4c:	019aea06 	0x19aea06
    2c50:	d60e0000 	ldc1	$f14,0(s0)
    2c54:	0f000000 	jal	c000000 <__memory_size+0xbfe0800>
    2c58:	ff060072 	sdc3	$6,114(t8)
    2c5c:	0000019a 	0x19a
    2c60:	00a80b00 	0xa80b00
    2c64:	01aa0000 	0x1aa0000
    2c68:	880c0000 	lwl	t4,0(zero)
    2c6c:	1e000000 	bgtz	s0,2c70 <__isr_vec_space+0x2c50>
    2c70:	095b1000 	j	56c4000 <__memory_size+0x56a4800>
    2c74:	06a00000 	bltz	s5,2c78 <__isr_vec_space+0x2c58>
    2c78:	000230e8 	0x230e8
    2c7c:	01831100 	0x1831100
    2c80:	12000000 	beqz	s0,2c84 <__isr_vec_space+0x2c64>
    2c84:	00637065 	0x637065
    2c88:	a8010206 	swl	at,518(zero)
    2c8c:	7c000000 	ext	zero,zero,0x0,0x1
    2c90:	00096113 	0x96113
    2c94:	01030600 	0x1030600
    2c98:	000000a8 	0xa8
    2c9c:	69681280 	0x69681280
    2ca0:	01040600 	0x1040600
    2ca4:	000000a8 	0xa8
    2ca8:	6f6c1284 	0x6f6c1284
    2cac:	01050600 	0x1050600
    2cb0:	000000a8 	0xa8
    2cb4:	094a1388 	j	5284e20 <__memory_size+0x5265620>
    2cb8:	07060000 	0x7060000
    2cbc:	00025701 	0x25701
    2cc0:	a6138c00 	sh	s3,-29696(s0)
    2cc4:	06000009 	bltz	s0,2cec <__isr_vec_space+0x2ccc>
    2cc8:	00cb010a 	0xcb010a
    2ccc:	13900000 	beq	gp,s0,2cd0 <__isr_vec_space+0x2cb0>
    2cd0:	00000909 	0x909
    2cd4:	cb010c06 	lwc2	$1,3078(t8)
    2cd8:	94000000 	lhu	zero,0(zero)
    2cdc:	0009b713 	0x9b713
    2ce0:	010d0600 	0x10d0600
    2ce4:	000000cb 	0xcb
    2ce8:	09ad1398 	j	6b44e60 <__memory_size+0x6b25660>
    2cec:	0e060000 	jal	8180000 <__memory_size+0x8160800>
    2cf0:	0000cb01 	0xcb01
    2cf4:	14009c00 	bnez	zero,fffe9cf8 <__entry+0x403e9cf8>
    2cf8:	00000937 	0x937
    2cfc:	01110608 	0x1110608
    2d00:	00000257 	0x257
    2d04:	00646912 	0x646912
    2d08:	a8011306 	swl	at,4870(zero)
    2d0c:	00000000 	nop
    2d10:	0004dc13 	0x4dc13
    2d14:	01140600 	0x1140600
    2d18:	00000257 	0x257
    2d1c:	04050004 	0x4050004
    2d20:	00000230 	tge	zero,zero,0x8
    2d24:	2a040803 	slti	a0,s0,2051
    2d28:	03000009 	jalr	zero,t8
    2d2c:	096a0404 	j	5a81010 <__memory_size+0x5a61810>
    2d30:	97150000 	lhu	s5,0(t8)
    2d34:	01000009 	jalr	zero,t0
    2d38:	02c50131 	tgeu	s6,a1,0x4
    2d3c:	70160000 	madd	zero,s6
    2d40:	01006572 	tlt	t0,zero,0x195
    2d44:	00009631 	tgeu	zero,zero,0x258
    2d48:	05311700 	bgezal	t1,894c <__isr_vec_space+0x892c>
    2d4c:	31010000 	andi	at,t0,0x0
    2d50:	000000a8 	0xa8
    2d54:	00099f17 	0x99f17
    2d58:	33310100 	andi	s1,t9,0x100
    2d5c:	17000000 	bnez	t8,2d60 <__isr_vec_space+0x2d40>
    2d60:	00000956 	0x956
    2d64:	00963101 	0x963101
    2d68:	62180000 	0x62180000
    2d6c:	01006675 	0x1006675
    2d70:	0002c533 	tltu	zero,v0,0x314
    2d74:	09311900 	j	4c46400 <__memory_size+0x4c26c00>
    2d78:	34010000 	li	at,0x0
    2d7c:	00000033 	tltu	zero,zero
    2d80:	78646918 	0x78646918
    2d84:	33350100 	andi	s5,t9,0x100
    2d88:	00000000 	nop
    2d8c:	00008f0b 	0x8f0b
    2d90:	0002d400 	sll	k0,v0,0x10
    2d94:	00881a00 	0x881a00
    2d98:	1b000000 	blez	t8,2d9c <__isr_vec_space+0x2d7c>
    2d9c:	0000026b 	0x26b
    2da0:	80000d0c 	lb	zero,3340(zero)
    2da4:	000000c0 	ehb
    2da8:	039c9c01 	0x39c9c01
    2dac:	771c0000 	jalx	c700000 <__memory_size+0xc6e0800>
    2db0:	60000002 	0x60000002
    2db4:	1c000005 	bgtz	zero,2dcc <__isr_vec_space+0x2dac>
    2db8:	00000282 	srl	zero,zero,0xa
    2dbc:	0000058c 	syscall	0x16
    2dc0:	0002981c 	0x2981c
    2dc4:	0005b800 	sll	s7,a1,0x0
    2dc8:	02a31d00 	0x2a31d00
    2dcc:	039c0000 	0x39c0000
    2dd0:	05e40000 	0x5e40000
    2dd4:	ae1e0000 	sw	s8,0(s0)
    2dd8:	1c000002 	bgtz	zero,2de4 <__isr_vec_space+0x2dc4>
    2ddc:	1e000006 	bgtz	s0,2df8 <__isr_vec_space+0x2dd8>
    2de0:	000002b9 	0x2b9
    2de4:	00000660 	0x660
    2de8:	00028d1f 	0x28d1f
    2dec:	38200800 	xori	zero,at,0x800
    2df0:	f180000d 	0xf180000d
    2df4:	3b00000a 	xori	zero,t8,0xa
    2df8:	21000003 	addi	zero,t0,3
    2dfc:	81025401 	lb	v0,21505(t0)
    2e00:	48200000 	0x48200000
    2e04:	0680000d 	bltz	s4,2e3c <__isr_vec_space+0x2e1c>
    2e08:	5400000b 	bnezl	zero,2e38 <__isr_vec_space+0x2e18>
    2e0c:	21000003 	addi	zero,t0,3
    2e10:	81025501 	lb	v0,21761(t0)
    2e14:	54012100 	bnel	zero,at,b218 <__isr_vec_space+0xb1f8>
    2e18:	20003101 	addi	zero,zero,12545
    2e1c:	80000d94 	lb	zero,3476(zero)
    2e20:	00000b06 	0xb06
    2e24:	00000372 	tlt	zero,zero,0xd
    2e28:	01560121 	0x1560121
    2e2c:	55012138 	bnel	t0,at,b310 <__isr_vec_space+0xb2f0>
    2e30:	21689102 	addi	t0,t3,-28414
    2e34:	31015401 	andi	at,t0,0x5401
    2e38:	0da42000 	jal	6908000 <__memory_size+0x68e8800>
    2e3c:	0af18000 	j	bc60000 <__memory_size+0xbc40800>
    2e40:	03860000 	0x3860000
    2e44:	01210000 	0x1210000
    2e48:	00800254 	0x800254
    2e4c:	0db42200 	jal	6d08800 <__memory_size+0x6ce9000>
    2e50:	0b068000 	j	c1a0000 <__memory_size+0xc180800>
    2e54:	01210000 	0x1210000
    2e58:	00800255 	0x800255
    2e5c:	01540121 	0x1540121
    2e60:	0b000031 	j	c0000c4 <__memory_size+0xbfe08c4>
    2e64:	0000008f 	sync	0x2
    2e68:	000003ad 	0x3ad
    2e6c:	00008823 	negu	s1,zero
    2e70:	00370100 	0x370100
    2e74:	0008e124 	0x8e124
    2e78:	cc430100 	pref	0x3,256(v0)
    2e7c:	0880000d 	j	2000034 <__memory_size+0x1fe0834>
    2e80:	01000000 	0x1000000
    2e84:	00040f9c 	0x40f9c
    2e88:	72702500 	0x72702500
    2e8c:	43010065 	c0	0x1010065
    2e90:	00000096 	0x96
    2e94:	0000067f 	0x67f
    2e98:	00053126 	0x53126
    2e9c:	a8430100 	swl	v1,256(v0)
    2ea0:	a0000000 	sb	zero,0(zero)
    2ea4:	26000006 	addiu	zero,s0,6
    2ea8:	00000956 	0x956
    2eac:	00964301 	0x964301
    2eb0:	06c10000 	bgez	s6,2eb4 <__isr_vec_space+0x2e94>
    2eb4:	d4270000 	ldc1	$f7,0(at)
    2eb8:	d480000d 	ldc1	$f0,13(a0)
    2ebc:	21000002 	addi	zero,t0,2
    2ec0:	f3035601 	0xf3035601
    2ec4:	01215601 	0x1215601
    2ec8:	01f30355 	0x1f30355
    2ecc:	54012155 	bnel	zero,at,b424 <__isr_vec_space+0xb404>
    2ed0:	5401f303 	bnel	zero,at,fffffae0 <__entry+0x403ffae0>
    2ed4:	0f280000 	jal	ca00000 <__memory_size+0xc9e0800>
    2ed8:	01000009 	jalr	zero,t0
    2edc:	000dd459 	0xdd459
    2ee0:	0006dc80 	sll	k1,a2,0x12
    2ee4:	ca9c0100 	lwc2	$28,256(s4)
    2ee8:	2500000a 	addiu	zero,t0,10
    2eec:	00787463 	0x787463
    2ef0:	0aca5901 	j	b296404 <__memory_size+0xb276c04>
    2ef4:	06e20000 	bltzl	s7,2ef8 <__isr_vec_space+0x2ed8>
    2ef8:	7d260000 	ext	a2,t1,0x0,0x1
    2efc:	01000009 	jalr	zero,t0
    2f00:	00003359 	0x3359
    2f04:	0009b800 	sll	s7,t1,0x0
    2f08:	0fb82900 	jal	ee0a400 <__memory_size+0xedeac00>
    2f0c:	00048000 	sll	s0,a0,0x0
    2f10:	045f0000 	synci	0(v0)
    2f14:	5f2a0000 	0x5f2a0000
    2f18:	0100725f 	0x100725f
    2f1c:	000081b2 	tlt	zero,zero,0x206
    2f20:	000bff00 	sll	ra,t3,0x1c
    2f24:	c8290000 	lwc2	$9,0(at)
    2f28:	0480000f 	bltz	a0,2f68 <__isr_vec_space+0x2f48>
    2f2c:	7c000000 	ext	zero,zero,0x0,0x1
    2f30:	2a000004 	slti	zero,s0,4
    2f34:	00725f5f 	0x725f5f
    2f38:	0081b301 	0x81b301
    2f3c:	0c120000 	jal	480000 <__memory_size+0x460800>
    2f40:	29000000 	slti	zero,t0,0
    2f44:	80000fdc 	lb	zero,4060(zero)
    2f48:	00000020 	add	zero,zero,zero
    2f4c:	000004c2 	srl	zero,zero,0x13
    2f50:	00727318 	0x727318
    2f54:	0081b501 	0x81b501
    2f58:	dc290000 	ldc3	$9,0(at)
    2f5c:	0480000f 	bltz	a0,2f9c <__isr_vec_space+0x2f7c>
    2f60:	ac000000 	sw	zero,0(zero)
    2f64:	18000004 	blez	zero,2f78 <__isr_vec_space+0x2f58>
    2f68:	00725f5f 	0x725f5f
    2f6c:	0081b501 	0x81b501
    2f70:	2b000000 	slti	zero,t8,0
    2f74:	80000ff0 	lb	zero,4080(zero)
    2f78:	00000004 	sllv	zero,zero,zero
    2f7c:	725f5f18 	udi8	s2,ra,t3,0x1c
    2f80:	81b80100 	lb	t8,256(t5)
    2f84:	00000000 	nop
    2f88:	101c2900 	beq	zero,gp,d38c <__isr_vec_space+0xd36c>
    2f8c:	00048000 	sll	s0,a0,0x0
    2f90:	04df0000 	synci	0(a2)
    2f94:	5f2a0000 	0x5f2a0000
    2f98:	0100725f 	0x100725f
    2f9c:	000081c2 	srl	s0,zero,0x7
    2fa0:	000c2500 	sll	a0,t4,0x14
    2fa4:	2c290000 	sltiu	t1,at,0
    2fa8:	04800010 	bltz	a0,2fec <__isr_vec_space+0x2fcc>
    2fac:	fc000000 	sdc3	$0,0(zero)
    2fb0:	2a000004 	slti	zero,s0,4
    2fb4:	00725f5f 	0x725f5f
    2fb8:	0081c301 	0x81c301
    2fbc:	0c380000 	jal	e00000 <__memory_size+0xde0800>
    2fc0:	29000000 	slti	zero,t0,0
    2fc4:	80001040 	lb	zero,4160(zero)
    2fc8:	00000020 	add	zero,zero,zero
    2fcc:	00000542 	srl	zero,zero,0x15
    2fd0:	00727318 	0x727318
    2fd4:	0081c501 	0x81c501
    2fd8:	40290000 	0x40290000
    2fdc:	04800010 	bltz	a0,3020 <__isr_vec_space+0x3000>
    2fe0:	2c000000 	sltiu	zero,zero,0
    2fe4:	18000005 	blez	zero,2ffc <__isr_vec_space+0x2fdc>
    2fe8:	00725f5f 	0x725f5f
    2fec:	0081c501 	0x81c501
    2ff0:	2b000000 	slti	zero,t8,0
    2ff4:	80001054 	lb	zero,4180(zero)
    2ff8:	00000004 	sllv	zero,zero,zero
    2ffc:	725f5f18 	udi8	s2,ra,t3,0x1c
    3000:	81c80100 	lb	t0,256(t6)
    3004:	00000000 	nop
    3008:	0e502000 	jal	9408000 <__memory_size+0x93e8800>
    300c:	03ad8000 	0x3ad8000
    3010:	05550000 	0x5550000
    3014:	01210000 	0x1210000
    3018:	00300156 	0x300156
    301c:	000e802c 	0xe802c
    3020:	000b0680 	sll	zero,t3,0x1a
    3024:	0ee02c00 	jal	b80b000 <__memory_size+0xb7eb800>
    3028:	0b068000 	j	c1a0000 <__memory_size+0xc180800>
    302c:	20200000 	addi	zero,at,0
    3030:	2580000f 	addiu	zero,t4,15
    3034:	7b00000b 	0x7b00000b
    3038:	21000005 	addi	zero,t0,5
    303c:	80025401 	lb	v0,21505(zero)
    3040:	442c0000 	0x442c0000
    3044:	3b80000f 	xori	zero,gp,0xf
    3048:	2000000b 	addi	zero,zero,11
    304c:	80000f54 	lb	zero,3924(zero)
    3050:	00000b47 	0xb47
    3054:	00000598 	0x598
    3058:	02540121 	0x2540121
    305c:	20000080 	addi	zero,zero,128
    3060:	8000115c 	lb	zero,4444(zero)
    3064:	000003ad 	0x3ad
    3068:	000005af 	0x5af
    306c:	05560121 	0x5560121
    3070:	001e0403 	sra	zero,s8,0x10
    3074:	78200080 	andi.b	$w2,$w0,0x20
    3078:	ad800011 	sw	zero,17(t4)
    307c:	d4000003 	ldc1	$f0,3(zero)
    3080:	21000005 	addi	zero,t0,5
    3084:	03055601 	0x3055601
    3088:	80001e38 	lb	zero,7736(zero)
    308c:	01550121 	0x1550121
    3090:	54012130 	bnel	zero,at,b554 <__isr_vec_space+0xb534>
    3094:	1e300305 	0x1e300305
    3098:	20008000 	addi	zero,zero,-32768
    309c:	8000118c 	lb	zero,4492(zero)
    30a0:	000003ad 	0x3ad
    30a4:	000005f4 	teq	zero,zero,0x17
    30a8:	05560121 	0x5560121
    30ac:	001e3803 	sra	a3,s8,0x0
    30b0:	54012180 	bnel	zero,at,b6b4 <__isr_vec_space+0xb694>
    30b4:	1e3c0305 	0x1e3c0305
    30b8:	20008000 	addi	zero,zero,-32768
    30bc:	800011a0 	lb	zero,4512(zero)
    30c0:	000003ad 	0x3ad
    30c4:	00000614 	0x614
    30c8:	05560121 	0x5560121
    30cc:	001e3803 	sra	a3,s8,0x0
    30d0:	54012180 	bnel	zero,at,b6d4 <__isr_vec_space+0xb6b4>
    30d4:	1e440305 	0x1e440305
    30d8:	20008000 	addi	zero,zero,-32768
    30dc:	800011b4 	lb	zero,4532(zero)
    30e0:	000003ad 	0x3ad
    30e4:	00000634 	teq	zero,zero,0x18
    30e8:	05560121 	0x5560121
    30ec:	001e0403 	sra	zero,s8,0x10
    30f0:	54012180 	bnel	zero,at,b6f4 <__isr_vec_space+0xb6d4>
    30f4:	1e4c0305 	0x1e4c0305
    30f8:	20008000 	addi	zero,zero,-32768
    30fc:	800011c8 	lb	zero,4552(zero)
    3100:	000003ad 	0x3ad
    3104:	00000654 	0x654
    3108:	05560121 	0x5560121
    310c:	001e3803 	sra	a3,s8,0x0
    3110:	54012180 	bnel	zero,at,b714 <__isr_vec_space+0xb6f4>
    3114:	1e540305 	0x1e540305
    3118:	20008000 	addi	zero,zero,-32768
    311c:	800011dc 	lb	zero,4572(zero)
    3120:	000003ad 	0x3ad
    3124:	00000674 	teq	zero,zero,0x19
    3128:	05560121 	0x5560121
    312c:	001e3803 	sra	a3,s8,0x0
    3130:	54012180 	bnel	zero,at,b734 <__isr_vec_space+0xb714>
    3134:	1e5c0305 	0x1e5c0305
    3138:	20008000 	addi	zero,zero,-32768
    313c:	800011f0 	lb	zero,4592(zero)
    3140:	000003ad 	0x3ad
    3144:	00000694 	0x694
    3148:	05560121 	0x5560121
    314c:	001e3803 	sra	a3,s8,0x0
    3150:	54012180 	bnel	zero,at,b754 <__isr_vec_space+0xb734>
    3154:	1e640305 	0x1e640305
    3158:	20008000 	addi	zero,zero,-32768
    315c:	80001204 	lb	zero,4612(zero)
    3160:	000003ad 	0x3ad
    3164:	000006b4 	teq	zero,zero,0x1a
    3168:	05560121 	0x5560121
    316c:	001e0403 	sra	zero,s8,0x10
    3170:	54012180 	bnel	zero,at,b774 <__isr_vec_space+0xb754>
    3174:	1e6c0305 	0x1e6c0305
    3178:	20008000 	addi	zero,zero,-32768
    317c:	80001218 	lb	zero,4632(zero)
    3180:	000003ad 	0x3ad
    3184:	000006d4 	0x6d4
    3188:	05560121 	0x5560121
    318c:	001e3803 	sra	a3,s8,0x0
    3190:	54012180 	bnel	zero,at,b794 <__isr_vec_space+0xb774>
    3194:	1e740305 	0x1e740305
    3198:	20008000 	addi	zero,zero,-32768
    319c:	8000122c 	lb	zero,4652(zero)
    31a0:	000003ad 	0x3ad
    31a4:	000006f4 	teq	zero,zero,0x1b
    31a8:	05560121 	0x5560121
    31ac:	001e3803 	sra	a3,s8,0x0
    31b0:	54012180 	bnel	zero,at,b7b4 <__isr_vec_space+0xb794>
    31b4:	1e7c0305 	0x1e7c0305
    31b8:	20008000 	addi	zero,zero,-32768
    31bc:	80001240 	lb	zero,4672(zero)
    31c0:	000003ad 	0x3ad
    31c4:	00000714 	0x714
    31c8:	05560121 	0x5560121
    31cc:	001e3803 	sra	a3,s8,0x0
    31d0:	54012180 	bnel	zero,at,b7d4 <__isr_vec_space+0xb7b4>
    31d4:	1e840305 	0x1e840305
    31d8:	20008000 	addi	zero,zero,-32768
    31dc:	80001254 	lb	zero,4692(zero)
    31e0:	000003ad 	0x3ad
    31e4:	00000734 	teq	zero,zero,0x1c
    31e8:	05560121 	0x5560121
    31ec:	001e0403 	sra	zero,s8,0x10
    31f0:	54012180 	bnel	zero,at,b7f4 <__isr_vec_space+0xb7d4>
    31f4:	1e8c0305 	0x1e8c0305
    31f8:	20008000 	addi	zero,zero,-32768
    31fc:	80001268 	lb	zero,4712(zero)
    3200:	000003ad 	0x3ad
    3204:	00000754 	0x754
    3208:	05560121 	0x5560121
    320c:	001e3803 	sra	a3,s8,0x0
    3210:	54012180 	bnel	zero,at,b814 <__isr_vec_space+0xb7f4>
    3214:	1e940305 	0x1e940305
    3218:	20008000 	addi	zero,zero,-32768
    321c:	8000127c 	lb	zero,4732(zero)
    3220:	000003ad 	0x3ad
    3224:	00000774 	teq	zero,zero,0x1d
    3228:	05560121 	0x5560121
    322c:	001e3803 	sra	a3,s8,0x0
    3230:	54012180 	bnel	zero,at,b834 <__isr_vec_space+0xb814>
    3234:	1e9c0305 	0x1e9c0305
    3238:	20008000 	addi	zero,zero,-32768
    323c:	80001290 	lb	zero,4752(zero)
    3240:	000003ad 	0x3ad
    3244:	00000794 	0x794
    3248:	05560121 	0x5560121
    324c:	001e3803 	sra	a3,s8,0x0
    3250:	54012180 	bnel	zero,at,b854 <__isr_vec_space+0xb834>
    3254:	1ea40305 	0x1ea40305
    3258:	20008000 	addi	zero,zero,-32768
    325c:	800012a4 	lb	zero,4772(zero)
    3260:	000003ad 	0x3ad
    3264:	000007b4 	teq	zero,zero,0x1e
    3268:	05560121 	0x5560121
    326c:	001e0403 	sra	zero,s8,0x10
    3270:	54012180 	bnel	zero,at,b874 <__isr_vec_space+0xb854>
    3274:	1eac0305 	0x1eac0305
    3278:	20008000 	addi	zero,zero,-32768
    327c:	800012b8 	lb	zero,4792(zero)
    3280:	000003ad 	0x3ad
    3284:	000007d4 	0x7d4
    3288:	05560121 	0x5560121
    328c:	001e3803 	sra	a3,s8,0x0
    3290:	54012180 	bnel	zero,at,b894 <__isr_vec_space+0xb874>
    3294:	1eb40305 	0x1eb40305
    3298:	20008000 	addi	zero,zero,-32768
    329c:	800012cc 	lb	zero,4812(zero)
    32a0:	000003ad 	0x3ad
    32a4:	000007f4 	teq	zero,zero,0x1f
    32a8:	05560121 	0x5560121
    32ac:	001e3803 	sra	a3,s8,0x0
    32b0:	54012180 	bnel	zero,at,b8b4 <__isr_vec_space+0xb894>
    32b4:	1ebc0305 	0x1ebc0305
    32b8:	20008000 	addi	zero,zero,-32768
    32bc:	800012e0 	lb	zero,4832(zero)
    32c0:	000003ad 	0x3ad
    32c4:	00000814 	0x814
    32c8:	05560121 	0x5560121
    32cc:	001e3803 	sra	a3,s8,0x0
    32d0:	54012180 	bnel	zero,at,b8d4 <__isr_vec_space+0xb8b4>
    32d4:	1ec40305 	0x1ec40305
    32d8:	20008000 	addi	zero,zero,-32768
    32dc:	800012f4 	lb	zero,4852(zero)
    32e0:	000003ad 	0x3ad
    32e4:	00000834 	teq	zero,zero,0x20
    32e8:	05560121 	0x5560121
    32ec:	001e0403 	sra	zero,s8,0x10
    32f0:	54012180 	bnel	zero,at,b8f4 <__isr_vec_space+0xb8d4>
    32f4:	1ecc0305 	0x1ecc0305
    32f8:	20008000 	addi	zero,zero,-32768
    32fc:	80001308 	lb	zero,4872(zero)
    3300:	000003ad 	0x3ad
    3304:	00000854 	0x854
    3308:	05560121 	0x5560121
    330c:	001e3803 	sra	a3,s8,0x0
    3310:	54012180 	bnel	zero,at,b914 <__isr_vec_space+0xb8f4>
    3314:	1ed40305 	0x1ed40305
    3318:	20008000 	addi	zero,zero,-32768
    331c:	8000131c 	lb	zero,4892(zero)
    3320:	000003ad 	0x3ad
    3324:	00000874 	teq	zero,zero,0x21
    3328:	05560121 	0x5560121
    332c:	001e3803 	sra	a3,s8,0x0
    3330:	54012180 	bnel	zero,at,b934 <__isr_vec_space+0xb914>
    3334:	1edc0305 	0x1edc0305
    3338:	20008000 	addi	zero,zero,-32768
    333c:	80001330 	lb	zero,4912(zero)
    3340:	000003ad 	0x3ad
    3344:	00000894 	0x894
    3348:	05560121 	0x5560121
    334c:	001e3803 	sra	a3,s8,0x0
    3350:	54012180 	bnel	zero,at,b954 <__isr_vec_space+0xb934>
    3354:	1ee40305 	0x1ee40305
    3358:	20008000 	addi	zero,zero,-32768
    335c:	80001344 	lb	zero,4932(zero)
    3360:	000003ad 	0x3ad
    3364:	000008b4 	teq	zero,zero,0x22
    3368:	05560121 	0x5560121
    336c:	001e0403 	sra	zero,s8,0x10
    3370:	54012180 	bnel	zero,at,b974 <__isr_vec_space+0xb954>
    3374:	1eec0305 	0x1eec0305
    3378:	20008000 	addi	zero,zero,-32768
    337c:	80001358 	lb	zero,4952(zero)
    3380:	000003ad 	0x3ad
    3384:	000008d4 	0x8d4
    3388:	05560121 	0x5560121
    338c:	001e3803 	sra	a3,s8,0x0
    3390:	54012180 	bnel	zero,at,b994 <__isr_vec_space+0xb974>
    3394:	1ef40305 	0x1ef40305
    3398:	20008000 	addi	zero,zero,-32768
    339c:	8000136c 	lb	zero,4972(zero)
    33a0:	000003ad 	0x3ad
    33a4:	000008f4 	teq	zero,zero,0x23
    33a8:	05560121 	0x5560121
    33ac:	001e3803 	sra	a3,s8,0x0
    33b0:	54012180 	bnel	zero,at,b9b4 <__isr_vec_space+0xb994>
    33b4:	1efc0305 	0x1efc0305
    33b8:	20008000 	addi	zero,zero,-32768
    33bc:	80001380 	lb	zero,4992(zero)
    33c0:	000003ad 	0x3ad
    33c4:	00000914 	0x914
    33c8:	05560121 	0x5560121
    33cc:	001e3803 	sra	a3,s8,0x0
    33d0:	54012180 	bnel	zero,at,b9d4 <__isr_vec_space+0xb9b4>
    33d4:	1f040305 	0x1f040305
    33d8:	20008000 	addi	zero,zero,-32768
    33dc:	80001394 	lb	zero,5012(zero)
    33e0:	000003ad 	0x3ad
    33e4:	00000934 	teq	zero,zero,0x24
    33e8:	05560121 	0x5560121
    33ec:	001e0403 	sra	zero,s8,0x10
    33f0:	54012180 	bnel	zero,at,b9f4 <__isr_vec_space+0xb9d4>
    33f4:	1f0c0305 	0x1f0c0305
    33f8:	20008000 	addi	zero,zero,-32768
    33fc:	800013a8 	lb	zero,5032(zero)
    3400:	000003ad 	0x3ad
    3404:	00000954 	0x954
    3408:	05560121 	0x5560121
    340c:	001e3803 	sra	a3,s8,0x0
    3410:	54012180 	bnel	zero,at,ba14 <__isr_vec_space+0xb9f4>
    3414:	1f140305 	0x1f140305
    3418:	20008000 	addi	zero,zero,-32768
    341c:	800013bc 	lb	zero,5052(zero)
    3420:	000003ad 	0x3ad
    3424:	00000974 	teq	zero,zero,0x25
    3428:	05560121 	0x5560121
    342c:	001e3803 	sra	a3,s8,0x0
    3430:	54012180 	bnel	zero,at,ba34 <__isr_vec_space+0xba14>
    3434:	1f1c0305 	0x1f1c0305
    3438:	20008000 	addi	zero,zero,-32768
    343c:	800013d0 	lb	zero,5072(zero)
    3440:	000003ad 	0x3ad
    3444:	00000994 	0x994
    3448:	05560121 	0x5560121
    344c:	001e3803 	sra	a3,s8,0x0
    3450:	54012180 	bnel	zero,at,ba54 <__isr_vec_space+0xba34>
    3454:	1f240305 	0x1f240305
    3458:	20008000 	addi	zero,zero,-32768
    345c:	800013e4 	lb	zero,5092(zero)
    3460:	000003ad 	0x3ad
    3464:	000009b4 	teq	zero,zero,0x26
    3468:	05560121 	0x5560121
    346c:	001e0403 	sra	zero,s8,0x10
    3470:	54012180 	bnel	zero,at,ba74 <__isr_vec_space+0xba54>
    3474:	1f2c0305 	0x1f2c0305
    3478:	20008000 	addi	zero,zero,-32768
    347c:	800013f8 	lb	zero,5112(zero)
    3480:	000003ad 	0x3ad
    3484:	000009d4 	0x9d4
    3488:	05560121 	0x5560121
    348c:	001e3803 	sra	a3,s8,0x0
    3490:	54012180 	bnel	zero,at,ba94 <__isr_vec_space+0xba74>
    3494:	1f340305 	0x1f340305
    3498:	20008000 	addi	zero,zero,-32768
    349c:	8000140c 	lb	zero,5132(zero)
    34a0:	000003ad 	0x3ad
    34a4:	000009f4 	teq	zero,zero,0x27
    34a8:	05560121 	0x5560121
    34ac:	001e0403 	sra	zero,s8,0x10
    34b0:	54012180 	bnel	zero,at,bab4 <__isr_vec_space+0xba94>
    34b4:	1f3c0305 	0x1f3c0305
    34b8:	20008000 	addi	zero,zero,-32768
    34bc:	80001420 	lb	zero,5152(zero)
    34c0:	000003ad 	0x3ad
    34c4:	00000a14 	0xa14
    34c8:	05560121 	0x5560121
    34cc:	001e0403 	sra	zero,s8,0x10
    34d0:	54012180 	bnel	zero,at,bad4 <__isr_vec_space+0xbab4>
    34d4:	1f440305 	0x1f440305
    34d8:	20008000 	addi	zero,zero,-32768
    34dc:	80001434 	lb	zero,5172(zero)
    34e0:	000003ad 	0x3ad
    34e4:	00000a34 	teq	zero,zero,0x28
    34e8:	05560121 	0x5560121
    34ec:	001e0403 	sra	zero,s8,0x10
    34f0:	54012180 	bnel	zero,at,baf4 <__isr_vec_space+0xbad4>
    34f4:	1f500305 	0x1f500305
    34f8:	20008000 	addi	zero,zero,-32768
    34fc:	80001448 	lb	zero,5192(zero)
    3500:	000002d4 	0x2d4
    3504:	00000a54 	0xa54
    3508:	05560121 	0x5560121
    350c:	001e0403 	sra	zero,s8,0x10
    3510:	54012180 	bnel	zero,at,bb14 <__isr_vec_space+0xbaf4>
    3514:	1f5c0305 	0x1f5c0305
    3518:	20008000 	addi	zero,zero,-32768
    351c:	8000145c 	lb	zero,5212(zero)
    3520:	000002d4 	0x2d4
    3524:	00000a74 	teq	zero,zero,0x29
    3528:	05560121 	0x5560121
    352c:	001e0403 	sra	zero,s8,0x10
    3530:	54012180 	bnel	zero,at,bb34 <__isr_vec_space+0xbb14>
    3534:	1f680305 	0x1f680305
    3538:	20008000 	addi	zero,zero,-32768
    353c:	80001470 	lb	zero,5232(zero)
    3540:	000002d4 	0x2d4
    3544:	00000a94 	0xa94
    3548:	05560121 	0x5560121
    354c:	001e0403 	sra	zero,s8,0x10
    3550:	54012180 	bnel	zero,at,bb54 <__isr_vec_space+0xbb34>
    3554:	1f740305 	0x1f740305
    3558:	20008000 	addi	zero,zero,-32768
    355c:	80001484 	lb	zero,5252(zero)
    3560:	000002d4 	0x2d4
    3564:	00000ab4 	teq	zero,zero,0x2a
    3568:	05560121 	0x5560121
    356c:	001e0403 	sra	zero,s8,0x10
    3570:	54012180 	bnel	zero,at,bb74 <__isr_vec_space+0xbb54>
    3574:	1f800305 	bgtz	gp,418c <__isr_vec_space+0x416c>
    3578:	22008000 	addi	zero,s0,-32768
    357c:	80001490 	lb	zero,5264(zero)
    3580:	00000b5d 	0xb5d
    3584:	01550121 	0x1550121
    3588:	54012130 	bnel	zero,at,ba4c <__isr_vec_space+0xba2c>
    358c:	00008002 	srl	s0,zero,0x0
    3590:	aa040500 	swl	a0,1280(s0)
    3594:	0b000001 	j	c000004 <__memory_size+0xbfe0804>
    3598:	0000008f 	sync	0x2
    359c:	00000adb 	0xadb
    35a0:	f32e002d 	0xf32e002d
    35a4:	01000007 	srav	zero,zero,t0
    35a8:	000ad029 	0xad029
    35ac:	09872e00 	j	61cb800 <__memory_size+0x61ac000>
    35b0:	2a010000 	slti	at,s0,0
    35b4:	00000ad0 	0xad0
    35b8:	00094f2f 	0x94f2f
    35bc:	21210700 	addi	at,t1,1792
    35c0:	06000000 	bltz	s0,35c4 <__isr_vec_space+0x35a4>
    35c4:	3000000b 	andi	zero,zero,0xb
    35c8:	00000096 	0x96
    35cc:	04392f00 	0x4392f00
    35d0:	bd080000 	cache	0x8,0(t0)
    35d4:	00000033 	tltu	zero,zero
    35d8:	00000b25 	0xb25
    35dc:	00003330 	tge	zero,zero,0xcc
    35e0:	00a13000 	0xa13000
    35e4:	21300000 	addi	s0,t1,0
    35e8:	00000000 	nop
    35ec:	0008e831 	tgeu	zero,t0,0x3a0
    35f0:	01920600 	0x1920600
    35f4:	00000033 	tltu	zero,zero
    35f8:	00000b3b 	0xb3b
    35fc:	000aca30 	tge	zero,t2,0x328
    3600:	45320000 	0x45320000
    3604:	06000008 	bltz	s0,3628 <__isr_vec_space+0x3608>
    3608:	00330191 	0x330191
    360c:	fa310000 	sdc2	$17,0(s1)
    3610:	06000008 	bltz	s0,3634 <__isr_vec_space+0x3614>
    3614:	00330187 	0x330187
    3618:	0b5d0000 	j	d740000 <__memory_size+0xd720800>
    361c:	ca300000 	lwc2	$16,0(s1)
    3620:	0000000a 	movz	zero,zero,zero
    3624:	00097733 	tltu	zero,t1,0x1dc
    3628:	018a0600 	0x18a0600
    362c:	000000c0 	ehb
    3630:	000aca30 	tge	zero,t2,0x328
    3634:	00c03000 	0xc03000
    3638:	00000000 	nop
    363c:	000000ce 	0xce
    3640:	0d610002 	jal	5840008 <__memory_size+0x5820808>
    3644:	01040000 	0x1040000
    3648:	00000f1d 	0xf1d
    364c:	800014b0 	lb	zero,5296(zero)
    3650:	80001564 	lb	zero,5476(zero)
    3654:	6573752f 	0x6573752f
    3658:	696d2f72 	0x696d2f72
    365c:	77737370 	jalx	dcdcdc0 <__memory_size+0xdcbd5c0>
    3660:	69672f74 	0x69672f74
    3664:	656e2f74 	0x656e2f74
    3668:	62696c77 	0x62696c77
    366c:	62696c2f 	0x62696c2f
    3670:	736f6c67 	0x736f6c67
    3674:	696d2f73 	0x696d2f73
    3678:	682f7370 	0x682f7370
    367c:	6c2f6c61 	0x6c2f6c61
    3680:	6d2f6269 	0x6d2f6269
    3684:	2f737069 	sltiu	s3,k1,28777
    3688:	7370696d 	s16sdi	xr5,k1,52,
    368c:	6378655f 	0x6378655f
    3690:	725f7470 	d32sll	xr1,xr13,xr13,xr7,9
    3694:	73696765 	s8sdi	xr13,k1,89,ptn2
    3698:	2e726574 	sltiu	s2,s3,25972
    369c:	752f0053 	jalx	4bc014c <__memory_size+0x4ba094c>
    36a0:	2f726573 	sltiu	s2,k1,25971
    36a4:	7370696d 	s16sdi	xr5,k1,52,
    36a8:	2f747773 	sltiu	s4,k1,30579
    36ac:	6c697562 	0x6c697562
    36b0:	30322d64 	andi	s2,at,0x2d64
    36b4:	302e3531 	andi	t6,at,0x3531
    36b8:	35302d36 	ori	s0,t1,0x2d36
    36bc:	6a626f2f 	0x6a626f2f
    36c0:	6f72632d 	0x6f72632d
    36c4:	6d2d7373 	0x6d2d7373
    36c8:	2d737069 	sltiu	s3,t3,28777
    36cc:	2d69746d 	sltiu	t1,t3,29805
    36d0:	2f666c65 	sltiu	a2,k1,27749
    36d4:	6c77656e 	0x6c77656e
    36d8:	6d2f6269 	0x6d2f6269
    36dc:	2d737069 	sltiu	s3,t3,28777
    36e0:	2d69746d 	sltiu	t1,t3,29805
    36e4:	2f666c65 	sltiu	a2,k1,27749
    36e8:	732f6c65 	s8sdi	xr1,t9,-37,ptn3
    36ec:	6c2f666f 	0x6c2f666f
    36f0:	6c676269 	0x6c676269
    36f4:	2f73736f 	sltiu	s3,k1,29551
    36f8:	7370696d 	s16sdi	xr5,k1,52,
    36fc:	554e4700 	bnel	t2,t6,15300 <__isr_vec_space+0x152e0>
    3700:	20534120 	addi	s3,v0,16672
    3704:	34322e32 	ori	s2,at,0x2e32
    3708:	0030392e 	0x30392e
    370c:	00ca8001 	0xca8001
    3710:	00020000 	sll	zero,v0,0x0
    3714:	00000d75 	0xd75
    3718:	0fb90104 	jal	ee40410 <__memory_size+0xee20c10>
    371c:	15640000 	bne	t3,a0,3720 <__isr_vec_space+0x3700>
    3720:	17e08000 	bnez	ra,fffe3724 <__entry+0x403e3724>
    3724:	752f8000 	jalx	4be0000 <__memory_size+0x4bc0800>
    3728:	2f726573 	sltiu	s2,k1,25971
    372c:	7370696d 	s16sdi	xr5,k1,52,
    3730:	2f747773 	sltiu	s4,k1,30579
    3734:	2f746967 	sltiu	s4,k1,26983
    3738:	6c77656e 	0x6c77656e
    373c:	6c2f6269 	0x6c2f6269
    3740:	6c676269 	0x6c676269
    3744:	2f73736f 	sltiu	s3,k1,29551
    3748:	7370696d 	s16sdi	xr5,k1,52,
    374c:	6c61682f 	0x6c61682f
    3750:	62696c2f 	0x62696c2f
    3754:	70696d2f 	0x70696d2f
    3758:	696d2f73 	0x696d2f73
    375c:	655f7370 	0x655f7370
    3760:	74706378 	jalx	1c18de0 <__memory_size+0x1bf95e0>
    3764:	6f6f625f 	0x6f6f625f
    3768:	00532e74 	teq	v0,s3,0xb9
    376c:	6573752f 	0x6573752f
    3770:	696d2f72 	0x696d2f72
    3774:	77737370 	jalx	dcdcdc0 <__memory_size+0xdcbd5c0>
    3778:	75622f74 	jalx	588bdd0 <__memory_size+0x586c5d0>
    377c:	2d646c69 	sltiu	a0,t3,27753
    3780:	35313032 	ori	s1,t1,0x3032
    3784:	2d36302e 	sltiu	s6,t1,12334
    3788:	6f2f3530 	0x6f2f3530
    378c:	632d6a62 	0x632d6a62
    3790:	73736f72 	0x73736f72
    3794:	70696d2d 	s16sdi	xr4,v1,182,ptn1
    3798:	746d2d73 	jalx	1b4b5cc <__memory_size+0x1b2bdcc>
    379c:	6c652d69 	0x6c652d69
    37a0:	656e2f66 	0x656e2f66
    37a4:	62696c77 	0x62696c77
    37a8:	70696d2f 	0x70696d2f
    37ac:	746d2d73 	jalx	1b4b5cc <__memory_size+0x1b2bdcc>
    37b0:	6c652d69 	0x6c652d69
    37b4:	6c652f66 	0x6c652f66
    37b8:	666f732f 	0x666f732f
    37bc:	62696c2f 	0x62696c2f
    37c0:	736f6c67 	0x736f6c67
    37c4:	696d2f73 	0x696d2f73
    37c8:	47007370 	bz.b	$w0,2058c <__memory_size+0xd8c>
    37cc:	4120554e 	0x4120554e
    37d0:	2e322053 	sltiu	s2,s1,8275
    37d4:	392e3432 	xori	t6,t1,0x3432
    37d8:	80010030 	lb	at,48(zero)
    37dc:	000000c9 	0xc9
    37e0:	0d890002 	jal	6240008 <__memory_size+0x6220808>
    37e4:	01040000 	0x1040000
    37e8:	000010c6 	0x10c6
    37ec:	80000200 	lb	zero,512(zero)
    37f0:	80000318 	lb	zero,792(zero)
    37f4:	6573752f 	0x6573752f
    37f8:	696d2f72 	0x696d2f72
    37fc:	77737370 	jalx	dcdcdc0 <__memory_size+0xdcbd5c0>
    3800:	69672f74 	0x69672f74
    3804:	656e2f74 	0x656e2f74
    3808:	62696c77 	0x62696c77
    380c:	62696c2f 	0x62696c2f
    3810:	736f6c67 	0x736f6c67
    3814:	696d2f73 	0x696d2f73
    3818:	682f7370 	0x682f7370
    381c:	6c2f6c61 	0x6c2f6c61
    3820:	6d2f6269 	0x6d2f6269
    3824:	2f737069 	sltiu	s3,k1,28777
    3828:	7370696d 	s16sdi	xr5,k1,52,
    382c:	6378655f 	0x6378655f
    3830:	695f7470 	0x695f7470
    3834:	532e7273 	beql	t9,t6,20204 <__memory_size+0xa04>
    3838:	73752f00 	0x73752f00
    383c:	6d2f7265 	0x6d2f7265
    3840:	73737069 	0x73737069
    3844:	622f7477 	0x622f7477
    3848:	646c6975 	0x646c6975
    384c:	3130322d 	andi	s0,t1,0x322d
    3850:	36302e35 	ori	s0,s1,0x2e35
    3854:	2f35302d 	sltiu	s5,t9,12333
    3858:	2d6a626f 	sltiu	t2,t3,25199
    385c:	736f7263 	s8std	xr9,k1,-36,ptn3
    3860:	696d2d73 	0x696d2d73
    3864:	6d2d7370 	0x6d2d7370
    3868:	652d6974 	0x652d6974
    386c:	6e2f666c 	0x6e2f666c
    3870:	696c7765 	0x696c7765
    3874:	696d2f62 	0x696d2f62
    3878:	6d2d7370 	0x6d2d7370
    387c:	652d6974 	0x652d6974
    3880:	652f666c 	0x652f666c
    3884:	6f732f6c 	0x6f732f6c
    3888:	696c2f66 	0x696c2f66
    388c:	6f6c6762 	0x6f6c6762
    3890:	6d2f7373 	0x6d2f7373
    3894:	00737069 	0x737069
    3898:	20554e47 	addi	s5,v0,20039
    389c:	32205341 	andi	zero,s1,0x5341
    38a0:	2e34322e 	sltiu	s4,s1,12846
    38a4:	01003039 	0x1003039
    38a8:	00006a80 	sll	t5,zero,0xa
    38ac:	9d000400 	0x9d000400
    38b0:	0400000d 	bltz	zero,38e8 <__isr_vec_space+0x38c8>
    38b4:	00016501 	0x16501
    38b8:	0a090100 	j	8240400 <__memory_size+0x8220c00>
    38bc:	11540000 	beq	t2,s4,38c0 <__isr_vec_space+0x38a0>
    38c0:	04020000 	bltzl	zero,38c4 <__isr_vec_space+0x38a4>
    38c4:	0000ee05 	0xee05
    38c8:	07040200 	0x7040200
    38cc:	00000153 	0x153
    38d0:	69050403 	0x69050403
    38d4:	0200746e 	0x200746e
    38d8:	020f0601 	0x20f0601
    38dc:	01020000 	0x1020000
    38e0:	00020d08 	0x20d08
    38e4:	05020200 	bltzl	t0,40e8 <__isr_vec_space+0x40c8>
    38e8:	00000244 	0x244
    38ec:	f7070202 	sdc1	$f7,514(t8)
    38f0:	02000000 	0x2000000
    38f4:	00e90508 	0xe90508
    38f8:	08020000 	j	80000 <__memory_size+0x60800>
    38fc:	00014e07 	0x14e07
    3900:	07040200 	0x7040200
    3904:	00000158 	0x158
    3908:	5a070402 	0x5a070402
    390c:	02000002 	0x2000002
    3910:	02160801 	0x2160801
    3914:	7a000000 	nori.b	$w0,$w0,0x0
    3918:	04000001 	bltz	zero,3920 <__isr_vec_space+0x3900>
    391c:	000dc100 	sll	t8,t5,0x4
    3920:	1e010400 	0x1e010400
    3924:	01000007 	srav	zero,zero,t0
    3928:	00000a53 	0xa53
    392c:	800017fc 	lb	zero,6140(zero)
    3930:	00000050 	0x50
    3934:	00001171 	tgeu	zero,zero,0x45
    3938:	0f060102 	jal	c180408 <__memory_size+0xc160c08>
    393c:	02000002 	0x2000002
    3940:	020d0801 	movt	at,s0,$fcc3
    3944:	02020000 	0x2020000
    3948:	00024405 	0x24405
    394c:	07020200 	bltzl	t8,4150 <__isr_vec_space+0x4130>
    3950:	000000f7 	0xf7
    3954:	00080403 	sra	zero,t0,0x10
    3958:	48370200 	0x48370200
    395c:	02000000 	0x2000000
    3960:	00ee0504 	0xee0504
    3964:	3f030000 	0x3f030000
    3968:	02000009 	jalr	zero,s0
    396c:	00005a38 	0x5a38
    3970:	07040200 	0x7040200
    3974:	00000153 	0x153
    3978:	e9050802 	swc2	$5,2050(t0)
    397c:	02000000 	0x2000000
    3980:	014e0708 	0x14e0708
    3984:	06030000 	bgezl	s0,3988 <__isr_vec_space+0x3968>
    3988:	03000008 	jr	t8
    398c:	00003d41 	0x3d41
    3990:	09410300 	j	5040c00 <__memory_size+0x5021400>
    3994:	42030000 	c0	0x30000
    3998:	0000004f 	sync	0x1
    399c:	69050404 	0x69050404
    39a0:	0200746e 	0x200746e
    39a4:	01580704 	0x1580704
    39a8:	83030000 	lb	v1,0(t8)
    39ac:	04000006 	bltz	zero,39c8 <__isr_vec_space+0x39a8>
    39b0:	00005ad4 	0x5ad4
    39b4:	07040200 	0x7040200
    39b8:	0000025a 	0x25a
    39bc:	16080102 	bne	s0,t0,3dc8 <__isr_vec_space+0x3da8>
    39c0:	05000002 	bltz	t0,39cc <__isr_vec_space+0x39ac>
    39c4:	00000439 	0x439
    39c8:	00853401 	0x853401
    39cc:	17fc0000 	bne	ra,gp,39d0 <__isr_vec_space+0x39b0>
    39d0:	00508000 	0x508000
    39d4:	9c010000 	0x9c010000
    39d8:	00000160 	0x160
    39dc:	00646606 	0x646606
    39e0:	00853401 	0x853401
    39e4:	0c4b0000 	jal	12c0000 <__memory_size+0x12a0800>
    39e8:	62060000 	0x62060000
    39ec:	01006675 	0x1006675
    39f0:	00016034 	teq	zero,at,0x180
    39f4:	000c6c00 	sll	t5,t4,0x10
    39f8:	05290700 	tgeiu	t1,1792
    39fc:	34010000 	li	at,0x0
    3a00:	00000093 	0x93
    3a04:	00000c8d 	break	0x0,0x32
    3a08:	00080e08 	0x80e08
    3a0c:	6f360100 	0x6f360100
    3a10:	01000000 	0x1000000
    3a14:	0a4e0854 	j	9382150 <__memory_size+0x9362950>
    3a18:	37010000 	ori	at,t8,0x0
    3a1c:	00000160 	0x160
    3a20:	86085501 	lh	t0,21761(s0)
    3a24:	0100000a 	movz	zero,t0,zero
    3a28:	00006f38 	0x6f38
    3a2c:	09560100 	j	5580400 <__memory_size+0x5560c00>
    3a30:	0100706f 	0x100706f
    3a34:	00006f39 	0x6f39
    3a38:	09690100 	j	5a40400 <__memory_size+0x5a20c00>
    3a3c:	00746572 	tlt	v1,s4,0x195
    3a40:	006f3a01 	0x6f3a01
    3a44:	52010000 	beql	s0,at,3a48 <__isr_vec_space+0x3a28>
    3a48:	000a4408 	0xa4408
    3a4c:	6f3b0100 	0x6f3b0100
    3a50:	01000000 	0x1000000
    3a54:	18240a53 	0x18240a53
    3a58:	00148000 	sll	s0,s4,0x0
    3a5c:	93080000 	lbu	t0,0(t8)
    3a60:	0100000a 	movz	zero,t0,zero
    3a64:	00016747 	0x16747
    3a68:	70910200 	0x70910200
    3a6c:	0018300b 	movn	a2,zero,t8
    3a70:	00016c80 	sll	t5,at,0x12
    3a74:	0c000000 	jal	0 <hardware_exit_hook>
    3a78:	00016604 	0x16604
    3a7c:	7a0e0d00 	nori.b	$w20,$w1,0xe
    3a80:	0f000000 	jal	c000000 <__memory_size+0xbfe0800>
    3a84:	00000a8b 	0xa8b
    3a88:	01770f05 	0x1770f05
    3a8c:	040c0000 	teqi	zero,0
    3a90:	00000085 	lsa	zero,zero,zero,0x3
    3a94:	0002ac00 	sll	s5,v0,0x10
    3a98:	8a000400 	lwl	zero,1024(s0)
    3a9c:	0400000e 	bltz	zero,3ad8 <__isr_vec_space+0x3ab8>
    3aa0:	00071e01 	0x71e01
    3aa4:	0a9d0100 	j	a740400 <__memory_size+0xa720c00>
    3aa8:	184c0000 	0x184c0000
    3aac:	00148000 	sll	s0,s4,0x0
    3ab0:	12fd0000 	beq	s7,sp,3ab4 <__isr_vec_space+0x3a94>
    3ab4:	01020000 	0x1020000
    3ab8:	00020f06 	0x20f06
    3abc:	08010200 	j	40800 <__memory_size+0x21000>
    3ac0:	0000020d 	break	0x0,0x8
    3ac4:	44050202 	0x44050202
    3ac8:	02000002 	0x2000002
    3acc:	00f70702 	0xf70702
    3ad0:	04030000 	bgezl	zero,3ad4 <__isr_vec_space+0x3ab4>
    3ad4:	02000008 	jr	s0
    3ad8:	00004837 	0x4837
    3adc:	05040200 	0x5040200
    3ae0:	000000ee 	0xee
    3ae4:	00093f03 	sra	a3,t1,0x1c
    3ae8:	5a380200 	0x5a380200
    3aec:	02000000 	0x2000000
    3af0:	01530704 	0x1530704
    3af4:	08020000 	j	80000 <__memory_size+0x60800>
    3af8:	0000e905 	0xe905
    3afc:	07080200 	tgei	t8,512
    3b00:	0000014e 	0x14e
    3b04:	00080603 	sra	zero,t0,0x18
    3b08:	3d410300 	0x3d410300
    3b0c:	03000000 	0x3000000
    3b10:	00000941 	0x941
    3b14:	004f4203 	0x4f4203
    3b18:	04040000 	0x4040000
    3b1c:	746e6905 	jalx	1b9a414 <__memory_size+0x1b7ac14>
    3b20:	07040200 	0x7040200
    3b24:	00000158 	0x158
    3b28:	00097105 	0x97105
    3b2c:	03810400 	0x3810400
    3b30:	0000008c 	syscall	0x2
    3b34:	ec057c06 	swc3	$5,31750(zero)
    3b38:	0000011c 	0x11c
    3b3c:	00746107 	0x746107
    3b40:	0093ee05 	0x93ee05
    3b44:	07000000 	bltz	t8,3b48 <__isr_vec_space+0x3b28>
    3b48:	ef050076 	swc3	$5,118(t8)
    3b4c:	0000011c 	0x11c
    3b50:	00610704 	0x610704
    3b54:	0133f405 	0x133f405
    3b58:	070c0000 	teqi	t8,0
    3b5c:	f5050074 	sdc1	$f5,116(t0)
    3b60:	00000143 	sra	zero,zero,0x5
    3b64:	0073071c 	0x73071c
    3b68:	0143f705 	0x143f705
    3b6c:	073c0000 	0x73c0000
    3b70:	05003274 	bltz	t0,10544 <__isr_vec_space+0x10524>
    3b74:	00011cf8 	0x11cf8
    3b78:	6b075c00 	0x6b075c00
    3b7c:	1cf90500 	0x1cf90500
    3b80:	64000001 	0x64000001
    3b84:	00706707 	0x706707
    3b88:	0093fa05 	0x93fa05
    3b8c:	076c0000 	teqi	k1,0
    3b90:	05007073 	bltz	t0,1fd60 <__memory_size+0x560>
    3b94:	000093fb 	0x93fb
    3b98:	66077000 	0x66077000
    3b9c:	fc050070 	sdc3	$5,112(zero)
    3ba0:	00000093 	0x93
    3ba4:	61720774 	0x61720774
    3ba8:	93fd0500 	lbu	sp,1280(ra)
    3bac:	78000000 	andi.b	$w0,$w0,0x0
    3bb0:	00930800 	0x930800
    3bb4:	012c0000 	0x12c0000
    3bb8:	2c090000 	sltiu	t1,zero,0
    3bbc:	01000001 	movf	zero,t0,$fcc0
    3bc0:	07040200 	0x7040200
    3bc4:	0000025a 	0x25a
    3bc8:	00009308 	0x9308
    3bcc:	00014300 	sll	t0,at,0xc
    3bd0:	012c0900 	0x12c0900
    3bd4:	00030000 	sll	zero,v1,0x0
    3bd8:	00009308 	0x9308
    3bdc:	00015300 	sll	t2,at,0xc
    3be0:	012c0900 	0x12c0900
    3be4:	00070000 	sll	zero,a3,0x0
    3be8:	ea057c0a 	swc2	$5,31754(s0)
    3bec:	0000016a 	0x16a
    3bf0:	00009f0b 	0x9f0b
    3bf4:	00720c00 	0x720c00
    3bf8:	016aff05 	0x16aff05
    3bfc:	08000000 	j	0 <hardware_exit_hook>
    3c00:	00000093 	0x93
    3c04:	0000017a 	0x17a
    3c08:	00012c09 	0x12c09
    3c0c:	0d001e00 	jal	4007800 <__memory_size+0x3fe8000>
    3c10:	0000095b 	0x95b
    3c14:	00e805a0 	0xe805a0
    3c18:	0e000002 	jal	8000008 <__memory_size+0x7fe0808>
    3c1c:	00000153 	0x153
    3c20:	70650f00 	0x70650f00
    3c24:	02050063 	0x2050063
    3c28:	00009301 	0x9301
    3c2c:	61107c00 	0x61107c00
    3c30:	05000009 	bltz	t0,3c58 <__isr_vec_space+0x3c38>
    3c34:	00930103 	0x930103
    3c38:	0f800000 	jal	e000000 <__memory_size+0xdfe0800>
    3c3c:	05006968 	bltz	t0,1e1e0 <__isr_vec_space+0x1e1c0>
    3c40:	00930104 	0x930104
    3c44:	0f840000 	jal	e100000 <__memory_size+0xe0e0800>
    3c48:	05006f6c 	bltz	t0,1f9fc <__memory_size+0x1fc>
    3c4c:	00930105 	0x930105
    3c50:	10880000 	beq	a0,t0,3c54 <__isr_vec_space+0x3c34>
    3c54:	0000094a 	0x94a
    3c58:	27010705 	addiu	at,t8,1797
    3c5c:	8c000002 	lw	zero,2(zero)
    3c60:	0009a610 	0x9a610
    3c64:	010a0500 	0x10a0500
    3c68:	0000007a 	0x7a
    3c6c:	09091090 	j	4244240 <__memory_size+0x4224a40>
    3c70:	0c050000 	jal	140000 <__memory_size+0x120800>
    3c74:	00007a01 	0x7a01
    3c78:	b7109400 	0xb7109400
    3c7c:	05000009 	bltz	t0,3ca4 <__isr_vec_space+0x3c84>
    3c80:	007a010d 	break	0x7a,0x4
    3c84:	10980000 	beq	a0,t8,3c88 <__isr_vec_space+0x3c68>
    3c88:	000009ad 	0x9ad
    3c8c:	7a010e05 	0x7a010e05
    3c90:	9c000000 	0x9c000000
    3c94:	09371100 	j	4dc4400 <__memory_size+0x4da4c00>
    3c98:	05080000 	tgei	t0,0
    3c9c:	02270111 	0x2270111
    3ca0:	690f0000 	0x690f0000
    3ca4:	13050064 	beq	t8,a1,3e38 <__isr_vec_space+0x3e18>
    3ca8:	00009301 	0x9301
    3cac:	dc100000 	ldc3	$16,0(zero)
    3cb0:	05000004 	bltz	t0,3cc4 <__isr_vec_space+0x3ca4>
    3cb4:	02270114 	0x2270114
    3cb8:	00040000 	sll	zero,a0,0x0
    3cbc:	02000412 	0x2000412
    3cc0:	01020000 	0x1020000
    3cc4:	00021608 	0x21608
    3cc8:	04080200 	tgei	zero,512
    3ccc:	0000092a 	0x92a
    3cd0:	6a040402 	0x6a040402
    3cd4:	13000009 	beqz	t8,3cfc <__isr_vec_space+0x3cdc>
    3cd8:	00000977 	0x977
    3cdc:	006f3401 	0x6f3401
    3ce0:	184c0000 	0x184c0000
    3ce4:	00148000 	sll	s0,s4,0x0
    3ce8:	9c010000 	0x9c010000
    3cec:	000002a9 	0x2a9
    3cf0:	78746314 	sld.d	$w12,$w12[s4]
    3cf4:	a9340100 	swl	s4,256(t1)
    3cf8:	01000002 	0x1000002
    3cfc:	62611454 	0x62611454
    3d00:	34010069 	li	at,0x69
    3d04:	0000006f 	0x6f
    3d08:	0e155501 	jal	8555404 <__memory_size+0x8535c04>
    3d0c:	01000008 	jr	t0
    3d10:	0002a936 	tne	zero,v0,0x2a4
    3d14:	15540100 	bne	t2,s4,4118 <__isr_vec_space+0x40f8>
    3d18:	00000a4e 	0xa4e
    3d1c:	006f3701 	0x6f3701
    3d20:	55010000 	bnel	t0,at,3d24 <__isr_vec_space+0x3d04>
    3d24:	00706f16 	0x706f16
    3d28:	006f3801 	0x6f3801
    3d2c:	69010000 	0x69010000
    3d30:	74657216 	jalx	195c858 <__memory_size+0x193d058>
    3d34:	6f390100 	0x6f390100
    3d38:	01000000 	0x1000000
    3d3c:	04120052 	bltzall	zero,3e88 <__isr_vec_space+0x3e68>
    3d40:	0000017a 	0x17a
    3d44:	0002b200 	sll	s6,v0,0x8
    3d48:	b2000400 	0xb2000400
    3d4c:	0400000f 	bltz	zero,3d8c <__isr_vec_space+0x3d6c>
    3d50:	00071e01 	0x71e01
    3d54:	0ae30100 	j	b8c0400 <__memory_size+0xb8a0c00>
    3d58:	18600000 	blez	v1,3d5c <__isr_vec_space+0x3d3c>
    3d5c:	00448000 	0x448000
    3d60:	14350000 	bne	at,s5,3d64 <__isr_vec_space+0x3d44>
    3d64:	04020000 	bltzl	zero,3d68 <__isr_vec_space+0x3d48>
    3d68:	00015307 	0x15307
    3d6c:	07040200 	0x7040200
    3d70:	00000158 	0x158
    3d74:	4e070802 	c3	0x70802
    3d78:	03000001 	movf	zero,t8,$fcc0
    3d7c:	00000971 	tgeu	zero,zero,0x25
    3d80:	28038102 	slti	v1,zero,-32510
    3d84:	04000000 	bltz	zero,3d88 <__isr_vec_space+0x3d68>
    3d88:	6e690504 	0x6e690504
    3d8c:	01020074 	teq	t0,v0,0x1
    3d90:	00020f06 	0x20f06
    3d94:	08010200 	j	40800 <__memory_size+0x21000>
    3d98:	0000020d 	break	0x0,0x8
    3d9c:	44050202 	0x44050202
    3da0:	02000002 	0x2000002
    3da4:	00f70702 	0xf70702
    3da8:	04020000 	bltzl	zero,3dac <__isr_vec_space+0x3d8c>
    3dac:	0000ee05 	0xee05
    3db0:	093f0500 	j	4fc1400 <__memory_size+0x4fa1c00>
    3db4:	38030000 	xori	v1,zero,0x0
    3db8:	00000021 	move	zero,zero
    3dbc:	e9050802 	swc2	$5,2050(t0)
    3dc0:	05000000 	bltz	t0,3dc4 <__isr_vec_space+0x3da4>
    3dc4:	00000941 	0x941
    3dc8:	006c4204 	0x6c4204
    3dcc:	7c060000 	ext	a2,zero,0x0,0x1
    3dd0:	0106ec05 	0x106ec05
    3dd4:	61070000 	0x61070000
    3dd8:	ee050074 	swc3	$5,116(s0)
    3ddc:	00000036 	tne	zero,zero
    3de0:	00760700 	0x760700
    3de4:	0106ef05 	0x106ef05
    3de8:	07040000 	0x7040000
    3dec:	f4050061 	sdc1	$f5,97(zero)
    3df0:	0000011d 	0x11d
    3df4:	0074070c 	syscall	0x1d01c
    3df8:	012df505 	0x12df505
    3dfc:	071c0000 	0x71c0000
    3e00:	f7050073 	sdc1	$f5,115(t8)
    3e04:	0000012d 	0x12d
    3e08:	3274073c 	andi	s4,s3,0x73c
    3e0c:	06f80500 	0x6f80500
    3e10:	5c000001 	bgtzl	zero,3e18 <__isr_vec_space+0x3df8>
    3e14:	05006b07 	bltz	t0,1ea34 <__isr_vec_space+0x1ea14>
    3e18:	000106f9 	0x106f9
    3e1c:	67076400 	0x67076400
    3e20:	fa050070 	sdc2	$5,112(s0)
    3e24:	00000036 	tne	zero,zero
    3e28:	7073076c 	s16ldi	xr13,v1,386,ptn2
    3e2c:	36fb0500 	ori	k1,s7,0x500
    3e30:	70000000 	madd	zero,zero
    3e34:	00706607 	0x706607
    3e38:	0036fc05 	0x36fc05
    3e3c:	07740000 	0x7740000
    3e40:	05006172 	bltz	t0,1c40c <__isr_vec_space+0x1c3ec>
    3e44:	000036fd 	0x36fd
    3e48:	08007800 	j	1e000 <__isr_vec_space+0x1dfe0>
    3e4c:	00000036 	tne	zero,zero
    3e50:	00000116 	0x116
    3e54:	00011609 	0x11609
    3e58:	02000100 	0x2000100
    3e5c:	025a0704 	0x25a0704
    3e60:	36080000 	ori	t0,s0,0x0
    3e64:	2d000000 	sltiu	zero,t0,0
    3e68:	09000001 	j	4000004 <__memory_size+0x3fe0804>
    3e6c:	00000116 	0x116
    3e70:	36080003 	ori	t0,s0,0x3
    3e74:	3d000000 	0x3d000000
    3e78:	09000001 	j	4000004 <__memory_size+0x3fe0804>
    3e7c:	00000116 	0x116
    3e80:	7c0a0007 	0x7c0a0007
    3e84:	0154ea05 	0x154ea05
    3e88:	890b0000 	lwl	t3,0(t0)
    3e8c:	0c000000 	jal	0 <hardware_exit_hook>
    3e90:	ff050072 	sdc3	$5,114(t8)
    3e94:	00000154 	0x154
    3e98:	00360800 	0x360800
    3e9c:	01640000 	0x1640000
    3ea0:	16090000 	bne	s0,t1,3ea4 <__isr_vec_space+0x3e84>
    3ea4:	1e000001 	bgtz	s0,3eac <__isr_vec_space+0x3e8c>
    3ea8:	095b0d00 	j	56c3400 <__memory_size+0x56a3c00>
    3eac:	05a00000 	bltz	t5,3eb0 <__isr_vec_space+0x3e90>
    3eb0:	0001eae8 	0x1eae8
    3eb4:	013d0e00 	0x13d0e00
    3eb8:	0f000000 	jal	c000000 <__memory_size+0xbfe0800>
    3ebc:	00637065 	0x637065
    3ec0:	36010205 	ori	at,s0,0x205
    3ec4:	7c000000 	ext	zero,zero,0x0,0x1
    3ec8:	00096110 	0x96110
    3ecc:	01030500 	0x1030500
    3ed0:	00000036 	tne	zero,zero
    3ed4:	69680f80 	0x69680f80
    3ed8:	01040500 	0x1040500
    3edc:	00000036 	tne	zero,zero
    3ee0:	6f6c0f84 	0x6f6c0f84
    3ee4:	01050500 	0x1050500
    3ee8:	00000036 	tne	zero,zero
    3eec:	094a1088 	j	5284220 <__memory_size+0x5264a20>
    3ef0:	07050000 	0x7050000
    3ef4:	00021101 	0x21101
    3ef8:	a6108c00 	sh	s0,-29696(s0)
    3efc:	05000009 	bltz	t0,3f24 <__isr_vec_space+0x3f04>
    3f00:	007e010a 	0x7e010a
    3f04:	10900000 	beq	a0,s0,3f08 <__isr_vec_space+0x3ee8>
    3f08:	00000909 	0x909
    3f0c:	7e010c05 	0x7e010c05
    3f10:	94000000 	lhu	zero,0(zero)
    3f14:	0009b710 	0x9b710
    3f18:	010d0500 	0x10d0500
    3f1c:	0000007e 	0x7e
    3f20:	09ad1098 	j	6b44260 <__memory_size+0x6b24a60>
    3f24:	0e050000 	jal	8140000 <__memory_size+0x8120800>
    3f28:	00007e01 	0x7e01
    3f2c:	11009c00 	beqz	t0,fffeaf30 <__entry+0x403eaf30>
    3f30:	00000937 	0x937
    3f34:	01110508 	0x1110508
    3f38:	00000211 	0x211
    3f3c:	0064690f 	0x64690f
    3f40:	36011305 	ori	at,s0,0x1305
    3f44:	00000000 	nop
    3f48:	0004dc10 	0x4dc10
    3f4c:	01140500 	0x1140500
    3f50:	00000211 	0x211
    3f54:	04120004 	bltzall	zero,3f68 <__isr_vec_space+0x3f48>
    3f58:	000001ea 	0x1ea
    3f5c:	16080102 	bne	s0,t0,4368 <__isr_vec_space+0x4348>
    3f60:	02000002 	0x2000002
    3f64:	092a0408 	j	4a81020 <__memory_size+0x4a61820>
    3f68:	04020000 	bltzl	zero,3f6c <__isr_vec_space+0x3f4c>
    3f6c:	00096a04 	0x96a04
    3f70:	08fa1300 	j	3e84c00 <__memory_size+0x3e65400>
    3f74:	23010000 	addi	at,t8,0
    3f78:	00000042 	srl	zero,zero,0x1
    3f7c:	80001860 	lb	zero,6240(zero)
    3f80:	00000044 	0x44
    3f84:	02af9c01 	0x2af9c01
    3f88:	63140000 	0x63140000
    3f8c:	01007874 	teq	t0,zero,0x1e1
    3f90:	0002af23 	0x2af23
    3f94:	000cae00 	sll	s5,t4,0x18
    3f98:	080e1500 	j	385400 <__memory_size+0x365c00>
    3f9c:	25010000 	addiu	at,t0,0
    3fa0:	00000036 	tne	zero,zero
    3fa4:	4e155401 	c3	0x155401
    3fa8:	0100000a 	movz	zero,t0,zero
    3fac:	00003626 	0x3626
    3fb0:	15550100 	bne	t2,s5,43b4 <__isr_vec_space+0x4394>
    3fb4:	00000a86 	0xa86
    3fb8:	00362701 	0x362701
    3fbc:	56010000 	bnel	s0,at,3fc0 <__isr_vec_space+0x3fa0>
    3fc0:	000ade15 	0xade15
    3fc4:	36280100 	ori	t0,s1,0x100
    3fc8:	01000000 	0x1000000
    3fcc:	706f1657 	udi7	v1,t7,v0,0x19
    3fd0:	36290100 	ori	t1,s1,0x100
    3fd4:	01000000 	0x1000000
    3fd8:	0ad41569 	j	b5055a4 <__memory_size+0xb4e5da4>
    3fdc:	2a010000 	slti	at,s0,0
    3fe0:	00000036 	tne	zero,zero
    3fe4:	d9155201 	ldc2	$21,20993(t0)
    3fe8:	0100000a 	movz	zero,t0,zero
    3fec:	0000362b 	0x362b
    3ff0:	00530100 	0x530100
    3ff4:	01640412 	0x1640412
    3ff8:	81000000 	lb	zero,0(t0)
    3ffc:	04000008 	bltz	zero,4020 <__isr_vec_space+0x4000>
    4000:	0010da00 	sll	k1,s0,0x8
    4004:	65010400 	0x65010400
    4008:	01000001 	movf	zero,t0,$fcc0
    400c:	00000b19 	0xb19
    4010:	800018a4 	lb	zero,6308(zero)
    4014:	0000000c 	syscall
    4018:	00001578 	0x1578
    401c:	69050402 	0x69050402
    4020:	0300746e 	0x300746e
    4024:	00ee0504 	0xee0504
    4028:	04030000 	bgezl	zero,402c <__isr_vec_space+0x400c>
    402c:	00015307 	0x15307
    4030:	06010300 	bgez	s0,4c34 <__isr_vec_space+0x4c14>
    4034:	0000020f 	sync	0x8
    4038:	0d080103 	jal	420040c <__memory_size+0x41e0c0c>
    403c:	03000002 	0x3000002
    4040:	02440502 	0x2440502
    4044:	02030000 	0x2030000
    4048:	0000f707 	0xf707
    404c:	05080300 	tgei	t0,768
    4050:	000000e9 	0xe9
    4054:	4e070803 	c3	0x70803
    4058:	04000001 	bltz	zero,4060 <__isr_vec_space+0x4040>
    405c:	0000047c 	0x47c
    4060:	00210702 	ror	zero,at,0x1c
    4064:	5a040000 	0x5a040000
    4068:	03000004 	sllv	zero,zero,t8
    406c:	00002810 	mfhi	a1
    4070:	053d0400 	0x53d0400
    4074:	27030000 	addiu	v1,t8,0
    4078:	00000028 	0x28
    407c:	00042905 	0x42905
    4080:	01610400 	0x1610400
    4084:	0000008d 	break	0x0,0x2
    4088:	58070403 	0x58070403
    408c:	06000001 	bltz	s0,4094 <__isr_vec_space+0x4074>
    4090:	b34a0304 	0xb34a0304
    4094:	07000000 	bltz	t8,4098 <__isr_vec_space+0x4078>
    4098:	00000423 	0x423
    409c:	00814c03 	0x814c03
    40a0:	d5070000 	ldc1	$f7,0(t0)
    40a4:	03000003 	0x3000003
    40a8:	0000b34d 	break	0x0,0x2cd
    40ac:	3d080000 	0x3d080000
    40b0:	c3000000 	ll	zero,0(t8)
    40b4:	09000000 	j	4000000 <__memory_size+0x3fe0800>
    40b8:	000000c3 	sra	zero,zero,0x3
    40bc:	04030003 	bgezl	zero,40cc <__isr_vec_space+0x40ac>
    40c0:	00025a07 	0x25a07
    40c4:	03080a00 	0x3080a00
    40c8:	0000eb47 	0xeb47
    40cc:	05270b00 	aclr	0x0,-1280(t1)
    40d0:	49030000 	bc2tl	40d4 <__isr_vec_space+0x40b4>
    40d4:	00000021 	move	zero,zero
    40d8:	052f0b00 	0x52f0b00
    40dc:	4e030000 	lwxc1	$f0,v1(s0)
    40e0:	00000094 	0x94
    40e4:	ba040004 	swr	a0,4(s0)
    40e8:	03000004 	sllv	zero,zero,t8
    40ec:	0000ca4f 	0xca4f
    40f0:	03980400 	0x3980400
    40f4:	53030000 	beql	t8,v1,40f8 <__isr_vec_space+0x40d8>
    40f8:	00000060 	0x60
    40fc:	7904040c 	0x7904040c
    4100:	05000005 	bltz	t0,4118 <__isr_vec_space+0x40f8>
    4104:	00002f16 	0x2f16
    4108:	03a90d00 	0x3a90d00
    410c:	05180000 	0x5180000
    4110:	0001612d 	0x1612d
    4114:	04db0b00 	0x4db0b00
    4118:	2f050000 	sltiu	a1,t8,0
    411c:	00000161 	0x161
    4120:	6b5f0e00 	0x6b5f0e00
    4124:	21300500 	addi	s0,t1,1280
    4128:	04000000 	bltz	zero,412c <__isr_vec_space+0x410c>
    412c:	0005120b 	0x5120b
    4130:	21300500 	addi	s0,t1,1280
    4134:	08000000 	j	0 <hardware_exit_hook>
    4138:	0003920b 	0x3920b
    413c:	21300500 	addi	s0,t1,1280
    4140:	0c000000 	jal	0 <hardware_exit_hook>
    4144:	0005c00b 	movn	t8,zero,a1
    4148:	21300500 	addi	s0,t1,1280
    414c:	10000000 	b	4150 <__isr_vec_space+0x4130>
    4150:	00785f0e 	0x785f0e
    4154:	01673105 	0x1673105
    4158:	00140000 	sll	zero,s4,0x0
    415c:	010e040f 	0x10e040f
    4160:	03080000 	0x3080000
    4164:	77000001 	jalx	c000004 <__memory_size+0xbfe0804>
    4168:	09000001 	j	4000004 <__memory_size+0x3fe0804>
    416c:	000000c3 	sra	zero,zero,0x3
    4170:	d00d0000 	0xd00d0000
    4174:	24000003 	li	zero,3
    4178:	01f03505 	0x1f03505
    417c:	d00b0000 	0xd00b0000
    4180:	05000002 	bltz	t0,418c <__isr_vec_space+0x416c>
    4184:	00002137 	0x2137
    4188:	4f0b0000 	lwxc1	$f0,t3(t8)
    418c:	05000005 	bltz	t0,41a4 <__isr_vec_space+0x4184>
    4190:	00002138 	0x2138
    4194:	df0b0400 	ldc3	$11,1024(t8)
    4198:	05000002 	bltz	t0,41a4 <__isr_vec_space+0x4184>
    419c:	00002139 	0x2139
    41a0:	390b0800 	xori	t3,t0,0x800
    41a4:	05000006 	bltz	t0,41c0 <__isr_vec_space+0x41a0>
    41a8:	0000213a 	0x213a
    41ac:	460b0c00 	add.s	$f16,$f1,$f11
    41b0:	05000004 	bltz	t0,41c4 <__isr_vec_space+0x41a4>
    41b4:	0000213b 	0x213b
    41b8:	450b1000 	bc1tl	$fcc2,81bc <__isr_vec_space+0x819c>
    41bc:	05000005 	bltz	t0,41d4 <__isr_vec_space+0x41b4>
    41c0:	0000213c 	0x213c
    41c4:	c50b1400 	lwc1	$f11,5120(t0)
    41c8:	05000005 	bltz	t0,41e0 <__isr_vec_space+0x41c0>
    41cc:	0000213d 	0x213d
    41d0:	9c0b1800 	0x9c0b1800
    41d4:	05000004 	bltz	t0,41e8 <__isr_vec_space+0x41c8>
    41d8:	0000213e 	0x213e
    41dc:	000b1c00 	sll	v1,t3,0x10
    41e0:	05000006 	bltz	t0,41fc <__isr_vec_space+0x41dc>
    41e4:	0000213f 	0x213f
    41e8:	10002000 	b	c1ec <__isr_vec_space+0xc1cc>
    41ec:	000002ee 	0x2ee
    41f0:	48050108 	0x48050108
    41f4:	00000230 	tge	zero,zero,0x8
    41f8:	00026f0b 	0x26f0b
    41fc:	30490500 	andi	t1,v0,0x500
    4200:	00000002 	srl	zero,zero,0x0
    4204:	0002630b 	0x2630b
    4208:	304a0500 	andi	t2,v0,0x500
    420c:	80000002 	lb	zero,2(zero)
    4210:	00056b11 	0x56b11
    4214:	034c0500 	0x34c0500
    4218:	00000001 	movf	zero,zero,$fcc0
    421c:	03131101 	0x3131101
    4220:	4f050000 	lwxc1	$f0,a1(t8)
    4224:	00000103 	sra	zero,zero,0x4
    4228:	08000104 	j	410 <__isr_vec_space+0x3f0>
    422c:	00000101 	0x101
    4230:	00000240 	sll	zero,zero,0x9
    4234:	0000c309 	0xc309
    4238:	10001f00 	b	be3c <__isr_vec_space+0xbe1c>
    423c:	00000252 	0x252
    4240:	5b050190 	0x5b050190
    4244:	0000027e 	0x27e
    4248:	0004db0b 	0x4db0b
    424c:	7e5c0500 	ext	gp,s2,0x14,0x1
    4250:	00000002 	srl	zero,zero,0x0
    4254:	0004f30b 	0x4f30b
    4258:	215d0500 	addi	sp,t2,1280
    425c:	04000000 	bltz	zero,4260 <__isr_vec_space+0x4240>
    4260:	00038d0b 	0x38d0b
    4264:	845f0500 	lh	ra,1280(v0)
    4268:	08000002 	j	8 <ABIFlags_isa_ext>
    426c:	0002ee0b 	0x2ee0b
    4270:	f0600500 	0xf0600500
    4274:	88000001 	lwl	zero,1(zero)
    4278:	40040f00 	0x40040f00
    427c:	08000002 	j	8 <ABIFlags_isa_ext>
    4280:	00000294 	0x294
    4284:	00000294 	0x294
    4288:	0000c309 	0xc309
    428c:	0f001f00 	jal	c007c00 <__memory_size+0xbfe8400>
    4290:	00029a04 	0x29a04
    4294:	a60d1200 	sh	t5,4608(s0)
    4298:	08000004 	j	10 <ABIFlags_flags1>
    429c:	02c07305 	0x2c07305
    42a0:	cc0b0000 	pref	0xb,0(zero)
    42a4:	05000008 	bltz	t0,42c8 <__isr_vec_space+0x42a8>
    42a8:	0002c074 	teq	zero,v0,0x301
    42ac:	9a0b0000 	lwr	t3,0(s0)
    42b0:	05000008 	bltz	t0,42d4 <__isr_vec_space+0x42b4>
    42b4:	00002175 	0x2175
    42b8:	0f000400 	jal	c001000 <__memory_size+0xbfe1800>
    42bc:	00003d04 	0x3d04
    42c0:	04c50d00 	0x4c50d00
    42c4:	05680000 	tgei	t3,0
    42c8:	0003f0b3 	tltu	zero,v1,0x3c2
    42cc:	705f0e00 	0x705f0e00
    42d0:	c0b40500 	ll	s4,1280(a1)
    42d4:	00000002 	srl	zero,zero,0x0
    42d8:	00725f0e 	0x725f0e
    42dc:	0021b505 	0x21b505
    42e0:	0e040000 	jal	8100000 <__memory_size+0x80e0800>
    42e4:	0500775f 	bltz	t0,22064 <__memory_size+0x2864>
    42e8:	000021b6 	tne	zero,zero,0x86
    42ec:	0c0b0800 	jal	2c2000 <__memory_size+0x2a2800>
    42f0:	05000003 	bltz	t0,4300 <__isr_vec_space+0x42e0>
    42f4:	000044b7 	0x44b7
    42f8:	ec0b0c00 	swc3	$11,3072(zero)
    42fc:	05000003 	bltz	t0,430c <__isr_vec_space+0x42ec>
    4300:	000044b8 	0x44b8
    4304:	5f0e0e00 	0x5f0e0e00
    4308:	05006662 	bltz	t0,1dc94 <__isr_vec_space+0x1dc74>
    430c:	00029bb9 	0x29bb9
    4310:	aa0b1000 	swl	t3,4096(s0)
    4314:	05000002 	bltz	t0,4320 <__isr_vec_space+0x4300>
    4318:	000021ba 	0x21ba
    431c:	fc0b1800 	sdc3	$11,6144(zero)
    4320:	05000002 	bltz	t0,432c <__isr_vec_space+0x430c>
    4324:	000101c1 	0x101c1
    4328:	c00b1c00 	ll	t3,7168(zero)
    432c:	05000003 	bltz	t0,433c <__isr_vec_space+0x431c>
    4330:	000553c3 	sra	t2,a1,0xf
    4334:	380b2000 	xori	t3,zero,0x2000
    4338:	05000004 	bltz	t0,434c <__isr_vec_space+0x432c>
    433c:	000582c5 	0x582c5
    4340:	370b2400 	ori	t3,t8,0x2400
    4344:	05000005 	bltz	t0,435c <__isr_vec_space+0x433c>
    4348:	0005a6c8 	0x5a6c8
    434c:	1a0b2800 	0x1a0b2800
    4350:	05000006 	bltz	t0,436c <__isr_vec_space+0x434c>
    4354:	0005c0c9 	0x5c0c9
    4358:	5f0e2c00 	0x5f0e2c00
    435c:	05006275 	bltz	t0,1cd34 <__isr_vec_space+0x1cd14>
    4360:	00029bcc 	syscall	0xa6f
    4364:	5f0e3000 	0x5f0e3000
    4368:	05007075 	bltz	t0,20540 <__memory_size+0xd40>
    436c:	0002c0cd 	break	0x2,0x303
    4370:	5f0e3800 	0x5f0e3800
    4374:	05007275 	bltz	t0,20d4c <__memory_size+0x154c>
    4378:	000021ce 	0x21ce
    437c:	d90b3c00 	ldc2	$11,15360(t0)
    4380:	05000002 	bltz	t0,438c <__isr_vec_space+0x436c>
    4384:	0005c6d1 	0x5c6d1
    4388:	f20b4000 	0xf20b4000
    438c:	05000005 	bltz	t0,43a4 <__isr_vec_space+0x4384>
    4390:	0005d6d2 	0x5d6d2
    4394:	5f0e4300 	0x5f0e4300
    4398:	0500626c 	bltz	t0,1cd4c <__isr_vec_space+0x1cd2c>
    439c:	00029bd5 	0x29bd5
    43a0:	220b4400 	addi	t3,s0,17408
    43a4:	05000003 	bltz	t0,43b4 <__isr_vec_space+0x4394>
    43a8:	000021d8 	0x21d8
    43ac:	330b4c00 	andi	t3,t8,0x4c00
    43b0:	05000003 	bltz	t0,43c0 <__isr_vec_space+0x43a0>
    43b4:	00006bd9 	0x6bd9
    43b8:	490b5000 	bc2tl	$cc2,183bc <__isr_vec_space+0x1839c>
    43bc:	05000006 	bltz	t0,43d8 <__isr_vec_space+0x43b8>
    43c0:	00040edc 	0x40edc
    43c4:	180b5400 	0x180b5400
    43c8:	05000007 	bltz	t0,43e8 <__isr_vec_space+0x43c8>
    43cc:	0000f6e0 	0xf6e0
    43d0:	cd0b5800 	pref	0xb,22528(t0)
    43d4:	05000004 	bltz	t0,43e8 <__isr_vec_space+0x43c8>
    43d8:	0000ebe2 	0xebe2
    43dc:	300b5c00 	andi	t3,zero,0x5c00
    43e0:	05000004 	bltz	t0,43f4 <__isr_vec_space+0x43d4>
    43e4:	000021e3 	0x21e3
    43e8:	13006400 	beqz	t8,1d3ec <__isr_vec_space+0x1d3cc>
    43ec:	00000021 	move	zero,zero
    43f0:	0000040e 	0x40e
    43f4:	00040e14 	0x40e14
    43f8:	01011400 	0x1011400
    43fc:	46140000 	add.s	$f0,$f0,$f20
    4400:	14000005 	bnez	zero,4418 <__isr_vec_space+0x43f8>
    4404:	00000021 	move	zero,zero
    4408:	14040f00 	bne	zero,a0,800c <__isr_vec_space+0x7fec>
    440c:	15000004 	bnez	t0,4420 <__isr_vec_space+0x4400>
    4410:	0000051a 	0x51a
    4414:	39050428 	xori	a1,t0,0x428
    4418:	00054602 	srl	t0,a1,0x18
    441c:	0a8c1600 	j	a305800 <__memory_size+0xa2e6000>
    4420:	3b050000 	xori	a1,t8,0x0
    4424:	00002102 	srl	a0,zero,0x4
    4428:	1b160000 	0x1b160000
    442c:	05000003 	bltz	t0,443c <__isr_vec_space+0x441c>
    4430:	062d0240 	0x62d0240
    4434:	16040000 	bne	s0,a0,4438 <__isr_vec_space+0x4418>
    4438:	000003dc 	0x3dc
    443c:	2d024005 	sltiu	v0,t0,16389
    4440:	08000006 	j	18 <ABIFlags_flags2+0x4>
    4444:	0003a116 	0x3a116
    4448:	02400500 	0x2400500
    444c:	0000062d 	0x62d
    4450:	04ee160c 	tnei	a3,5644
    4454:	42050000 	c0	0x50000
    4458:	00002102 	srl	a0,zero,0x4
    445c:	7f161000 	ext	s6,t8,0x0,0x3
    4460:	05000002 	bltz	t0,446c <__isr_vec_space+0x444c>
    4464:	080f0243 	j	3c090c <__memory_size+0x3a110c>
    4468:	16140000 	bne	s0,s4,446c <__isr_vec_space+0x444c>
    446c:	000005a1 	0x5a1
    4470:	21024505 	addi	v0,t0,17669
    4474:	30000000 	andi	zero,zero,0x0
    4478:	0004f816 	0x4f816
    447c:	02460500 	0x2460500
    4480:	00000577 	0x577
    4484:	044f1634 	0x44f1634
    4488:	48050000 	mfc2	a1,$0
    448c:	00002102 	srl	a0,zero,0x4
    4490:	08163800 	j	58e000 <__memory_size+0x56e800>
    4494:	05000005 	bltz	t0,44ac <__isr_vec_space+0x448c>
    4498:	082a024a 	j	a80928 <__memory_size+0xa61128>
    449c:	163c0000 	bne	s1,gp,44a0 <__isr_vec_space+0x4480>
    44a0:	0000041b 	0x41b
    44a4:	61024d05 	0x61024d05
    44a8:	40000001 	mfc0	zero,c0_mvpcontrol
    44ac:	0003c616 	0x3c616
    44b0:	024e0500 	0x24e0500
    44b4:	00000021 	move	zero,zero
    44b8:	06341644 	0x6341644
    44bc:	4f050000 	lwxc1	$f0,a1(t8)
    44c0:	00016102 	srl	t4,at,0x4
    44c4:	72164800 	0x72164800
    44c8:	05000004 	bltz	t0,44dc <__isr_vec_space+0x44bc>
    44cc:	08300250 	j	c00940 <__memory_size+0xbe1140>
    44d0:	164c0000 	bne	s2,t4,44d4 <__isr_vec_space+0x44b4>
    44d4:	000003e4 	0x3e4
    44d8:	21025305 	addi	v0,t0,21253
    44dc:	50000000 	beqzl	zero,44e0 <__isr_vec_space+0x44c0>
    44e0:	00032b16 	0x32b16
    44e4:	02540500 	0x2540500
    44e8:	00000546 	0x546
    44ec:	048e1654 	tnei	a0,5716
    44f0:	77050000 	jalx	c140000 <__memory_size+0xc120800>
    44f4:	0007ed02 	srl	sp,a3,0x14
    44f8:	52175800 	beql	s0,s7,1a4fc <__isr_vec_space+0x1a4dc>
    44fc:	05000002 	bltz	t0,4508 <__isr_vec_space+0x44e8>
    4500:	027e027b 	0x27e027b
    4504:	01480000 	0x1480000
    4508:	0003f917 	0x3f917
    450c:	027c0500 	0x27c0500
    4510:	00000240 	sll	zero,zero,0x9
    4514:	e817014c 	swc2	$23,332(zero)
    4518:	05000005 	bltz	t0,4530 <__isr_vec_space+0x4510>
    451c:	08410280 	j	1040a00 <__memory_size+0x1021200>
    4520:	02dc0000 	0x2dc0000
    4524:	00030417 	0x30417
    4528:	02850500 	0x2850500
    452c:	000005f2 	tlt	zero,zero,0x17
    4530:	e91702e0 	swc2	$23,736(t0)
    4534:	05000002 	bltz	t0,4540 <__isr_vec_space+0x4520>
    4538:	084d0286 	j	1340a18 <__memory_size+0x1321218>
    453c:	02ec0000 	0x2ec0000
    4540:	4c040f00 	0x4c040f00
    4544:	03000005 	lsa	zero,t8,zero,0x1
    4548:	02160801 	0x2160801
    454c:	040f0000 	0x40f0000
    4550:	000003f0 	tge	zero,zero,0xf
    4554:	00002113 	0x2113
    4558:	00057700 	sll	t6,a1,0x1c
    455c:	040e1400 	tnei	zero,5120
    4560:	01140000 	0x1140000
    4564:	14000001 	bnez	zero,456c <__isr_vec_space+0x454c>
    4568:	00000577 	0x577
    456c:	00002114 	0x2114
    4570:	040f0000 	0x40f0000
    4574:	0000057d 	0x57d
    4578:	00054c18 	0x54c18
    457c:	59040f00 	0x59040f00
    4580:	13000005 	beqz	t8,4598 <__isr_vec_space+0x4578>
    4584:	00000076 	tne	zero,zero,0x1
    4588:	000005a6 	0x5a6
    458c:	00040e14 	0x40e14
    4590:	01011400 	0x1011400
    4594:	76140000 	jalx	8500000 <__memory_size+0x84e0800>
    4598:	14000000 	bnez	zero,459c <__isr_vec_space+0x457c>
    459c:	00000021 	move	zero,zero
    45a0:	88040f00 	lwl	a0,3840(zero)
    45a4:	13000005 	beqz	t8,45bc <__isr_vec_space+0x459c>
    45a8:	00000021 	move	zero,zero
    45ac:	000005c0 	sll	zero,zero,0x17
    45b0:	00040e14 	0x40e14
    45b4:	01011400 	0x1011400
    45b8:	0f000000 	jal	c000000 <__memory_size+0xbfe0800>
    45bc:	0005ac04 	0x5ac04
    45c0:	003d0800 	0x3d0800
    45c4:	05d60000 	0x5d60000
    45c8:	c3090000 	ll	t1,0(t8)
    45cc:	02000000 	0x2000000
    45d0:	003d0800 	0x3d0800
    45d4:	05e60000 	0x5e60000
    45d8:	c3090000 	ll	t1,0(t8)
    45dc:	00000000 	nop
    45e0:	04b30500 	bgezall	a1,59e4 <__isr_vec_space+0x59c4>
    45e4:	1d050000 	0x1d050000
    45e8:	0002c601 	0x2c601
    45ec:	05cf1900 	0x5cf1900
    45f0:	050c0000 	teqi	t0,0
    45f4:	06270121 	aclr	0x0,289(s1)
    45f8:	db160000 	ldc2	$22,0(t8)
    45fc:	05000004 	bltz	t0,4610 <__isr_vec_space+0x45f0>
    4600:	06270123 	aclr	0x0,291(s1)
    4604:	16000000 	bnez	s0,4608 <__isr_vec_space+0x45e8>
    4608:	000003f2 	tlt	zero,zero,0xf
    460c:	21012405 	addi	at,t0,9221
    4610:	04000000 	bltz	zero,4614 <__isr_vec_space+0x45f4>
    4614:	0004ad16 	0x4ad16
    4618:	01250500 	0x1250500
    461c:	0000062d 	0x62d
    4620:	040f0008 	0x40f0008
    4624:	000005f2 	tlt	zero,zero,0x17
    4628:	05e6040f 	0x5e6040f
    462c:	77190000 	jalx	c640000 <__memory_size+0xc620800>
    4630:	0e000002 	jal	8000008 <__memory_size+0x7fe0808>
    4634:	68013d05 	0x68013d05
    4638:	16000006 	bnez	s0,4654 <__isr_vec_space+0x4634>
    463c:	00000521 	0x521
    4640:	68013e05 	0x68013e05
    4644:	00000006 	srlv	zero,zero,zero
    4648:	00055816 	0x55816
    464c:	013f0500 	0x13f0500
    4650:	00000668 	0x668
    4654:	05741606 	0x5741606
    4658:	40050000 	mfc0	a1,c0_index
    465c:	00004b01 	0x4b01
    4660:	08000c00 	j	3000 <__isr_vec_space+0x2fe0>
    4664:	0000004b 	0x4b
    4668:	00000678 	0x678
    466c:	0000c309 	0xc309
    4670:	1a000200 	blez	s0,4e74 <__isr_vec_space+0x4e54>
    4674:	025805d0 	0x25805d0
    4678:	00000779 	0x779
    467c:	0005b316 	0x5b316
    4680:	025a0500 	0x25a0500
    4684:	0000008d 	break	0x0,0x2
    4688:	055e1600 	0x55e1600
    468c:	5b050000 	0x5b050000
    4690:	00054602 	srl	t0,a1,0x18
    4694:	0e160400 	jal	8581000 <__memory_size+0x8561800>
    4698:	05000004 	bltz	t0,46ac <__isr_vec_space+0x468c>
    469c:	0779025c 	0x779025c
    46a0:	16080000 	bne	s0,t0,46a4 <__isr_vec_space+0x4684>
    46a4:	0000060b 	0x60b
    46a8:	77025d05 	jalx	c097414 <__memory_size+0xc077c14>
    46ac:	24000001 	li	zero,1
    46b0:	0003b116 	0x3b116
    46b4:	025e0500 	0x25e0500
    46b8:	00000021 	move	zero,zero
    46bc:	04d61648 	0x4d61648
    46c0:	5f050000 	0x5f050000
    46c4:	00005902 	srl	t3,zero,0x4
    46c8:	21165000 	addi	s6,t0,20480
    46cc:	05000006 	bltz	t0,46e8 <__isr_vec_space+0x46c8>
    46d0:	06330260 	bgezall	s1,5054 <__isr_vec_space+0x5034>
    46d4:	16580000 	bne	s2,t8,46d8 <__isr_vec_space+0x46b8>
    46d8:	000004e1 	0x4e1
    46dc:	eb026105 	swc2	$2,24837(t8)
    46e0:	68000000 	0x68000000
    46e4:	00062616 	0x62616
    46e8:	02620500 	0x2620500
    46ec:	000000eb 	0xeb
    46f0:	02c21670 	tge	s6,v0,0x59
    46f4:	63050000 	0x63050000
    46f8:	0000eb02 	srl	sp,zero,0xc
    46fc:	de167800 	ldc3	$22,30720(s0)
    4700:	05000005 	bltz	t0,4718 <__isr_vec_space+0x46f8>
    4704:	07890264 	tgeiu	gp,612
    4708:	16800000 	bnez	s4,470c <__isr_vec_space+0x46ec>
    470c:	00000402 	srl	zero,zero,0x10
    4710:	99026505 	lwr	v0,25861(t0)
    4714:	88000007 	lwl	zero,7(zero)
    4718:	00058116 	0x58116
    471c:	02660500 	0x2660500
    4720:	00000021 	move	zero,zero
    4724:	034c16a0 	0x34c16a0
    4728:	67050000 	0x67050000
    472c:	0000eb02 	srl	sp,zero,0xc
    4730:	b316a400 	0xb316a400
    4734:	05000002 	bltz	t0,4740 <__isr_vec_space+0x4720>
    4738:	00eb0268 	0xeb0268
    473c:	16ac0000 	bne	s5,t4,4740 <__isr_vec_space+0x4720>
    4740:	0000033b 	0x33b
    4744:	eb026905 	swc2	$2,26885(t8)
    4748:	b4000000 	0xb4000000
    474c:	00028a16 	0x28a16
    4750:	026a0500 	0x26a0500
    4754:	000000eb 	0xeb
    4758:	029916bc 	0x29916bc
    475c:	6b050000 	0x6b050000
    4760:	0000eb02 	srl	sp,zero,0xc
    4764:	9316c400 	lbu	s6,-15360(t8)
    4768:	05000004 	bltz	t0,477c <__isr_vec_space+0x475c>
    476c:	0021026c 	0x21026c
    4770:	00cc0000 	0xcc0000
    4774:	00054c08 	0x54c08
    4778:	00078900 	sll	s1,a3,0x4
    477c:	00c30900 	0xc30900
    4780:	00190000 	sll	zero,t9,0x0
    4784:	00054c08 	0x54c08
    4788:	00079900 	sll	s3,a3,0x4
    478c:	00c30900 	0xc30900
    4790:	00070000 	sll	zero,a3,0x0
    4794:	00054c08 	0x54c08
    4798:	0007a900 	sll	s5,a3,0x4
    479c:	00c30900 	0xc30900
    47a0:	00170000 	sll	zero,s7,0x0
    47a4:	7105f01a 	udi10	t0,a1,s8,0x0
    47a8:	0007cd02 	srl	t9,a3,0x14
    47ac:	043f1600 	synci	5632(at)
    47b0:	74050000 	jalx	140000 <__memory_size+0x120800>
    47b4:	0007cd02 	srl	t9,a3,0x14
    47b8:	d5160000 	ldc1	$f22,0(t0)
    47bc:	05000005 	bltz	t0,47d4 <__isr_vec_space+0x47b4>
    47c0:	07dd0275 	0x7dd0275
    47c4:	00780000 	0x780000
    47c8:	0002c008 	0x2c008
    47cc:	0007dd00 	sll	k1,a3,0x14
    47d0:	00c30900 	0xc30900
    47d4:	001d0000 	sll	zero,sp,0x0
    47d8:	00008d08 	0x8d08
    47dc:	0007ed00 	sll	sp,a3,0x14
    47e0:	00c30900 	0xc30900
    47e4:	001d0000 	sll	zero,sp,0x0
    47e8:	5605f01b 	bnel	s0,a1,858 <__isr_vec_space+0x838>
    47ec:	00080f02 	srl	at,t0,0x1c
    47f0:	051a1c00 	0x51a1c00
    47f4:	6d050000 	0x6d050000
    47f8:	00067802 	srl	t7,a2,0x0
    47fc:	05f81c00 	0x5f81c00
    4800:	76050000 	jalx	8140000 <__memory_size+0x8120800>
    4804:	0007a902 	srl	s5,a3,0x4
    4808:	4c080000 	lwxc1	$f0,t0(zero)
    480c:	1f000005 	bgtz	t8,4824 <__isr_vec_space+0x4804>
    4810:	09000008 	j	4000020 <__memory_size+0x3fe0820>
    4814:	000000c3 	sra	zero,zero,0x3
    4818:	2a1d0018 	slti	sp,s0,24
    481c:	14000008 	bnez	zero,4840 <__isr_vec_space+0x4820>
    4820:	0000040e 	0x40e
    4824:	1f040f00 	0x1f040f00
    4828:	0f000008 	jal	c000020 <__memory_size+0xbfe0820>
    482c:	00016104 	0x16104
    4830:	08411d00 	j	1047400 <__memory_size+0x1027c00>
    4834:	21140000 	addi	s4,t0,0
    4838:	00000000 	nop
    483c:	0847040f 	j	11c103c <__memory_size+0x11a183c>
    4840:	040f0000 	0x40f0000
    4844:	00000836 	tne	zero,zero,0x20
    4848:	0005e608 	0x5e608
    484c:	00085d00 	sll	t3,t0,0x14
    4850:	00c30900 	0xc30900
    4854:	00020000 	sll	zero,v0,0x0
    4858:	000a8b1e 	0xa8b1e
    485c:	720f0600 	0x720f0600
    4860:	a4000008 	sh	zero,8(zero)
    4864:	0c800018 	jal	2000060 <__memory_size+0x1fe0860>
    4868:	01000000 	0x1000000
    486c:	21040f9c 	addi	a0,t0,3996
    4870:	1f000000 	bgtz	t8,4874 <__isr_vec_space+0x4854>
    4874:	00000595 	0x595
    4878:	0e02fa05 	jal	80be814 <__memory_size+0x809f014>
    487c:	00000004 	sllv	zero,zero,zero

Disassembly of section .debug_abbrev:

00000000 <.debug_abbrev>:
       0:	10001101 	b	4408 <__isr_vec_space+0x43e8>
       4:	12011106 	beq	s0,at,4420 <__isr_vec_space+0x4400>
       8:	1b080301 	0x1b080301
       c:	13082508 	beq	t8,t0,9430 <__isr_vec_space+0x9410>
      10:	00000005 	lsa	zero,zero,zero,0x1
      14:	10001101 	b	441c <__isr_vec_space+0x43fc>
      18:	12011106 	beq	s0,at,4434 <__isr_vec_space+0x4414>
      1c:	1b080301 	0x1b080301
      20:	13082508 	beq	t8,t0,9444 <__isr_vec_space+0x9424>
      24:	00000005 	lsa	zero,zero,zero,0x1
      28:	25011101 	addiu	at,t0,4353
      2c:	030b130e 	0x30b130e
      30:	110e1b0e 	beq	t0,t6,6c6c <__isr_vec_space+0x6c4c>
      34:	10061201 	beq	zero,a2,483c <__isr_vec_space+0x481c>
      38:	02000017 	0x2000017
      3c:	193f012e 	0x193f012e
      40:	0b3a0e03 	j	ce8380c <__memory_size+0xce6400c>
      44:	13490b3b 	beq	k0,t1,2d34 <__isr_vec_space+0x2d14>
      48:	06120111 	bltzall	s0,490 <__isr_vec_space+0x470>
      4c:	42971840 	c0	0x971840
      50:	00130119 	0x130119
      54:	00340300 	0x340300
      58:	0b3a0e03 	j	ce8380c <__memory_size+0xce6400c>
      5c:	13490b3b 	beq	k0,t1,2d4c <__isr_vec_space+0x2d2c>
      60:	00000d1c 	0xd1c
      64:	03003404 	0x3003404
      68:	3b0b3a0e 	xori	t3,t8,0x3a0e
      6c:	0213490b 	0x213490b
      70:	05000017 	bltz	t0,d0 <__isr_vec_space+0xb0>
      74:	08030034 	j	c00d0 <__memory_size+0xa08d0>
      78:	0b3b0b3a 	j	cec2ce8 <__memory_size+0xcea34e8>
      7c:	17021349 	bne	t8,v0,4da4 <__isr_vec_space+0x4d84>
      80:	24060000 	li	a2,0
      84:	3e0b0b00 	0x3e0b0b00
      88:	0008030b 	0x8030b
      8c:	000f0700 	sll	zero,t7,0x1c
      90:	13490b0b 	beq	k0,t1,2cc0 <__isr_vec_space+0x2ca0>
      94:	35080000 	ori	t0,t0,0x0
      98:	00134900 	sll	t1,s3,0x4
      9c:	012e0900 	0x12e0900
      a0:	0e03193f 	jal	80c64fc <__memory_size+0x80a6cfc>
      a4:	0b3b0b3a 	j	cec2ce8 <__memory_size+0xcea34e8>
      a8:	06120111 	bltzall	s0,4f0 <__isr_vec_space+0x4d0>
      ac:	42971840 	c0	0x971840
      b0:	00130119 	0x130119
      b4:	00340a00 	0x340a00
      b8:	0b3a0803 	j	ce8200c <__memory_size+0xce6280c>
      bc:	13490b3b 	beq	k0,t1,2dac <__isr_vec_space+0x2d8c>
      c0:	00001802 	srl	v1,zero,0x0
      c4:	0b00240b 	j	c00902c <__memory_size+0xbfe982c>
      c8:	030b3e0b 	0x30b3e0b
      cc:	0000000e 	0xe
      d0:	25011101 	addiu	at,t0,4353
      d4:	030b130e 	0x30b130e
      d8:	1201110e 	beq	s0,at,4514 <__isr_vec_space+0x44f4>
      dc:	00171006 	srlv	v0,s7,zero
      e0:	00240200 	0x240200
      e4:	0b3e0b0b 	j	cf82c2c <__memory_size+0xcf6342c>
      e8:	00000e03 	sra	at,zero,0x18
      ec:	0b002403 	j	c00900c <__memory_size+0xbfe980c>
      f0:	030b3e0b 	0x30b3e0b
      f4:	04000008 	bltz	zero,118 <__isr_vec_space+0xf8>
      f8:	0b0b000f 	j	c2c003c <__memory_size+0xc2a083c>
      fc:	0f050000 	jal	c140000 <__memory_size+0xc120800>
     100:	490b0b00 	bc2tl	$cc2,2d04 <__isr_vec_space+0x2ce4>
     104:	06000013 	bltz	s0,154 <__isr_vec_space+0x134>
     108:	19270015 	0x19270015
     10c:	04070000 	aclr	0x0,0(zero)
     110:	0b0e0301 	j	c380c04 <__memory_size+0xc361404>
     114:	3b0b3a0b 	xori	t3,t8,0x3a0b
     118:	0013010b 	0x13010b
     11c:	00280800 	0x280800
     120:	0d1c0e03 	jal	470380c <__memory_size+0x46e400c>
     124:	2e090000 	sltiu	t1,s0,0
     128:	03193f01 	0x3193f01
     12c:	3b0b3a0e 	xori	t3,t8,0x3a0e
     130:	4919270b 	bc2t	$cc6,9d60 <__isr_vec_space+0x9d40>
     134:	12011113 	beq	s0,at,4584 <__isr_vec_space+0x4564>
     138:	97184006 	lhu	t8,16390(t8)
     13c:	13011942 	beq	t8,at,6648 <__isr_vec_space+0x6628>
     140:	050a0000 	tlti	t0,0
     144:	3a080300 	xori	t0,s0,0x300
     148:	490b3b0b 	bc2tl	$cc2,ed78 <__isr_vec_space+0xed58>
     14c:	00170213 	0x170213
     150:	82890b00 	lb	t1,2816(s4)
     154:	01110101 	0x1110101
     158:	00001331 	tgeu	zero,zero,0x4c
     15c:	01828a0c 	syscall	0x60a28
     160:	91180200 	lbu	t8,512(t0)
     164:	00001842 	srl	v1,zero,0x1
     168:	3f012e0d 	0x3f012e0d
     16c:	3a0e0319 	xori	t6,s0,0x319
     170:	270b3b0b 	addiu	t3,t8,15115
     174:	3c134919 	lui	s3,0x4919
     178:	0e000019 	jal	8000064 <__memory_size+0x7fe0864>
     17c:	13490005 	beq	k0,t1,194 <__isr_vec_space+0x174>
     180:	01000000 	0x1000000
     184:	0e250111 	jal	8940444 <__memory_size+0x8920c44>
     188:	0e030b13 	jal	80c2c4c <__memory_size+0x80a344c>
     18c:	06120111 	bltzall	s0,5d4 <__isr_vec_space+0x5b4>
     190:	00001710 	0x1710
     194:	0b002402 	j	c009008 <__memory_size+0xbfe9808>
     198:	030b3e0b 	0x30b3e0b
     19c:	0300000e 	0x300000e
     1a0:	0b0b0024 	j	c2c0090 <__memory_size+0xc2a0890>
     1a4:	08030b3e 	j	c2cf8 <__memory_size+0xa34f8>
     1a8:	16040000 	bne	s0,a0,1ac <__isr_vec_space+0x18c>
     1ac:	3a0e0300 	xori	t6,s0,0x300
     1b0:	490b3b0b 	bc2tl	$cc2,ede0 <__isr_vec_space+0xedc0>
     1b4:	05000013 	bltz	t0,204 <__isr_vec_space+0x1e4>
     1b8:	0e030016 	jal	80c0058 <__memory_size+0x80a0858>
     1bc:	053b0b3a 	0x53b0b3a
     1c0:	00001349 	0x1349
     1c4:	0b011706 	j	c045c18 <__memory_size+0xc026418>
     1c8:	3b0b3a0b 	xori	t3,t8,0x3a0b
     1cc:	0013010b 	0x13010b
     1d0:	000d0700 	sll	zero,t5,0x1c
     1d4:	0b3a0e03 	j	ce8380c <__memory_size+0xce6400c>
     1d8:	13490b3b 	beq	k0,t1,2ec8 <__isr_vec_space+0x2ea8>
     1dc:	01080000 	0x1080000
     1e0:	01134901 	0x1134901
     1e4:	09000013 	j	400004c <__memory_size+0x3fe084c>
     1e8:	13490021 	beq	k0,t1,270 <__isr_vec_space+0x250>
     1ec:	00000b2f 	0xb2f
     1f0:	0b01130a 	j	c044c28 <__memory_size+0xc025428>
     1f4:	3b0b3a0b 	xori	t3,t8,0x3a0b
     1f8:	0013010b 	0x13010b
     1fc:	000d0b00 	sll	at,t5,0xc
     200:	0b3a0e03 	j	ce8380c <__memory_size+0xce6400c>
     204:	13490b3b 	beq	k0,t1,2ef4 <__isr_vec_space+0x2ed4>
     208:	00000b38 	0xb38
     20c:	0b000f0c 	j	c003c30 <__memory_size+0xbfe4430>
     210:	0d00000b 	jal	400002c <__memory_size+0x3fe082c>
     214:	0e030113 	jal	80c044c <__memory_size+0x80a0c4c>
     218:	0b3a0b0b 	j	ce82c2c <__memory_size+0xce6342c>
     21c:	13010b3b 	beq	t8,at,2f0c <__isr_vec_space+0x2eec>
     220:	0d0e0000 	jal	4380000 <__memory_size+0x4360800>
     224:	3a080300 	xori	t0,s0,0x300
     228:	490b3b0b 	bc2tl	$cc2,ee58 <__isr_vec_space+0xee38>
     22c:	000b3813 	0xb3813
     230:	000f0f00 	sll	at,t7,0x1c
     234:	13490b0b 	beq	k0,t1,2e64 <__isr_vec_space+0x2e44>
     238:	13100000 	beq	t8,s0,23c <__isr_vec_space+0x21c>
     23c:	0b0e0301 	j	c380c04 <__memory_size+0xc361404>
     240:	3b0b3a05 	xori	t3,t8,0x3a05
     244:	0013010b 	0x13010b
     248:	000d1100 	sll	v0,t5,0x4
     24c:	0b3a0e03 	j	ce8380c <__memory_size+0xce6400c>
     250:	13490b3b 	beq	k0,t1,2f40 <__isr_vec_space+0x2f20>
     254:	00000538 	0x538
     258:	27001512 	addiu	zero,t8,5394
     25c:	13000019 	beqz	t8,2c4 <__isr_vec_space+0x2a4>
     260:	19270115 	0x19270115
     264:	13011349 	beq	t8,at,4f8c <__isr_vec_space+0x4f6c>
     268:	05140000 	0x5140000
     26c:	00134900 	sll	t1,s3,0x4
     270:	01131500 	0x1131500
     274:	050b0e03 	tltiu	t0,3587
     278:	053b0b3a 	0x53b0b3a
     27c:	00001301 	0x1301
     280:	03000d16 	0x3000d16
     284:	3b0b3a0e 	xori	t3,t8,0x3a0e
     288:	38134905 	xori	s3,zero,0x4905
     28c:	1700000b 	bnez	t8,2bc <__isr_vec_space+0x29c>
     290:	0e03000d 	jal	80c0034 <__memory_size+0x80a0834>
     294:	053b0b3a 	0x53b0b3a
     298:	05381349 	0x5381349
     29c:	26180000 	addiu	t8,s0,0
     2a0:	00134900 	sll	t1,s3,0x4
     2a4:	01131900 	0x1131900
     2a8:	0b0b0e03 	j	c2c380c <__memory_size+0xc2a400c>
     2ac:	053b0b3a 	0x53b0b3a
     2b0:	00001301 	0x1301
     2b4:	0b01131a 	j	c044c68 <__memory_size+0xc025468>
     2b8:	3b0b3a0b 	xori	t3,t8,0x3a0b
     2bc:	00130105 	0x130105
     2c0:	01171b00 	0x1171b00
     2c4:	0b3a0b0b 	j	ce82c2c <__memory_size+0xce6342c>
     2c8:	1301053b 	beq	t8,at,17b8 <__isr_vec_space+0x1798>
     2cc:	0d1c0000 	jal	4700000 <__memory_size+0x46e0800>
     2d0:	3a0e0300 	xori	t6,s0,0x300
     2d4:	49053b0b 	bc2t	$cc1,ef04 <__isr_vec_space+0xeee4>
     2d8:	1d000013 	bgtz	t0,328 <__isr_vec_space+0x308>
     2dc:	19270115 	0x19270115
     2e0:	00001301 	0x1301
     2e4:	3f012e1e 	0x3f012e1e
     2e8:	3a0e0319 	xori	t6,s0,0x319
     2ec:	270b3b0b 	addiu	t3,t8,15115
     2f0:	12011119 	beq	s0,at,4758 <__isr_vec_space+0x4738>
     2f4:	96184006 	lhu	t8,16390(s0)
     2f8:	13011942 	beq	t8,at,6804 <__isr_vec_space+0x67e4>
     2fc:	051f0000 	synci	0(t0)
     300:	3a0e0300 	xori	t6,s0,0x300
     304:	490b3b0b 	bc2tl	$cc2,ef34 <__isr_vec_space+0xef14>
     308:	00170213 	0x170213
     30c:	82892000 	lb	t1,8192(s4)
     310:	01110101 	0x1110101
     314:	13011331 	beq	t8,at,4fdc <__isr_vec_space+0x4fbc>
     318:	8a210000 	lwl	at,0(s1)
     31c:	02000182 	0x2000182
     320:	18429118 	0x18429118
     324:	89220000 	lwl	v0,0(t1)
     328:	11010182 	beq	t0,at,934 <__isr_vec_space+0x914>
     32c:	00133101 	0x133101
     330:	00342300 	0x342300
     334:	0b3a0e03 	j	ce8380c <__memory_size+0xce6400c>
     338:	1349053b 	beq	k0,t1,1828 <__isr_vec_space+0x1808>
     33c:	193c193f 	0x193c193f
     340:	2e240000 	sltiu	a0,s1,0
     344:	03193f01 	0x3193f01
     348:	3b0b3a0e 	xori	t3,t8,0x3a0e
     34c:	3c19270b 	lui	t9,0x270b
     350:	00130119 	0x130119
     354:	012e2500 	0x12e2500
     358:	0e03193f 	jal	80c64fc <__memory_size+0x80a6cfc>
     35c:	0b3b0b3a 	j	cec2ce8 <__memory_size+0xcea34e8>
     360:	193c1927 	0x193c1927
     364:	01000000 	0x1000000
     368:	0e250111 	jal	8940444 <__memory_size+0x8920c44>
     36c:	0e030b13 	jal	80c2c4c <__memory_size+0x80a344c>
     370:	00001710 	0x1710
     374:	0b002402 	j	c009008 <__memory_size+0xbfe9808>
     378:	030b3e0b 	0x30b3e0b
     37c:	0300000e 	0x300000e
     380:	0b0b0024 	j	c2c0090 <__memory_size+0xc2a0890>
     384:	08030b3e 	j	c2cf8 <__memory_size+0xa34f8>
     388:	16040000 	bne	s0,a0,38c <__isr_vec_space+0x36c>
     38c:	3a0e0300 	xori	t6,s0,0x300
     390:	490b3b0b 	bc2tl	$cc2,efc0 <__isr_vec_space+0xefa0>
     394:	05000013 	bltz	t0,3e4 <__isr_vec_space+0x3c4>
     398:	0e030016 	jal	80c0058 <__memory_size+0x80a0858>
     39c:	053b0b3a 	0x53b0b3a
     3a0:	00001349 	0x1349
     3a4:	0b011706 	j	c045c18 <__memory_size+0xc026418>
     3a8:	3b0b3a0b 	xori	t3,t8,0x3a0b
     3ac:	0013010b 	0x13010b
     3b0:	000d0700 	sll	zero,t5,0x1c
     3b4:	0b3a0e03 	j	ce8380c <__memory_size+0xce6400c>
     3b8:	13490b3b 	beq	k0,t1,30a8 <__isr_vec_space+0x3088>
     3bc:	01080000 	0x1080000
     3c0:	01134901 	0x1134901
     3c4:	09000013 	j	400004c <__memory_size+0x3fe084c>
     3c8:	13490021 	beq	k0,t1,450 <__isr_vec_space+0x430>
     3cc:	00000b2f 	0xb2f
     3d0:	0b01130a 	j	c044c28 <__memory_size+0xc025428>
     3d4:	3b0b3a0b 	xori	t3,t8,0x3a0b
     3d8:	0013010b 	0x13010b
     3dc:	000d0b00 	sll	at,t5,0xc
     3e0:	0b3a0e03 	j	ce8380c <__memory_size+0xce6400c>
     3e4:	13490b3b 	beq	k0,t1,30d4 <__isr_vec_space+0x30b4>
     3e8:	00000b38 	0xb38
     3ec:	0b000f0c 	j	c003c30 <__memory_size+0xbfe4430>
     3f0:	0d00000b 	jal	400002c <__memory_size+0x3fe082c>
     3f4:	0e030113 	jal	80c044c <__memory_size+0x80a0c4c>
     3f8:	0b3a0b0b 	j	ce82c2c <__memory_size+0xce6342c>
     3fc:	13010b3b 	beq	t8,at,30ec <__isr_vec_space+0x30cc>
     400:	0d0e0000 	jal	4380000 <__memory_size+0x4360800>
     404:	3a080300 	xori	t0,s0,0x300
     408:	490b3b0b 	bc2tl	$cc2,f038 <__isr_vec_space+0xf018>
     40c:	000b3813 	0xb3813
     410:	000f0f00 	sll	at,t7,0x1c
     414:	13490b0b 	beq	k0,t1,3044 <__isr_vec_space+0x3024>
     418:	13100000 	beq	t8,s0,41c <__isr_vec_space+0x3fc>
     41c:	0b0e0301 	j	c380c04 <__memory_size+0xc361404>
     420:	3b0b3a05 	xori	t3,t8,0x3a05
     424:	0013010b 	0x13010b
     428:	000d1100 	sll	v0,t5,0x4
     42c:	0b3a0e03 	j	ce8380c <__memory_size+0xce6400c>
     430:	13490b3b 	beq	k0,t1,3120 <__isr_vec_space+0x3100>
     434:	00000538 	0x538
     438:	27001512 	addiu	zero,t8,5394
     43c:	13000019 	beqz	t8,4a4 <__isr_vec_space+0x484>
     440:	19270115 	0x19270115
     444:	13011349 	beq	t8,at,516c <__isr_vec_space+0x514c>
     448:	05140000 	0x5140000
     44c:	00134900 	sll	t1,s3,0x4
     450:	01131500 	0x1131500
     454:	050b0e03 	tltiu	t0,3587
     458:	053b0b3a 	0x53b0b3a
     45c:	00001301 	0x1301
     460:	03000d16 	0x3000d16
     464:	3b0b3a0e 	xori	t3,t8,0x3a0e
     468:	38134905 	xori	s3,zero,0x4905
     46c:	1700000b 	bnez	t8,49c <__isr_vec_space+0x47c>
     470:	0e03000d 	jal	80c0034 <__memory_size+0x80a0834>
     474:	053b0b3a 	0x53b0b3a
     478:	05381349 	0x5381349
     47c:	26180000 	addiu	t8,s0,0
     480:	00134900 	sll	t1,s3,0x4
     484:	01131900 	0x1131900
     488:	0b0b0e03 	j	c2c380c <__memory_size+0xc2a400c>
     48c:	053b0b3a 	0x53b0b3a
     490:	00001301 	0x1301
     494:	0b01131a 	j	c044c68 <__memory_size+0xc025468>
     498:	3b0b3a0b 	xori	t3,t8,0x3a0b
     49c:	00130105 	0x130105
     4a0:	01171b00 	0x1171b00
     4a4:	0b3a0b0b 	j	ce82c2c <__memory_size+0xce6342c>
     4a8:	1301053b 	beq	t8,at,1998 <__isr_vec_space+0x1978>
     4ac:	0d1c0000 	jal	4700000 <__memory_size+0x46e0800>
     4b0:	3a0e0300 	xori	t6,s0,0x300
     4b4:	49053b0b 	bc2t	$cc1,f0e4 <__isr_vec_space+0xf0c4>
     4b8:	1d000013 	bgtz	t0,508 <__isr_vec_space+0x4e8>
     4bc:	19270115 	0x19270115
     4c0:	00001301 	0x1301
     4c4:	0300341e 	0x300341e
     4c8:	3b0b3a0e 	xori	t3,t8,0x3a0e
     4cc:	0213490b 	0x213490b
     4d0:	1f000018 	bgtz	t8,534 <__isr_vec_space+0x514>
     4d4:	0e030034 	jal	80c00d0 <__memory_size+0x80a08d0>
     4d8:	053b0b3a 	0x53b0b3a
     4dc:	193f1349 	0x193f1349
     4e0:	00001802 	srl	v1,zero,0x0
     4e4:	01110100 	0x1110100
     4e8:	0b130e25 	j	c4c3894 <__memory_size+0xc4a4094>
     4ec:	01110e03 	0x1110e03
     4f0:	17100612 	bne	t8,s0,1d3c <__isr_vec_space+0x1d1c>
     4f4:	24020000 	li	v0,0
     4f8:	3e0b0b00 	0x3e0b0b00
     4fc:	000e030b 	0xe030b
     500:	00160300 	sll	zero,s6,0xc
     504:	0b3a0e03 	j	ce8380c <__memory_size+0xce6400c>
     508:	13490b3b 	beq	k0,t1,31f8 <__isr_vec_space+0x31d8>
     50c:	24040000 	li	a0,0
     510:	3e0b0b00 	0x3e0b0b00
     514:	0008030b 	0x8030b
     518:	00160500 	sll	zero,s6,0x14
     51c:	0b3a0e03 	j	ce8380c <__memory_size+0xce6400c>
     520:	1349053b 	beq	k0,t1,1a10 <__isr_vec_space+0x19f0>
     524:	17060000 	bne	t8,a2,528 <__isr_vec_space+0x508>
     528:	3a0b0b01 	xori	t3,s0,0xb01
     52c:	010b3b0b 	0x10b3b0b
     530:	07000013 	bltz	t8,580 <__isr_vec_space+0x560>
     534:	0e03000d 	jal	80c0034 <__memory_size+0x80a0834>
     538:	0b3b0b3a 	j	cec2ce8 <__memory_size+0xcea34e8>
     53c:	00001349 	0x1349
     540:	49010108 	bc2t	964 <__isr_vec_space+0x944>
     544:	00130113 	0x130113
     548:	00210900 	0x210900
     54c:	0b2f1349 	j	cbc4d24 <__memory_size+0xcba5524>
     550:	130a0000 	beq	t8,t2,554 <__isr_vec_space+0x534>
     554:	3a0b0b01 	xori	t3,s0,0xb01
     558:	010b3b0b 	0x10b3b0b
     55c:	0b000013 	j	c00004c <__memory_size+0xbfe084c>
     560:	0e03000d 	jal	80c0034 <__memory_size+0x80a0834>
     564:	0b3b0b3a 	j	cec2ce8 <__memory_size+0xcea34e8>
     568:	0b381349 	j	ce04d24 <__memory_size+0xcde5524>
     56c:	0f0c0000 	jal	c300000 <__memory_size+0xc2e0800>
     570:	000b0b00 	sll	at,t3,0xc
     574:	01130d00 	0x1130d00
     578:	0b0b0e03 	j	c2c380c <__memory_size+0xc2a400c>
     57c:	0b3b0b3a 	j	cec2ce8 <__memory_size+0xcea34e8>
     580:	00001301 	0x1301
     584:	03000d0e 	0x3000d0e
     588:	3b0b3a08 	xori	t3,t8,0x3a08
     58c:	3813490b 	xori	s3,zero,0x490b
     590:	0f00000b 	jal	c00002c <__memory_size+0xbfe082c>
     594:	0b0b000f 	j	c2c003c <__memory_size+0xc2a083c>
     598:	00001349 	0x1349
     59c:	03011310 	0x3011310
     5a0:	3a050b0e 	xori	a1,s0,0xb0e
     5a4:	010b3b0b 	0x10b3b0b
     5a8:	11000013 	beqz	t0,5f8 <__isr_vec_space+0x5d8>
     5ac:	0e03000d 	jal	80c0034 <__memory_size+0x80a0834>
     5b0:	0b3b0b3a 	j	cec2ce8 <__memory_size+0xcea34e8>
     5b4:	05381349 	0x5381349
     5b8:	15120000 	bne	t0,s2,5bc <__isr_vec_space+0x59c>
     5bc:	00192700 	sll	a0,t9,0x1c
     5c0:	01151300 	0x1151300
     5c4:	13491927 	beq	k0,t1,6a64 <__isr_vec_space+0x6a44>
     5c8:	00001301 	0x1301
     5cc:	49000514 	bc2f	1a20 <__isr_vec_space+0x1a00>
     5d0:	15000013 	bnez	t0,620 <__isr_vec_space+0x600>
     5d4:	0e030113 	jal	80c044c <__memory_size+0x80a0c4c>
     5d8:	0b3a050b 	j	ce8142c <__memory_size+0xce61c2c>
     5dc:	1301053b 	beq	t8,at,1acc <__isr_vec_space+0x1aac>
     5e0:	0d160000 	jal	4580000 <__memory_size+0x4560800>
     5e4:	3a0e0300 	xori	t6,s0,0x300
     5e8:	49053b0b 	bc2t	$cc1,f218 <__isr_vec_space+0xf1f8>
     5ec:	000b3813 	0xb3813
     5f0:	000d1700 	sll	v0,t5,0x1c
     5f4:	0b3a0e03 	j	ce8380c <__memory_size+0xce6400c>
     5f8:	1349053b 	beq	k0,t1,1ae8 <__isr_vec_space+0x1ac8>
     5fc:	00000538 	0x538
     600:	49002618 	bc2f	9e64 <__isr_vec_space+0x9e44>
     604:	19000013 	blez	t0,654 <__isr_vec_space+0x634>
     608:	0e030113 	jal	80c044c <__memory_size+0x80a0c4c>
     60c:	0b3a0b0b 	j	ce82c2c <__memory_size+0xce6342c>
     610:	1301053b 	beq	t8,at,1b00 <__isr_vec_space+0x1ae0>
     614:	131a0000 	beq	t8,k0,618 <__isr_vec_space+0x5f8>
     618:	3a0b0b01 	xori	t3,s0,0xb01
     61c:	01053b0b 	0x1053b0b
     620:	1b000013 	blez	t8,670 <__isr_vec_space+0x650>
     624:	0b0b0117 	j	c2c045c <__memory_size+0xc2a0c5c>
     628:	053b0b3a 	0x53b0b3a
     62c:	00001301 	0x1301
     630:	03000d1c 	0x3000d1c
     634:	3b0b3a0e 	xori	t3,t8,0x3a0e
     638:	00134905 	0x134905
     63c:	01151d00 	0x1151d00
     640:	13011927 	beq	t8,at,6ae0 <__isr_vec_space+0x6ac0>
     644:	041e0000 	0x41e0000
     648:	0b0e0301 	j	c380c04 <__memory_size+0xc361404>
     64c:	3b0b3a0b 	xori	t3,t8,0x3a0b
     650:	0013010b 	0x13010b
     654:	00281f00 	0x281f00
     658:	0d1c0e03 	jal	470380c <__memory_size+0x46e400c>
     65c:	2e200000 	sltiu	zero,s1,0
     660:	03193f01 	0x3193f01
     664:	3b0b3a0e 	xori	t3,t8,0x3a0e
     668:	4919270b 	bc2t	$cc6,a298 <__isr_vec_space+0xa278>
     66c:	12011113 	beq	s0,at,4abc <__isr_vec_space+0x4a9c>
     670:	97184006 	lhu	t8,16390(t8)
     674:	13011942 	beq	t8,at,6b80 <__isr_vec_space+0x6b60>
     678:	05210000 	bgez	t1,67c <__isr_vec_space+0x65c>
     67c:	3a0e0300 	xori	t6,s0,0x300
     680:	490b3b0b 	bc2tl	$cc2,f2b0 <__isr_vec_space+0xf290>
     684:	00170213 	0x170213
     688:	00052200 	sll	a0,a1,0x8
     68c:	0b3a0803 	j	ce8200c <__memory_size+0xce6280c>
     690:	13490b3b 	beq	k0,t1,3380 <__isr_vec_space+0x3360>
     694:	00001702 	srl	v0,zero,0x1c
     698:	03003423 	0x3003423
     69c:	3b0b3a0e 	xori	t3,t8,0x3a0e
     6a0:	0213490b 	0x213490b
     6a4:	24000017 	li	zero,23
     6a8:	08030034 	j	c00d0 <__memory_size+0xa08d0>
     6ac:	0b3b0b3a 	j	cec2ce8 <__memory_size+0xcea34e8>
     6b0:	17021349 	bne	t8,v0,53d8 <__isr_vec_space+0x53b8>
     6b4:	89250000 	lwl	a1,0(t1)
     6b8:	11010182 	beq	t0,at,cc4 <__isr_vec_space+0xca4>
     6bc:	00133101 	0x133101
     6c0:	828a2600 	lb	t2,9728(s4)
     6c4:	18020001 	0x18020001
     6c8:	00184291 	0x184291
     6cc:	00342700 	0x342700
     6d0:	0b3a0e03 	j	ce8380c <__memory_size+0xce6400c>
     6d4:	1349053b 	beq	k0,t1,1bc4 <__isr_vec_space+0x1ba4>
     6d8:	193c193f 	0x193c193f
     6dc:	2e280000 	sltiu	t0,s1,0
     6e0:	03193f01 	0x3193f01
     6e4:	3b0b3a0e 	xori	t3,t8,0x3a0e
     6e8:	4919270b 	bc2t	$cc6,a318 <__isr_vec_space+0xa2f8>
     6ec:	00193c13 	0x193c13
     6f0:	11010000 	beq	t0,at,6f4 <__isr_vec_space+0x6d4>
     6f4:	130e2501 	beq	t8,t6,9afc <__isr_vec_space+0x9adc>
     6f8:	110e030b 	beq	t0,t6,1328 <__isr_vec_space+0x1308>
     6fc:	10061201 	beq	zero,a2,4f04 <__isr_vec_space+0x4ee4>
     700:	02000017 	0x2000017
     704:	0b0b0024 	j	c2c0090 <__memory_size+0xc2a0890>
     708:	0e030b3e 	jal	80c2cf8 <__memory_size+0x80a34f8>
     70c:	24030000 	li	v1,0
     710:	3e0b0b00 	0x3e0b0b00
     714:	0008030b 	0x8030b
     718:	00160400 	sll	zero,s6,0x10
     71c:	0b3a0e03 	j	ce8380c <__memory_size+0xce6400c>
     720:	13490b3b 	beq	k0,t1,3410 <__isr_vec_space+0x33f0>
     724:	16050000 	bne	s0,a1,728 <__isr_vec_space+0x708>
     728:	3a0e0300 	xori	t6,s0,0x300
     72c:	49053b0b 	bc2t	$cc1,f35c <__isr_vec_space+0xf33c>
     730:	06000013 	bltz	s0,780 <__isr_vec_space+0x760>
     734:	0b0b0117 	j	c2c045c <__memory_size+0xc2a0c5c>
     738:	0b3b0b3a 	j	cec2ce8 <__memory_size+0xcea34e8>
     73c:	00001301 	0x1301
     740:	03000d07 	0x3000d07
     744:	3b0b3a0e 	xori	t3,t8,0x3a0e
     748:	0013490b 	0x13490b
     74c:	01010800 	0x1010800
     750:	13011349 	beq	t8,at,5478 <__isr_vec_space+0x5458>
     754:	21090000 	addi	t1,t0,0
     758:	2f134900 	sltiu	s3,t8,18688
     75c:	0a00000b 	j	800002c <__memory_size+0x7fe082c>
     760:	0b0b0113 	j	c2c044c <__memory_size+0xc2a0c4c>
     764:	0b3b0b3a 	j	cec2ce8 <__memory_size+0xcea34e8>
     768:	00001301 	0x1301
     76c:	03000d0b 	0x3000d0b
     770:	3b0b3a0e 	xori	t3,t8,0x3a0e
     774:	3813490b 	xori	s3,zero,0x490b
     778:	0c00000b 	jal	2c <__isr_vec_space+0xc>
     77c:	0b0b000f 	j	c2c003c <__memory_size+0xc2a083c>
     780:	130d0000 	beq	t8,t5,784 <__isr_vec_space+0x764>
     784:	0b0e0301 	j	c380c04 <__memory_size+0xc361404>
     788:	3b0b3a0b 	xori	t3,t8,0x3a0b
     78c:	0013010b 	0x13010b
     790:	000d0e00 	sll	at,t5,0x18
     794:	0b3a0803 	j	ce8200c <__memory_size+0xce6280c>
     798:	13490b3b 	beq	k0,t1,3488 <__isr_vec_space+0x3468>
     79c:	00000b38 	0xb38
     7a0:	0b000f0f 	j	c003c3c <__memory_size+0xbfe443c>
     7a4:	0013490b 	0x13490b
     7a8:	01131000 	0x1131000
     7ac:	050b0e03 	tltiu	t0,3587
     7b0:	0b3b0b3a 	j	cec2ce8 <__memory_size+0xcea34e8>
     7b4:	00001301 	0x1301
     7b8:	03000d11 	0x3000d11
     7bc:	3b0b3a0e 	xori	t3,t8,0x3a0e
     7c0:	3813490b 	xori	s3,zero,0x490b
     7c4:	12000005 	beqz	s0,7dc <__isr_vec_space+0x7bc>
     7c8:	19270015 	0x19270015
     7cc:	15130000 	bne	t0,s3,7d0 <__isr_vec_space+0x7b0>
     7d0:	49192701 	bc2t	$cc6,a3d8 <__isr_vec_space+0xa3b8>
     7d4:	00130113 	0x130113
     7d8:	00051400 	sll	v0,a1,0x10
     7dc:	00001349 	0x1349
     7e0:	03011315 	0x3011315
     7e4:	3a050b0e 	xori	a1,s0,0xb0e
     7e8:	01053b0b 	0x1053b0b
     7ec:	16000013 	bnez	s0,83c <__isr_vec_space+0x81c>
     7f0:	0e03000d 	jal	80c0034 <__memory_size+0x80a0834>
     7f4:	053b0b3a 	0x53b0b3a
     7f8:	0b381349 	j	ce04d24 <__memory_size+0xcde5524>
     7fc:	0d170000 	jal	45c0000 <__memory_size+0x45a0800>
     800:	3a0e0300 	xori	t6,s0,0x300
     804:	49053b0b 	bc2t	$cc1,f434 <__isr_vec_space+0xf414>
     808:	00053813 	0x53813
     80c:	00261800 	0x261800
     810:	00001349 	0x1349
     814:	03011319 	0x3011319
     818:	3a0b0b0e 	xori	t3,s0,0xb0e
     81c:	01053b0b 	0x1053b0b
     820:	1a000013 	blez	s0,870 <__isr_vec_space+0x850>
     824:	0b0b0113 	j	c2c044c <__memory_size+0xc2a0c4c>
     828:	053b0b3a 	0x53b0b3a
     82c:	00001301 	0x1301
     830:	0b01171b 	j	c045c6c <__memory_size+0xc02646c>
     834:	3b0b3a0b 	xori	t3,t8,0x3a0b
     838:	00130105 	0x130105
     83c:	000d1c00 	sll	v1,t5,0x10
     840:	0b3a0e03 	j	ce8380c <__memory_size+0xce6400c>
     844:	1349053b 	beq	k0,t1,1d34 <__isr_vec_space+0x1d14>
     848:	151d0000 	bne	t0,sp,84c <__isr_vec_space+0x82c>
     84c:	01192701 	0x1192701
     850:	1e000013 	bgtz	s0,8a0 <__isr_vec_space+0x880>
     854:	193f012e 	0x193f012e
     858:	0b3a0e03 	j	ce8380c <__memory_size+0xce6400c>
     85c:	19270b3b 	0x19270b3b
     860:	06120111 	bltzall	s0,ca8 <__isr_vec_space+0xc88>
     864:	42961840 	c0	0x961840
     868:	00130119 	0x130119
     86c:	00051f00 	sll	v1,a1,0x1c
     870:	0b3a0e03 	j	ce8380c <__memory_size+0xce6400c>
     874:	13490b3b 	beq	k0,t1,3564 <__isr_vec_space+0x3544>
     878:	00001702 	srl	v0,zero,0x1c
     87c:	03000520 	0x3000520
     880:	3b0b3a08 	xori	t3,t8,0x3a08
     884:	0213490b 	0x213490b
     888:	21000017 	addi	zero,t0,23
     88c:	08030034 	j	c00d0 <__memory_size+0xa08d0>
     890:	0b3b0b3a 	j	cec2ce8 <__memory_size+0xcea34e8>
     894:	17021349 	bne	t8,v0,55bc <__isr_vec_space+0x559c>
     898:	34220000 	ori	v0,at,0x0
     89c:	3a0e0300 	xori	t6,s0,0x300
     8a0:	490b3b0b 	bc2tl	$cc2,f4d0 <__isr_vec_space+0xf4b0>
     8a4:	00170213 	0x170213
     8a8:	000a2300 	sll	a0,t2,0xc
     8ac:	0b3a0e03 	j	ce8380c <__memory_size+0xce6400c>
     8b0:	00000b3b 	0xb3b
     8b4:	55010b24 	bnel	t0,at,3548 <__isr_vec_space+0x3528>
     8b8:	00130117 	0x130117
     8bc:	82892500 	lb	t1,9472(s4)
     8c0:	01110101 	0x1110101
     8c4:	8a260000 	lwl	a2,0(s1)
     8c8:	02000182 	0x2000182
     8cc:	18429118 	0x18429118
     8d0:	89270000 	lwl	a3,0(t1)
     8d4:	11010182 	beq	t0,at,ee0 <__isr_vec_space+0xec0>
     8d8:	00133101 	0x133101
     8dc:	00342800 	0x342800
     8e0:	0b3a0e03 	j	ce8380c <__memory_size+0xce6400c>
     8e4:	13490b3b 	beq	k0,t1,35d4 <__isr_vec_space+0x35b4>
     8e8:	00000b1c 	0xb1c
     8ec:	03003429 	0x3003429
     8f0:	3b0b3a0e 	xori	t3,t8,0x3a0e
     8f4:	3f134905 	0x3f134905
     8f8:	00193c19 	0x193c19
     8fc:	012e2a00 	0x12e2a00
     900:	0e03193f 	jal	80c64fc <__memory_size+0x80a6cfc>
     904:	0b3b0b3a 	j	cec2ce8 <__memory_size+0xcea34e8>
     908:	193c1927 	0x193c1927
     90c:	01000000 	0x1000000
     910:	0e250111 	jal	8940444 <__memory_size+0x8920c44>
     914:	0e030b13 	jal	80c2c4c <__memory_size+0x80a344c>
     918:	06120111 	bltzall	s0,d60 <__isr_vec_space+0xd40>
     91c:	00001710 	0x1710
     920:	0b002402 	j	c009008 <__memory_size+0xbfe9808>
     924:	030b3e0b 	0x30b3e0b
     928:	0300000e 	0x300000e
     92c:	0e030016 	jal	80c0058 <__memory_size+0x80a0858>
     930:	0b3b0b3a 	j	cec2ce8 <__memory_size+0xcea34e8>
     934:	00001349 	0x1349
     938:	0b002404 	j	c009010 <__memory_size+0xbfe9810>
     93c:	030b3e0b 	0x30b3e0b
     940:	05000008 	bltz	t0,964 <__isr_vec_space+0x944>
     944:	193f012e 	0x193f012e
     948:	0b3a0e03 	j	ce8380c <__memory_size+0xce6400c>
     94c:	19270b3b 	0x19270b3b
     950:	06120111 	bltzall	s0,d98 <__isr_vec_space+0xd78>
     954:	42971840 	c0	0x971840
     958:	00130119 	0x130119
     95c:	00050600 	sll	zero,a1,0x18
     960:	0b3a0e03 	j	ce8380c <__memory_size+0xce6400c>
     964:	13490b3b 	beq	k0,t1,3654 <__isr_vec_space+0x3634>
     968:	00001702 	srl	v0,zero,0x1c
     96c:	03003407 	0x3003407
     970:	3b0b3a0e 	xori	t3,t8,0x3a0e
     974:	0213490b 	0x213490b
     978:	08000018 	j	60 <__isr_vec_space+0x40>
     97c:	08030034 	j	c00d0 <__memory_size+0xa08d0>
     980:	0b3b0b3a 	j	cec2ce8 <__memory_size+0xcea34e8>
     984:	18021349 	0x18021349
     988:	89090000 	lwl	t1,0(t0)
     98c:	11010182 	beq	t0,at,f98 <__isr_vec_space+0xf78>
     990:	01133101 	0x1133101
     994:	0a000013 	j	800004c <__memory_size+0x7fe084c>
     998:	0001828a 	0x1828a
     99c:	42911802 	c0	0x911802
     9a0:	0b000018 	j	c000060 <__memory_size+0xbfe0860>
     9a4:	00018289 	0x18289
     9a8:	13310111 	beq	t9,s1,df0 <__isr_vec_space+0xdd0>
     9ac:	010c0000 	0x10c0000
     9b0:	01134901 	0x1134901
     9b4:	0d000013 	jal	400004c <__memory_size+0x3fe084c>
     9b8:	00000021 	move	zero,zero
     9bc:	0300340e 	0x300340e
     9c0:	3b0b3a0e 	xori	t3,t8,0x3a0e
     9c4:	3f13490b 	0x3f13490b
     9c8:	00193c19 	0x193c19
     9cc:	012e0f00 	0x12e0f00
     9d0:	0e03193f 	jal	80c64fc <__memory_size+0x80a6cfc>
     9d4:	0b3b0b3a 	j	cec2ce8 <__memory_size+0xcea34e8>
     9d8:	193c1927 	0x193c1927
     9dc:	00001301 	0x1301
     9e0:	49000510 	bc2f	1e24 <__isr_vec_space+0x1e04>
     9e4:	11000013 	beqz	t0,a34 <__isr_vec_space+0xa14>
     9e8:	193f002e 	0x193f002e
     9ec:	0b3a0e03 	j	ce8380c <__memory_size+0xce6400c>
     9f0:	19270b3b 	0x19270b3b
     9f4:	193c1349 	0x193c1349
     9f8:	01000000 	0x1000000
     9fc:	06100011 	bltzal	s0,a44 <__isr_vec_space+0xa24>
     a00:	01120111 	0x1120111
     a04:	081b0803 	j	6c200c <__memory_size+0x6a280c>
     a08:	05130825 	bgezall	t0,2aa0 <__isr_vec_space+0x2a80>
     a0c:	01000000 	0x1000000
     a10:	0e250111 	jal	8940444 <__memory_size+0x8920c44>
     a14:	0e030b13 	jal	80c2c4c <__memory_size+0x80a344c>
     a18:	06120111 	bltzall	s0,e60 <__isr_vec_space+0xe40>
     a1c:	00001710 	0x1710
     a20:	0b002402 	j	c009008 <__memory_size+0xbfe9808>
     a24:	030b3e0b 	0x30b3e0b
     a28:	0300000e 	0x300000e
     a2c:	0e030016 	jal	80c0058 <__memory_size+0x80a0858>
     a30:	0b3b0b3a 	j	cec2ce8 <__memory_size+0xcea34e8>
     a34:	00001349 	0x1349
     a38:	0b002404 	j	c009010 <__memory_size+0xbfe9810>
     a3c:	030b3e0b 	0x30b3e0b
     a40:	05000008 	bltz	t0,a64 <__isr_vec_space+0xa44>
     a44:	0b0b000f 	j	c2c003c <__memory_size+0xc2a083c>
     a48:	2e060000 	sltiu	a2,s0,0
     a4c:	03193f01 	0x3193f01
     a50:	3b0b3a0e 	xori	t3,t8,0x3a0e
     a54:	1119270b 	beq	t0,t9,a684 <__isr_vec_space+0xa664>
     a58:	40061201 	0x40061201
     a5c:	19429718 	0x19429718
     a60:	00001301 	0x1301
     a64:	03000507 	0x3000507
     a68:	3b0b3a0e 	xori	t3,t8,0x3a0e
     a6c:	0213490b 	0x213490b
     a70:	08000017 	j	5c <__isr_vec_space+0x3c>
     a74:	08030034 	j	c00d0 <__memory_size+0xa08d0>
     a78:	0b3b0b3a 	j	cec2ce8 <__memory_size+0xcea34e8>
     a7c:	18021349 	0x18021349
     a80:	34090000 	li	t1,0x0
     a84:	3a0e0300 	xori	t6,s0,0x300
     a88:	490b3b0b 	bc2tl	$cc2,f6b8 <__isr_vec_space+0xf698>
     a8c:	00180213 	0x180213
     a90:	000f0a00 	sll	at,t7,0x8
     a94:	13490b0b 	beq	k0,t1,36c4 <__isr_vec_space+0x36a4>
     a98:	010b0000 	0x10b0000
     a9c:	01134901 	0x1134901
     aa0:	0c000013 	jal	4c <__isr_vec_space+0x2c>
     aa4:	00000021 	move	zero,zero
     aa8:	0300340d 	break	0x300,0xd0
     aac:	3b0b3a0e 	xori	t3,t8,0x3a0e
     ab0:	3f13490b 	0x3f13490b
     ab4:	00193c19 	0x193c19
     ab8:	11010000 	beq	t0,at,abc <__isr_vec_space+0xa9c>
     abc:	55061000 	bnel	t0,a2,4ac0 <__isr_vec_space+0x4aa0>
     ac0:	1b080306 	0x1b080306
     ac4:	13082508 	beq	t8,t0,9ee8 <__isr_vec_space+0x9ec8>
     ac8:	00000005 	lsa	zero,zero,zero,0x1
     acc:	25011101 	addiu	at,t0,4353
     ad0:	030b130e 	0x30b130e
     ad4:	1201110e 	beq	s0,at,4f10 <__isr_vec_space+0x4ef0>
     ad8:	00171006 	srlv	v0,s7,zero
     adc:	00160200 	sll	zero,s6,0x8
     ae0:	0b3a0e03 	j	ce8380c <__memory_size+0xce6400c>
     ae4:	13490b3b 	beq	k0,t1,37d4 <__isr_vec_space+0x37b4>
     ae8:	24030000 	li	v1,0
     aec:	3e0b0b00 	0x3e0b0b00
     af0:	000e030b 	0xe030b
     af4:	00240400 	0x240400
     af8:	0b3e0b0b 	j	cf82c2c <__memory_size+0xcf6342c>
     afc:	00000803 	sra	at,zero,0x0
     b00:	0b000f05 	j	c003c14 <__memory_size+0xbfe4414>
     b04:	0013490b 	0x13490b
     b08:	00260600 	0x260600
     b0c:	00001349 	0x1349
     b10:	00002607 	0x2607
     b14:	00160800 	sll	at,s6,0x0
     b18:	0b3a0e03 	j	ce8380c <__memory_size+0xce6400c>
     b1c:	1349053b 	beq	k0,t1,200c <__isr_vec_space+0x1fec>
     b20:	13090000 	beq	t8,t1,b24 <__isr_vec_space+0xb04>
     b24:	3a0b0b01 	xori	t3,s0,0xb01
     b28:	010b3b0b 	0x10b3b0b
     b2c:	0a000013 	j	800004c <__memory_size+0x7fe084c>
     b30:	0803000d 	j	c0034 <__memory_size+0xa0834>
     b34:	0b3b0b3a 	j	cec2ce8 <__memory_size+0xcea34e8>
     b38:	0b381349 	j	ce04d24 <__memory_size+0xcde5524>
     b3c:	010b0000 	0x10b0000
     b40:	01134901 	0x1134901
     b44:	0c000013 	jal	4c <__isr_vec_space+0x2c>
     b48:	13490021 	beq	k0,t1,bd0 <__isr_vec_space+0xbb0>
     b4c:	00000b2f 	0xb2f
     b50:	0b01170d 	j	c045c34 <__memory_size+0xc026434>
     b54:	3b0b3a0b 	xori	t3,t8,0x3a0b
     b58:	0013010b 	0x13010b
     b5c:	000d0e00 	sll	at,t5,0x18
     b60:	00001349 	0x1349
     b64:	03000d0f 	0x3000d0f
     b68:	3b0b3a08 	xori	t3,t8,0x3a08
     b6c:	0013490b 	0x13490b
     b70:	01131000 	0x1131000
     b74:	0b0b0e03 	j	c2c380c <__memory_size+0xc2a400c>
     b78:	0b3b0b3a 	j	cec2ce8 <__memory_size+0xcea34e8>
     b7c:	00001301 	0x1301
     b80:	49000d11 	bc2f	3fc8 <__isr_vec_space+0x3fa8>
     b84:	000b3813 	0xb3813
     b88:	000d1200 	sll	v0,t5,0x8
     b8c:	0b3a0803 	j	ce8200c <__memory_size+0xce6280c>
     b90:	1349053b 	beq	k0,t1,2080 <__isr_vec_space+0x2060>
     b94:	00000b38 	0xb38
     b98:	03000d13 	0x3000d13
     b9c:	3b0b3a0e 	xori	t3,t8,0x3a0e
     ba0:	38134905 	xori	s3,zero,0x4905
     ba4:	1400000b 	bnez	zero,bd4 <__isr_vec_space+0xbb4>
     ba8:	0e030113 	jal	80c044c <__memory_size+0x80a0c4c>
     bac:	0b3a0b0b 	j	ce82c2c <__memory_size+0xce6342c>
     bb0:	1301053b 	beq	t8,at,20a0 <__isr_vec_space+0x2080>
     bb4:	2e150000 	sltiu	s5,s0,0
     bb8:	3a0e0301 	xori	t6,s0,0x301
     bbc:	270b3b0b 	addiu	t3,t8,15115
     bc0:	010b2019 	0x10b2019
     bc4:	16000013 	bnez	s0,c14 <__isr_vec_space+0xbf4>
     bc8:	08030005 	j	c0014 <__memory_size+0xa0814>
     bcc:	0b3b0b3a 	j	cec2ce8 <__memory_size+0xcea34e8>
     bd0:	00001349 	0x1349
     bd4:	03000517 	0x3000517
     bd8:	3b0b3a0e 	xori	t3,t8,0x3a0e
     bdc:	0013490b 	0x13490b
     be0:	00341800 	0x341800
     be4:	0b3a0803 	j	ce8200c <__memory_size+0xce6280c>
     be8:	13490b3b 	beq	k0,t1,38d8 <__isr_vec_space+0x38b8>
     bec:	34190000 	li	t9,0x0
     bf0:	3a0e0300 	xori	t6,s0,0x300
     bf4:	490b3b0b 	bc2tl	$cc2,f824 <__isr_vec_space+0xf804>
     bf8:	1a000013 	blez	s0,c48 <__isr_vec_space+0xc28>
     bfc:	13490021 	beq	k0,t1,c84 <__isr_vec_space+0xc64>
     c00:	2e1b0000 	sltiu	k1,s0,0
     c04:	11133101 	beq	t0,s3,d00c <__isr_vec_space+0xcfec>
     c08:	40061201 	0x40061201
     c0c:	19429718 	0x19429718
     c10:	00001301 	0x1301
     c14:	3100051c 	andi	zero,t0,0x51c
     c18:	00170213 	0x170213
     c1c:	00341d00 	0x341d00
     c20:	13491331 	beq	k0,t1,58e8 <__isr_vec_space+0x58c8>
     c24:	00001702 	srl	v0,zero,0x1c
     c28:	3100341e 	andi	zero,t0,0x341e
     c2c:	00170213 	0x170213
     c30:	00051f00 	sll	v1,a1,0x1c
     c34:	0b1c1331 	j	c704cc4 <__memory_size+0xc6e54c4>
     c38:	89200000 	lwl	zero,0(t1)
     c3c:	11010182 	beq	t0,at,1248 <__isr_vec_space+0x1228>
     c40:	01133101 	0x1133101
     c44:	21000013 	addi	zero,t0,19
     c48:	0001828a 	0x1828a
     c4c:	42911802 	c0	0x911802
     c50:	22000018 	addi	zero,s0,24
     c54:	01018289 	0x1018289
     c58:	13310111 	beq	t9,s1,10a0 <__isr_vec_space+0x1080>
     c5c:	21230000 	addi	v1,t1,0
     c60:	2f134900 	sltiu	s3,t8,18688
     c64:	24000018 	li	zero,24
     c68:	0e03012e 	jal	80c04b8 <__memory_size+0x80a0cb8>
     c6c:	0b3b0b3a 	j	cec2ce8 <__memory_size+0xcea34e8>
     c70:	01111927 	0x1111927
     c74:	18400612 	blez	v0,24c0 <__isr_vec_space+0x24a0>
     c78:	01194297 	0x1194297
     c7c:	25000013 	addiu	zero,t0,19
     c80:	08030005 	j	c0014 <__memory_size+0xa0814>
     c84:	0b3b0b3a 	j	cec2ce8 <__memory_size+0xcea34e8>
     c88:	17021349 	bne	t8,v0,59b0 <__isr_vec_space+0x5990>
     c8c:	05260000 	0x5260000
     c90:	3a0e0300 	xori	t6,s0,0x300
     c94:	490b3b0b 	bc2tl	$cc2,f8c4 <__isr_vec_space+0xf8a4>
     c98:	00170213 	0x170213
     c9c:	82892700 	lb	t1,9984(s4)
     ca0:	01110101 	0x1110101
     ca4:	31194295 	andi	t9,t0,0x4295
     ca8:	28000013 	slti	zero,zero,19
     cac:	193f012e 	0x193f012e
     cb0:	0b3a0e03 	j	ce8380c <__memory_size+0xce6400c>
     cb4:	19270b3b 	0x19270b3b
     cb8:	06120111 	bltzall	s0,1100 <__isr_vec_space+0x10e0>
     cbc:	42971840 	c0	0x971840
     cc0:	00130119 	0x130119
     cc4:	010b2900 	0x10b2900
     cc8:	06120111 	bltzall	s0,1110 <__isr_vec_space+0x10f0>
     ccc:	00001301 	0x1301
     cd0:	0300342a 	0x300342a
     cd4:	3b0b3a08 	xori	t3,t8,0x3a08
     cd8:	0213490b 	0x213490b
     cdc:	2b000017 	slti	zero,t8,23
     ce0:	0111010b 	0x111010b
     ce4:	00000612 	0x612
     ce8:	0182892c 	0x182892c
     cec:	31011100 	andi	at,t0,0x1100
     cf0:	2d000013 	sltiu	zero,t0,19
     cf4:	00000021 	move	zero,zero
     cf8:	0300342e 	0x300342e
     cfc:	3b0b3a0e 	xori	t3,t8,0x3a0e
     d00:	3f13490b 	0x3f13490b
     d04:	00193c19 	0x193c19
     d08:	012e2f00 	0x12e2f00
     d0c:	0e03193f 	jal	80c64fc <__memory_size+0x80a6cfc>
     d10:	0b3b0b3a 	j	cec2ce8 <__memory_size+0xcea34e8>
     d14:	13491927 	beq	k0,t1,71b4 <__isr_vec_space+0x7194>
     d18:	1301193c 	beq	t8,at,720c <__isr_vec_space+0x71ec>
     d1c:	05300000 	bltzal	t1,d20 <__isr_vec_space+0xd00>
     d20:	00134900 	sll	t1,s3,0x4
     d24:	012e3100 	0x12e3100
     d28:	0e03193f 	jal	80c64fc <__memory_size+0x80a6cfc>
     d2c:	053b0b3a 	0x53b0b3a
     d30:	13491927 	beq	k0,t1,71d0 <__isr_vec_space+0x71b0>
     d34:	1301193c 	beq	t8,at,7228 <__isr_vec_space+0x7208>
     d38:	2e320000 	sltiu	s2,s1,0
     d3c:	03193f00 	0x3193f00
     d40:	3b0b3a0e 	xori	t3,t8,0x3a0e
     d44:	49192705 	bc2t	$cc6,a95c <__isr_vec_space+0xa93c>
     d48:	00193c13 	0x193c13
     d4c:	012e3300 	0x12e3300
     d50:	0e03193f 	jal	80c64fc <__memory_size+0x80a6cfc>
     d54:	053b0b3a 	0x53b0b3a
     d58:	13491927 	beq	k0,t1,71f8 <__isr_vec_space+0x71d8>
     d5c:	0000193c 	0x193c
     d60:	00110100 	sll	zero,s1,0x4
     d64:	01110610 	0x1110610
     d68:	08030112 	j	c0448 <__memory_size+0xa0c48>
     d6c:	0825081b 	j	94206c <__memory_size+0x92286c>
     d70:	00000513 	0x513
     d74:	00110100 	sll	zero,s1,0x4
     d78:	01110610 	0x1110610
     d7c:	08030112 	j	c0448 <__memory_size+0xa0c48>
     d80:	0825081b 	j	94206c <__memory_size+0x92286c>
     d84:	00000513 	0x513
     d88:	00110100 	sll	zero,s1,0x4
     d8c:	01110610 	0x1110610
     d90:	08030112 	j	c0448 <__memory_size+0xa0c48>
     d94:	0825081b 	j	94206c <__memory_size+0x92286c>
     d98:	00000513 	0x513
     d9c:	01110100 	0x1110100
     da0:	0b130e25 	j	c4c3894 <__memory_size+0xc4a4094>
     da4:	17100e03 	bne	t8,s0,45b4 <__isr_vec_space+0x4594>
     da8:	24020000 	li	v0,0
     dac:	3e0b0b00 	0x3e0b0b00
     db0:	000e030b 	0xe030b
     db4:	00240300 	0x240300
     db8:	0b3e0b0b 	j	cf82c2c <__memory_size+0xcf6342c>
     dbc:	00000803 	sra	at,zero,0x0
     dc0:	01110100 	0x1110100
     dc4:	0b130e25 	j	c4c3894 <__memory_size+0xc4a4094>
     dc8:	01110e03 	0x1110e03
     dcc:	17100612 	bne	t8,s0,2618 <__isr_vec_space+0x25f8>
     dd0:	24020000 	li	v0,0
     dd4:	3e0b0b00 	0x3e0b0b00
     dd8:	000e030b 	0xe030b
     ddc:	00160300 	sll	zero,s6,0xc
     de0:	0b3a0e03 	j	ce8380c <__memory_size+0xce6400c>
     de4:	13490b3b 	beq	k0,t1,3ad4 <__isr_vec_space+0x3ab4>
     de8:	24040000 	li	a0,0
     dec:	3e0b0b00 	0x3e0b0b00
     df0:	0008030b 	0x8030b
     df4:	012e0500 	0x12e0500
     df8:	0e03193f 	jal	80c64fc <__memory_size+0x80a6cfc>
     dfc:	0b3b0b3a 	j	cec2ce8 <__memory_size+0xcea34e8>
     e00:	13491927 	beq	k0,t1,72a0 <__isr_vec_space+0x7280>
     e04:	06120111 	bltzall	s0,124c <__isr_vec_space+0x122c>
     e08:	42971840 	c0	0x971840
     e0c:	00130119 	0x130119
     e10:	00050600 	sll	zero,a1,0x18
     e14:	0b3a0803 	j	ce8200c <__memory_size+0xce6280c>
     e18:	13490b3b 	beq	k0,t1,3b08 <__isr_vec_space+0x3ae8>
     e1c:	00001702 	srl	v0,zero,0x1c
     e20:	03000507 	0x3000507
     e24:	3b0b3a0e 	xori	t3,t8,0x3a0e
     e28:	0213490b 	0x213490b
     e2c:	08000017 	j	5c <__isr_vec_space+0x3c>
     e30:	0e030034 	jal	80c00d0 <__memory_size+0x80a08d0>
     e34:	0b3b0b3a 	j	cec2ce8 <__memory_size+0xcea34e8>
     e38:	18021349 	0x18021349
     e3c:	34090000 	li	t1,0x0
     e40:	3a080300 	xori	t0,s0,0x300
     e44:	490b3b0b 	bc2tl	$cc2,fa74 <__isr_vec_space+0xfa54>
     e48:	00180213 	0x180213
     e4c:	010b0a00 	0x10b0a00
     e50:	06120111 	bltzall	s0,1298 <__isr_vec_space+0x1278>
     e54:	890b0000 	lwl	t3,0(t0)
     e58:	11000182 	beqz	t0,1464 <__isr_vec_space+0x1444>
     e5c:	00133101 	0x133101
     e60:	000f0c00 	sll	at,t7,0x10
     e64:	13490b0b 	beq	k0,t1,3a94 <__isr_vec_space+0x3a74>
     e68:	260d0000 	addiu	t5,s0,0
     e6c:	0e000000 	jal	8000000 <__memory_size+0x7fe0800>
     e70:	13490035 	beq	k0,t1,f48 <__isr_vec_space+0xf28>
     e74:	2e0f0000 	sltiu	t7,s0,0
     e78:	03193f00 	0x3193f00
     e7c:	3b0b3a0e 	xori	t3,t8,0x3a0e
     e80:	4919270b 	bc2t	$cc6,aab0 <__isr_vec_space+0xaa90>
     e84:	00193c13 	0x193c13
     e88:	11010000 	beq	t0,at,e8c <__isr_vec_space+0xe6c>
     e8c:	130e2501 	beq	t8,t6,a294 <__isr_vec_space+0xa274>
     e90:	110e030b 	beq	t0,t6,1ac0 <__isr_vec_space+0x1aa0>
     e94:	10061201 	beq	zero,a2,569c <__isr_vec_space+0x567c>
     e98:	02000017 	0x2000017
     e9c:	0b0b0024 	j	c2c0090 <__memory_size+0xc2a0890>
     ea0:	0e030b3e 	jal	80c2cf8 <__memory_size+0x80a34f8>
     ea4:	16030000 	bne	s0,v1,ea8 <__isr_vec_space+0xe88>
     ea8:	3a0e0300 	xori	t6,s0,0x300
     eac:	490b3b0b 	bc2tl	$cc2,fadc <__isr_vec_space+0xfabc>
     eb0:	04000013 	bltz	zero,f00 <__isr_vec_space+0xee0>
     eb4:	0b0b0024 	j	c2c0090 <__memory_size+0xc2a0890>
     eb8:	08030b3e 	j	c2cf8 <__memory_size+0xa34f8>
     ebc:	16050000 	bne	s0,a1,ec0 <__isr_vec_space+0xea0>
     ec0:	3a0e0300 	xori	t6,s0,0x300
     ec4:	49053b0b 	bc2t	$cc1,faf4 <__isr_vec_space+0xfad4>
     ec8:	06000013 	bltz	s0,f18 <__isr_vec_space+0xef8>
     ecc:	0b0b0113 	j	c2c044c <__memory_size+0xc2a0c4c>
     ed0:	0b3b0b3a 	j	cec2ce8 <__memory_size+0xcea34e8>
     ed4:	00001301 	0x1301
     ed8:	03000d07 	0x3000d07
     edc:	3b0b3a08 	xori	t3,t8,0x3a08
     ee0:	3813490b 	xori	s3,zero,0x490b
     ee4:	0800000b 	j	2c <__isr_vec_space+0xc>
     ee8:	13490101 	beq	k0,t1,12f0 <__isr_vec_space+0x12d0>
     eec:	00001301 	0x1301
     ef0:	49002109 	bc2f	9318 <__isr_vec_space+0x92f8>
     ef4:	000b2f13 	0xb2f13
     ef8:	01170a00 	0x1170a00
     efc:	0b3a0b0b 	j	ce82c2c <__memory_size+0xce6342c>
     f00:	13010b3b 	beq	t8,at,3bf0 <__isr_vec_space+0x3bd0>
     f04:	0d0b0000 	jal	42c0000 <__memory_size+0x42a0800>
     f08:	00134900 	sll	t1,s3,0x4
     f0c:	000d0c00 	sll	at,t5,0x10
     f10:	0b3a0803 	j	ce8200c <__memory_size+0xce6280c>
     f14:	13490b3b 	beq	k0,t1,3c04 <__isr_vec_space+0x3be4>
     f18:	130d0000 	beq	t8,t5,f1c <__isr_vec_space+0xefc>
     f1c:	0b0e0301 	j	c380c04 <__memory_size+0xc361404>
     f20:	3b0b3a0b 	xori	t3,t8,0x3a0b
     f24:	0013010b 	0x13010b
     f28:	000d0e00 	sll	at,t5,0x18
     f2c:	0b381349 	j	ce04d24 <__memory_size+0xcde5524>
     f30:	0d0f0000 	jal	43c0000 <__memory_size+0x43a0800>
     f34:	3a080300 	xori	t0,s0,0x300
     f38:	49053b0b 	bc2t	$cc1,fb68 <__isr_vec_space+0xfb48>
     f3c:	000b3813 	0xb3813
     f40:	000d1000 	sll	v0,t5,0x0
     f44:	0b3a0e03 	j	ce8380c <__memory_size+0xce6400c>
     f48:	1349053b 	beq	k0,t1,2438 <__isr_vec_space+0x2418>
     f4c:	00000b38 	0xb38
     f50:	03011311 	0x3011311
     f54:	3a0b0b0e 	xori	t3,s0,0xb0e
     f58:	01053b0b 	0x1053b0b
     f5c:	12000013 	beqz	s0,fac <__isr_vec_space+0xf8c>
     f60:	0b0b000f 	j	c2c003c <__memory_size+0xc2a083c>
     f64:	00001349 	0x1349
     f68:	3f012e13 	0x3f012e13
     f6c:	3a0e0319 	xori	t6,s0,0x319
     f70:	270b3b0b 	addiu	t3,t8,15115
     f74:	11134919 	beq	t0,s3,133dc <__isr_vec_space+0x133bc>
     f78:	40061201 	0x40061201
     f7c:	19429718 	0x19429718
     f80:	00001301 	0x1301
     f84:	03000514 	0x3000514
     f88:	3b0b3a08 	xori	t3,t8,0x3a08
     f8c:	0213490b 	0x213490b
     f90:	15000018 	bnez	t0,ff4 <__isr_vec_space+0xfd4>
     f94:	0e030034 	jal	80c00d0 <__memory_size+0x80a08d0>
     f98:	0b3b0b3a 	j	cec2ce8 <__memory_size+0xcea34e8>
     f9c:	18021349 	0x18021349
     fa0:	34160000 	li	s6,0x0
     fa4:	3a080300 	xori	t0,s0,0x300
     fa8:	490b3b0b 	bc2tl	$cc2,fbd8 <__isr_vec_space+0xfbb8>
     fac:	00180213 	0x180213
     fb0:	11010000 	beq	t0,at,fb4 <__isr_vec_space+0xf94>
     fb4:	130e2501 	beq	t8,t6,a3bc <__isr_vec_space+0xa39c>
     fb8:	110e030b 	beq	t0,t6,1be8 <__isr_vec_space+0x1bc8>
     fbc:	10061201 	beq	zero,a2,57c4 <__isr_vec_space+0x57a4>
     fc0:	02000017 	0x2000017
     fc4:	0b0b0024 	j	c2c0090 <__memory_size+0xc2a0890>
     fc8:	0e030b3e 	jal	80c2cf8 <__memory_size+0x80a34f8>
     fcc:	16030000 	bne	s0,v1,fd0 <__isr_vec_space+0xfb0>
     fd0:	3a0e0300 	xori	t6,s0,0x300
     fd4:	49053b0b 	bc2t	$cc1,fc04 <__isr_vec_space+0xfbe4>
     fd8:	04000013 	bltz	zero,1028 <__isr_vec_space+0x1008>
     fdc:	0b0b0024 	j	c2c0090 <__memory_size+0xc2a0890>
     fe0:	08030b3e 	j	c2cf8 <__memory_size+0xa34f8>
     fe4:	16050000 	bne	s0,a1,fe8 <__isr_vec_space+0xfc8>
     fe8:	3a0e0300 	xori	t6,s0,0x300
     fec:	490b3b0b 	bc2tl	$cc2,fc1c <__isr_vec_space+0xfbfc>
     ff0:	06000013 	bltz	s0,1040 <__isr_vec_space+0x1020>
     ff4:	0b0b0113 	j	c2c044c <__memory_size+0xc2a0c4c>
     ff8:	0b3b0b3a 	j	cec2ce8 <__memory_size+0xcea34e8>
     ffc:	00001301 	0x1301
    1000:	03000d07 	0x3000d07
    1004:	3b0b3a08 	xori	t3,t8,0x3a08
    1008:	3813490b 	xori	s3,zero,0x490b
    100c:	0800000b 	j	2c <__isr_vec_space+0xc>
    1010:	13490101 	beq	k0,t1,1418 <__isr_vec_space+0x13f8>
    1014:	00001301 	0x1301
    1018:	49002109 	bc2f	9440 <__isr_vec_space+0x9420>
    101c:	000b2f13 	0xb2f13
    1020:	01170a00 	0x1170a00
    1024:	0b3a0b0b 	j	ce82c2c <__memory_size+0xce6342c>
    1028:	13010b3b 	beq	t8,at,3d18 <__isr_vec_space+0x3cf8>
    102c:	0d0b0000 	jal	42c0000 <__memory_size+0x42a0800>
    1030:	00134900 	sll	t1,s3,0x4
    1034:	000d0c00 	sll	at,t5,0x10
    1038:	0b3a0803 	j	ce8200c <__memory_size+0xce6280c>
    103c:	13490b3b 	beq	k0,t1,3d2c <__isr_vec_space+0x3d0c>
    1040:	130d0000 	beq	t8,t5,1044 <__isr_vec_space+0x1024>
    1044:	0b0e0301 	j	c380c04 <__memory_size+0xc361404>
    1048:	3b0b3a0b 	xori	t3,t8,0x3a0b
    104c:	0013010b 	0x13010b
    1050:	000d0e00 	sll	at,t5,0x18
    1054:	0b381349 	j	ce04d24 <__memory_size+0xcde5524>
    1058:	0d0f0000 	jal	43c0000 <__memory_size+0x43a0800>
    105c:	3a080300 	xori	t0,s0,0x300
    1060:	49053b0b 	bc2t	$cc1,fc90 <__isr_vec_space+0xfc70>
    1064:	000b3813 	0xb3813
    1068:	000d1000 	sll	v0,t5,0x0
    106c:	0b3a0e03 	j	ce8380c <__memory_size+0xce6400c>
    1070:	1349053b 	beq	k0,t1,2560 <__isr_vec_space+0x2540>
    1074:	00000b38 	0xb38
    1078:	03011311 	0x3011311
    107c:	3a0b0b0e 	xori	t3,s0,0xb0e
    1080:	01053b0b 	0x1053b0b
    1084:	12000013 	beqz	s0,10d4 <__isr_vec_space+0x10b4>
    1088:	0b0b000f 	j	c2c003c <__memory_size+0xc2a083c>
    108c:	00001349 	0x1349
    1090:	3f012e13 	0x3f012e13
    1094:	3a0e0319 	xori	t6,s0,0x319
    1098:	270b3b0b 	addiu	t3,t8,15115
    109c:	11134919 	beq	t0,s3,13504 <__isr_vec_space+0x134e4>
    10a0:	40061201 	0x40061201
    10a4:	19429718 	0x19429718
    10a8:	00001301 	0x1301
    10ac:	03000514 	0x3000514
    10b0:	3b0b3a08 	xori	t3,t8,0x3a08
    10b4:	0213490b 	0x213490b
    10b8:	15000017 	bnez	t0,1118 <__isr_vec_space+0x10f8>
    10bc:	0e030034 	jal	80c00d0 <__memory_size+0x80a08d0>
    10c0:	0b3b0b3a 	j	cec2ce8 <__memory_size+0xcea34e8>
    10c4:	18021349 	0x18021349
    10c8:	34160000 	li	s6,0x0
    10cc:	3a080300 	xori	t0,s0,0x300
    10d0:	490b3b0b 	bc2tl	$cc2,fd00 <__isr_vec_space+0xfce0>
    10d4:	00180213 	0x180213
    10d8:	11010000 	beq	t0,at,10dc <__isr_vec_space+0x10bc>
    10dc:	130e2501 	beq	t8,t6,a4e4 <__isr_vec_space+0xa4c4>
    10e0:	110e030b 	beq	t0,t6,1d10 <__isr_vec_space+0x1cf0>
    10e4:	10061201 	beq	zero,a2,58ec <__isr_vec_space+0x58cc>
    10e8:	02000017 	0x2000017
    10ec:	0b0b0024 	j	c2c0090 <__memory_size+0xc2a0890>
    10f0:	08030b3e 	j	c2cf8 <__memory_size+0xa34f8>
    10f4:	24030000 	li	v1,0
    10f8:	3e0b0b00 	0x3e0b0b00
    10fc:	000e030b 	0xe030b
    1100:	00160400 	sll	zero,s6,0x10
    1104:	0b3a0e03 	j	ce8380c <__memory_size+0xce6400c>
    1108:	13490b3b 	beq	k0,t1,3df8 <__isr_vec_space+0x3dd8>
    110c:	16050000 	bne	s0,a1,1110 <__isr_vec_space+0x10f0>
    1110:	3a0e0300 	xori	t6,s0,0x300
    1114:	49053b0b 	bc2t	$cc1,fd44 <__isr_vec_space+0xfd24>
    1118:	06000013 	bltz	s0,1168 <__isr_vec_space+0x1148>
    111c:	0b0b0117 	j	c2c045c <__memory_size+0xc2a0c5c>
    1120:	0b3b0b3a 	j	cec2ce8 <__memory_size+0xcea34e8>
    1124:	00001301 	0x1301
    1128:	03000d07 	0x3000d07
    112c:	3b0b3a0e 	xori	t3,t8,0x3a0e
    1130:	0013490b 	0x13490b
    1134:	01010800 	0x1010800
    1138:	13011349 	beq	t8,at,5e60 <__isr_vec_space+0x5e40>
    113c:	21090000 	addi	t1,t0,0
    1140:	2f134900 	sltiu	s3,t8,18688
    1144:	0a00000b 	j	800002c <__memory_size+0x7fe082c>
    1148:	0b0b0113 	j	c2c044c <__memory_size+0xc2a0c4c>
    114c:	0b3b0b3a 	j	cec2ce8 <__memory_size+0xcea34e8>
    1150:	00001301 	0x1301
    1154:	03000d0b 	0x3000d0b
    1158:	3b0b3a0e 	xori	t3,t8,0x3a0e
    115c:	3813490b 	xori	s3,zero,0x490b
    1160:	0c00000b 	jal	2c <__isr_vec_space+0xc>
    1164:	0b0b000f 	j	c2c003c <__memory_size+0xc2a083c>
    1168:	130d0000 	beq	t8,t5,116c <__isr_vec_space+0x114c>
    116c:	0b0e0301 	j	c380c04 <__memory_size+0xc361404>
    1170:	3b0b3a0b 	xori	t3,t8,0x3a0b
    1174:	0013010b 	0x13010b
    1178:	000d0e00 	sll	at,t5,0x18
    117c:	0b3a0803 	j	ce8200c <__memory_size+0xce6280c>
    1180:	13490b3b 	beq	k0,t1,3e70 <__isr_vec_space+0x3e50>
    1184:	00000b38 	0xb38
    1188:	0b000f0f 	j	c003c3c <__memory_size+0xbfe443c>
    118c:	0013490b 	0x13490b
    1190:	01131000 	0x1131000
    1194:	050b0e03 	tltiu	t0,3587
    1198:	0b3b0b3a 	j	cec2ce8 <__memory_size+0xcea34e8>
    119c:	00001301 	0x1301
    11a0:	03000d11 	0x3000d11
    11a4:	3b0b3a0e 	xori	t3,t8,0x3a0e
    11a8:	3813490b 	xori	s3,zero,0x490b
    11ac:	12000005 	beqz	s0,11c4 <__isr_vec_space+0x11a4>
    11b0:	19270015 	0x19270015
    11b4:	15130000 	bne	t0,s3,11b8 <__isr_vec_space+0x1198>
    11b8:	49192701 	bc2t	$cc6,adc0 <__isr_vec_space+0xada0>
    11bc:	00130113 	0x130113
    11c0:	00051400 	sll	v0,a1,0x10
    11c4:	00001349 	0x1349
    11c8:	03011315 	0x3011315
    11cc:	3a050b0e 	xori	a1,s0,0xb0e
    11d0:	01053b0b 	0x1053b0b
    11d4:	16000013 	bnez	s0,1224 <__isr_vec_space+0x1204>
    11d8:	0e03000d 	jal	80c0034 <__memory_size+0x80a0834>
    11dc:	053b0b3a 	0x53b0b3a
    11e0:	0b381349 	j	ce04d24 <__memory_size+0xcde5524>
    11e4:	0d170000 	jal	45c0000 <__memory_size+0x45a0800>
    11e8:	3a0e0300 	xori	t6,s0,0x300
    11ec:	49053b0b 	bc2t	$cc1,fe1c <__isr_vec_space+0xfdfc>
    11f0:	00053813 	0x53813
    11f4:	00261800 	0x261800
    11f8:	00001349 	0x1349
    11fc:	03011319 	0x3011319
    1200:	3a0b0b0e 	xori	t3,s0,0xb0e
    1204:	01053b0b 	0x1053b0b
    1208:	1a000013 	blez	s0,1258 <__isr_vec_space+0x1238>
    120c:	0b0b0113 	j	c2c044c <__memory_size+0xc2a0c4c>
    1210:	053b0b3a 	0x53b0b3a
    1214:	00001301 	0x1301
    1218:	0b01171b 	j	c045c6c <__memory_size+0xc02646c>
    121c:	3b0b3a0b 	xori	t3,t8,0x3a0b
    1220:	00130105 	0x130105
    1224:	000d1c00 	sll	v1,t5,0x10
    1228:	0b3a0e03 	j	ce8380c <__memory_size+0xce6400c>
    122c:	1349053b 	beq	k0,t1,271c <__isr_vec_space+0x26fc>
    1230:	151d0000 	bne	t0,sp,1234 <__isr_vec_space+0x1214>
    1234:	01192701 	0x1192701
    1238:	1e000013 	bgtz	s0,1288 <__isr_vec_space+0x1268>
    123c:	193f002e 	0x193f002e
    1240:	0b3a0e03 	j	ce8380c <__memory_size+0xce6400c>
    1244:	19270b3b 	0x19270b3b
    1248:	01111349 	0x1111349
    124c:	18400612 	blez	v0,2a98 <__isr_vec_space+0x2a78>
    1250:	00194297 	0x194297
    1254:	00341f00 	0x341f00
    1258:	0b3a0e03 	j	ce8380c <__memory_size+0xce6400c>
    125c:	1349053b 	beq	k0,t1,274c <__isr_vec_space+0x272c>
    1260:	193c193f 	0x193c193f
    1264:	Address 0x0000000000001264 is out of bounds.


Disassembly of section .debug_line:

00000000 <.debug_line>:
       0:	000000da 	0xda
       4:	00440002 	0x440002
       8:	01010000 	0x1010000
       c:	000d0efb 	0xd0efb
      10:	01010101 	0x1010101
      14:	01000000 	0x1000000
      18:	2f010000 	sltiu	at,t8,0
      1c:	72657375 	q16slr	xr13,xr12,xr5,xr9,9
      20:	70696d2f 	0x70696d2f
      24:	74777373 	jalx	1ddcdcc <__memory_size+0x1dbd5cc>
      28:	7469672f 	jalx	1a59cbc <__memory_size+0x1a3a4bc>
      2c:	77656e2f 	jalx	d95b8bc <__memory_size+0xd93c0bc>
      30:	2f62696c 	sltiu	v0,k1,26988
      34:	6762696c 	0x6762696c
      38:	73736f6c 	s16ldi	xr13,k1,438,ptn2
      3c:	70696d2f 	0x70696d2f
      40:	63000073 	0x63000073
      44:	2e307472 	sltiu	s0,s1,29810
      48:	00010053 	0x10053
      4c:	05000000 	bltz	t0,50 <__isr_vec_space+0x30>
      50:	00032002 	srl	a0,v1,0x0
      54:	00d10380 	0xd10380
      58:	4a210301 	c2	0x210301
      5c:	194b4b83 	0x194b4b83
      60:	834b83bb 	lb	t3,-31813(k0)
      64:	504b4b85 	beql	v0,t3,12e7c <__isr_vec_space+0x12e5c>
      68:	854e8383 	lh	t6,-31869(t2)
      6c:	83134b4b 	lb	s3,19275(t8)
      70:	83134c4b 	lb	s3,19531(t8)
      74:	134b4b4d 	beq	k0,t3,12dac <__isr_vec_space+0x12d8c>
      78:	4b4b4d83 	c2	0x14b4d83
      7c:	4b4d8313 	c2	0x14d8313
      80:	4d83134b 	0x4d83134b
      84:	83134b4b 	lb	s3,19275(t8)
      88:	88144d4b 	lwl	s4,19787(zero)
      8c:	834d4b51 	lb	t5,19281(k0)
      90:	84bb5083 	lh	k1,20611(a1)
      94:	bb4a0b03 	swr	t2,2819(k0)
      98:	134b8483 	beq	k0,t3,fffe12a8 <__entry+0x403e12a8>
      9c:	84848385 	lh	a0,-31867(a0)
      a0:	83854b4b 	lb	a1,19275(gp)
      a4:	034b4f4b 	0x34b4f4b
      a8:	83bb010f 	lb	k1,271(sp)
      ac:	84838384 	lh	v1,-31868(a0)
      b0:	820a0383 	lb	t2,899(s0)
      b4:	4b4b8385 	c2	0x14b8385
      b8:	8583834e 	lh	v1,-31922(t4)
      bc:	864b8584 	lh	t3,-31356(s2)
      c0:	85838383 	lh	v1,-31869(t4)
      c4:	4b4b4b4b 	c2	0x14b4b4b
      c8:	0313854d 	break	0x313,0x215
      cc:	03838219 	0x3838219
      d0:	83834a11 	lb	v1,18961(gp)
      d4:	85158386 	lh	s5,-31866(t0)
      d8:	0008024b 	0x8024b
      dc:	01200101 	0x1200101
      e0:	00020000 	sll	zero,v0,0x0
      e4:	0000004a 	0x4a
      e8:	0efb0101 	jal	bec0404 <__memory_size+0xbea0c04>
      ec:	0101000d 	break	0x101
      f0:	00000101 	0x101
      f4:	00000100 	sll	zero,zero,0x4
      f8:	6f620001 	0x6f620001
      fc:	532e746f 	beql	t9,t6,1d2bc <__isr_vec_space+0x1d29c>
     100:	00000000 	nop
     104:	74696e69 	jalx	1a5b9a4 <__memory_size+0x1a3c1a4>
     108:	6361635f 	0x6361635f
     10c:	2e736568 	sltiu	s3,s3,25960
     110:	00000053 	mtlhx	zero
     114:	696e6900 	0x696e6900
     118:	70635f74 	q16sll	xr13,xr7,xr13,xr8,1
     11c:	00532e30 	tge	v0,s3,0xb8
     120:	69000000 	0x69000000
     124:	5f74696e 	0x5f74696e
     128:	2e626c74 	sltiu	v0,s3,27764
     12c:	00000053 	mtlhx	zero
     130:	05000000 	bltz	t0,134 <__isr_vec_space+0x114>
     134:	c0000002 	ll	zero,2(zero)
     138:	00c0039f 	0xc0039f
     13c:	4b4b8301 	c2	0x14b8301
     140:	4b4a0903 	c2	0x14a0903
     144:	504b4b4b 	beql	v0,t3,12e74 <__isr_vec_space+0x12e54>
     148:	834e4b83 	lb	t6,19331(k0)
     14c:	4b834e4b 	c2	0x1834e4b
     150:	4b4b834f 	c2	0x14b834f
     154:	4b834e4b 	c2	0x1834e4b
     158:	834b834e 	lb	t3,-31922(k0)
     15c:	4b504e4b 	c2	0x1504e4b
     160:	b8030204 	swr	v1,516(zero)
     164:	4d4d4a7f 	0x4d4d4a7f
     168:	4c4b4c4b 	0x4c4b4c4b
     16c:	4b4d4b4b 	c2	0x14d4b4b
     170:	4b4d4c4c 	c2	0x14d4c4c
     174:	4b4b4f4c 	c2	0x14b4f4c
     178:	034b4e4b 	0x34b4e4b
     17c:	4d4d4a09 	0x4d4d4a09
     180:	4c4b4c4b 	0x4c4b4c4b
     184:	4b4d4b4b 	c2	0x14d4b4b
     188:	4b4d4c4c 	c2	0x14d4c4c
     18c:	504c4b4b 	beql	v0,t4,12ebc <__isr_vec_space+0x12e9c>
     190:	4d4b4c4b 	0x4d4b4c4b
     194:	4b4b504b 	c2	0x14b504b
     198:	044b4b4b 	tltiu	v0,19275
     19c:	026e0301 	0x26e0301
     1a0:	4b01018c 	c2	0x101018c
     1a4:	4b157c02 	c2	0x1157c02
     1a8:	a0030304 	sb	v1,772(zero)
     1ac:	4d834a7f 	0x4d834a7f
     1b0:	4d4b4b4b 	0x4d4b4b4b
     1b4:	4c4b4c4b 	0x4c4b4c4b
     1b8:	4c4b4c4b 	0x4c4b4c4b
     1bc:	4c4b4c4b 	0x4c4b4c4b
     1c0:	4f4b4c4b 	c3	0x14b4c4b
     1c4:	044b4c4d 	tltiu	v0,19533
     1c8:	f23a0301 	0xf23a0301
     1cc:	0304044b 	0x304044b
     1d0:	4b4a7f9b 	c2	0x14a7f9b
     1d4:	4b4b4b4b 	c2	0x14b4b4b
     1d8:	4b4b4b4e 	c2	0x14b4b4e
     1dc:	4b4d4b4b 	c2	0x14d4b4b
     1e0:	4c4b4b4b 	0x4c4b4b4b
     1e4:	044b4d4b 	tltiu	v0,19787
     1e8:	00d00301 	0xd00301
     1ec:	4b012802 	c2	0x1012802
     1f0:	024b4b4b 	0x24b4b4b
     1f4:	4b1801f0 	c2	0x11801f0
     1f8:	4b4b4b4b 	c2	0x14b4b4b
     1fc:	0004024b 	0x4024b
     200:	00560101 	0x560101
     204:	00020000 	sll	zero,v0,0x0
     208:	0000001d 	0x1d
     20c:	0efb0101 	jal	bec0404 <__memory_size+0xbea0c04>
     210:	0101000d 	break	0x101
     214:	00000101 	0x101
     218:	00000100 	sll	zero,zero,0x4
     21c:	616d0001 	0x616d0001
     220:	632e6e69 	0x632e6e69
     224:	00000000 	nop
     228:	02050000 	0x2050000
     22c:	8000075c 	lb	zero,1884(zero)
     230:	03010e03 	0x3010e03
     234:	4cbd010b 	0x4cbd010b
     238:	878484bc 	lh	a0,-31556(gp)
     23c:	79087908 	0x79087908
     240:	79087908 	0x79087908
     244:	04020084 	bltzl	zero,458 <__isr_vec_space+0x438>
     248:	4d864e01 	0x4d864e01
     24c:	03040200 	0x3040200
     250:	06ac0806 	teqi	s5,2054
     254:	02132402 	0x2132402
     258:	01010008 	0x1010008
     25c:	000000a9 	0xa9
     260:	00900002 	0x900002
     264:	01010000 	0x1010000
     268:	000d0efb 	0xd0efb
     26c:	01010101 	0x1010101
     270:	01000000 	0x1000000
     274:	2f010000 	sltiu	at,t8,0
     278:	72657375 	q16slr	xr13,xr12,xr5,xr9,9
     27c:	70696d2f 	0x70696d2f
     280:	74777373 	jalx	1ddcdcc <__memory_size+0x1dbd5cc>
     284:	7469672f 	jalx	1a59cbc <__memory_size+0x1a3a4bc>
     288:	77656e2f 	jalx	d95b8bc <__memory_size+0xd93c0bc>
     28c:	2f62696c 	sltiu	v0,k1,26988
     290:	6c77656e 	0x6c77656e
     294:	6c2f6269 	0x6c2f6269
     298:	2f636269 	sltiu	v1,k1,25193
     29c:	6c647473 	0x6c647473
     2a0:	2f006269 	sltiu	zero,t8,25193
     2a4:	72657375 	q16slr	xr13,xr12,xr5,xr9,9
     2a8:	70696d2f 	0x70696d2f
     2ac:	74777373 	jalx	1ddcdcc <__memory_size+0x1dbd5cc>
     2b0:	7469672f 	jalx	1a59cbc <__memory_size+0x1a3a4bc>
     2b4:	77656e2f 	jalx	d95b8bc <__memory_size+0xd93c0bc>
     2b8:	2f62696c 	sltiu	v0,k1,26988
     2bc:	6c77656e 	0x6c77656e
     2c0:	6c2f6269 	0x6c2f6269
     2c4:	2f636269 	sltiu	v1,k1,25193
     2c8:	6c636e69 	0x6c636e69
     2cc:	00656475 	0x656475
     2d0:	65746100 	0x65746100
     2d4:	2e746978 	sltiu	s4,s3,27000
     2d8:	00010063 	0x10063
     2dc:	65746100 	0x65746100
     2e0:	2e746978 	sltiu	s4,s3,27000
     2e4:	00010068 	0x10068
     2e8:	64747300 	0x64747300
     2ec:	2e62696c 	sltiu	v0,s3,26988
     2f0:	00020068 	0x20068
     2f4:	05000000 	bltz	t0,2f8 <__isr_vec_space+0x2d8>
     2f8:	00089802 	srl	s3,t0,0x0
     2fc:	013f0380 	0x13f0380
     300:	bb4b4983 	swr	t3,18819(k0)
     304:	01000c02 	0x1000c02
     308:	00016d01 	0x16d01
     30c:	4f000200 	lwxc1	$f8,zero(t8)
     310:	01000001 	movf	zero,t0,$fcc0
     314:	0d0efb01 	jal	43bec04 <__memory_size+0x439f404>
     318:	01010100 	0x1010100
     31c:	00000001 	movf	zero,zero,$fcc0
     320:	01000001 	movf	zero,t0,$fcc0
     324:	6573752f 	0x6573752f
     328:	696d2f72 	0x696d2f72
     32c:	77737370 	jalx	dcdcdc0 <__memory_size+0xdcbd5c0>
     330:	69672f74 	0x69672f74
     334:	656e2f74 	0x656e2f74
     338:	62696c77 	0x62696c77
     33c:	77656e2f 	jalx	d95b8bc <__memory_size+0xd93c0bc>
     340:	2f62696c 	sltiu	v0,k1,26988
     344:	6362696c 	0x6362696c
     348:	6474732f 	0x6474732f
     34c:	0062696c 	0x62696c
     350:	6573752f 	0x6573752f
     354:	696d2f72 	0x696d2f72
     358:	77737370 	jalx	dcdcdc0 <__memory_size+0xdcbd5c0>
     35c:	69672f74 	0x69672f74
     360:	656e2f74 	0x656e2f74
     364:	62696c77 	0x62696c77
     368:	77656e2f 	jalx	d95b8bc <__memory_size+0xd93c0bc>
     36c:	2f62696c 	sltiu	v0,k1,26988
     370:	6362696c 	0x6362696c
     374:	636e692f 	0x636e692f
     378:	6564756c 	0x6564756c
     37c:	7379732f 	0x7379732f
     380:	73752f00 	0x73752f00
     384:	6d2f7265 	0x6d2f7265
     388:	73737069 	0x73737069
     38c:	622f7477 	0x622f7477
     390:	646c6975 	0x646c6975
     394:	3130322d 	andi	s0,t1,0x322d
     398:	36302e35 	ori	s0,s1,0x2e35
     39c:	2f35302d 	sltiu	s5,t9,12333
     3a0:	74736e69 	jalx	1cdb9a4 <__memory_size+0x1cbc1a4>
     3a4:	2d6c6c61 	sltiu	t4,t3,27745
     3a8:	7370696d 	s16sdi	xr5,k1,52,
     3ac:	69746d2d 	0x69746d2d
     3b0:	666c652d 	0x666c652d
     3b4:	62696c2f 	0x62696c2f
     3b8:	6363672f 	0x6363672f
     3bc:	70696d2f 	0x70696d2f
     3c0:	746d2d73 	jalx	1b4b5cc <__memory_size+0x1b2bdcc>
     3c4:	6c652d69 	0x6c652d69
     3c8:	2e342f66 	sltiu	s4,s1,12134
     3cc:	2f322e39 	sltiu	s2,t9,11833
     3d0:	6c636e69 	0x6c636e69
     3d4:	00656475 	0x656475
     3d8:	6573752f 	0x6573752f
     3dc:	696d2f72 	0x696d2f72
     3e0:	77737370 	jalx	dcdcdc0 <__memory_size+0xdcbd5c0>
     3e4:	69672f74 	0x69672f74
     3e8:	656e2f74 	0x656e2f74
     3ec:	62696c77 	0x62696c77
     3f0:	77656e2f 	jalx	d95b8bc <__memory_size+0xd93c0bc>
     3f4:	2f62696c 	sltiu	v0,k1,26988
     3f8:	6362696c 	0x6362696c
     3fc:	636e692f 	0x636e692f
     400:	6564756c 	0x6564756c
     404:	78650000 	andi.b	$w0,$w0,0x65
     408:	632e7469 	0x632e7469
     40c:	00000100 	sll	zero,zero,0x4
     410:	6b636f6c 	0x6b636f6c
     414:	0200682e 	0x200682e
     418:	745f0000 	jalx	17c0000 <__memory_size+0x17a0800>
     41c:	73657079 	0x73657079
     420:	0200682e 	0x200682e
     424:	74730000 	jalx	1cc0000 <__memory_size+0x1ca0800>
     428:	66656464 	0x66656464
     42c:	0300682e 	0x300682e
     430:	65720000 	0x65720000
     434:	2e746e65 	sltiu	s4,s3,28261
     438:	00020068 	0x20068
     43c:	64747300 	0x64747300
     440:	2e62696c 	sltiu	v0,s3,26988
     444:	00040068 	0x40068
     448:	65746100 	0x65746100
     44c:	2e746978 	sltiu	s4,s3,27000
     450:	00010068 	0x10068
     454:	696e7500 	0x696e7500
     458:	2e647473 	sltiu	a0,s3,29811
     45c:	00020068 	0x20068
     460:	05000000 	bltz	t0,464 <__isr_vec_space+0x444>
     464:	0008c002 	srl	t8,t0,0x0
     468:	013b0380 	0x13b0380
     46c:	4a7a0350 	c2	0x7a0350
     470:	3d088488 	0x3d088488
     474:	00080283 	sra	zero,t0,0xa
     478:	01050101 	0x1050101
     47c:	00020000 	sll	zero,v0,0x0
     480:	000000ff 	0xff
     484:	0efb0101 	jal	bec0404 <__memory_size+0xbea0c04>
     488:	0101000d 	break	0x101
     48c:	00000101 	0x101
     490:	00000100 	sll	zero,zero,0x4
     494:	73752f01 	0x73752f01
     498:	6d2f7265 	0x6d2f7265
     49c:	73737069 	0x73737069
     4a0:	672f7477 	0x672f7477
     4a4:	6e2f7469 	0x6e2f7469
     4a8:	696c7765 	0x696c7765
     4ac:	656e2f62 	0x656e2f62
     4b0:	62696c77 	0x62696c77
     4b4:	62696c2f 	0x62696c2f
     4b8:	6e692f63 	0x6e692f63
     4bc:	64756c63 	0x64756c63
     4c0:	79732f65 	st.h	$w29,742(a1)
     4c4:	752f0073 	jalx	4bc01cc <__memory_size+0x4ba09cc>
     4c8:	2f726573 	sltiu	s2,k1,25971
     4cc:	7370696d 	s16sdi	xr5,k1,52,
     4d0:	2f747773 	sltiu	s4,k1,30579
     4d4:	6c697562 	0x6c697562
     4d8:	30322d64 	andi	s2,at,0x2d64
     4dc:	302e3531 	andi	t6,at,0x3531
     4e0:	35302d36 	ori	s0,t1,0x2d36
     4e4:	736e692f 	0x736e692f
     4e8:	6c6c6174 	0x6c6c6174
     4ec:	70696d2d 	s16sdi	xr4,v1,182,ptn1
     4f0:	746d2d73 	jalx	1b4b5cc <__memory_size+0x1b2bdcc>
     4f4:	6c652d69 	0x6c652d69
     4f8:	696c2f66 	0x696c2f66
     4fc:	63672f62 	0x63672f62
     500:	696d2f63 	0x696d2f63
     504:	6d2d7370 	0x6d2d7370
     508:	652d6974 	0x652d6974
     50c:	342f666c 	ori	t7,at,0x666c
     510:	322e392e 	andi	t6,s1,0x392e
     514:	636e692f 	0x636e692f
     518:	6564756c 	0x6564756c
     51c:	73752f00 	0x73752f00
     520:	6d2f7265 	0x6d2f7265
     524:	73737069 	0x73737069
     528:	672f7477 	0x672f7477
     52c:	6e2f7469 	0x6e2f7469
     530:	696c7765 	0x696c7765
     534:	656e2f62 	0x656e2f62
     538:	62696c77 	0x62696c77
     53c:	62696c2f 	0x62696c2f
     540:	65722f63 	0x65722f63
     544:	00746e65 	0x746e65
     548:	636f6c00 	0x636f6c00
     54c:	00682e6b 	0x682e6b
     550:	5f000001 	bgtzl	t8,558 <__isr_vec_space+0x538>
     554:	65707974 	0x65707974
     558:	00682e73 	tltu	v1,t0,0xb9
     55c:	73000001 	maddu	t8,zero
     560:	65646474 	0x65646474
     564:	00682e66 	0x682e66
     568:	72000002 	mul	zero,s0,zero
     56c:	746e6565 	jalx	1b99594 <__memory_size+0x1b79d94>
     570:	0100682e 	0x100682e
     574:	6d690000 	0x6d690000
     578:	65727570 	0x65727570
     57c:	0300632e 	0x300632e
     580:	80000000 	lb	zero,0(zero)
     584:	02000001 	movf	zero,s0,$fcc0
     588:	00014700 	sll	t0,at,0x1c
     58c:	fb010100 	sdc2	$1,256(t8)
     590:	01000d0e 	0x1000d0e
     594:	00010101 	0x10101
     598:	00010000 	sll	zero,at,0x0
     59c:	752f0100 	jalx	4bc0400 <__memory_size+0x4ba0c00>
     5a0:	2f726573 	sltiu	s2,k1,25971
     5a4:	7370696d 	s16sdi	xr5,k1,52,
     5a8:	2f747773 	sltiu	s4,k1,30579
     5ac:	2f746967 	sltiu	s4,k1,26983
     5b0:	6c77656e 	0x6c77656e
     5b4:	6e2f6269 	0x6e2f6269
     5b8:	696c7765 	0x696c7765
     5bc:	696c2f62 	0x696c2f62
     5c0:	732f6362 	s8ldd	xr13,t9,-40,ptn3
     5c4:	696c6474 	0x696c6474
     5c8:	752f0062 	jalx	4bc0188 <__memory_size+0x4ba0988>
     5cc:	2f726573 	sltiu	s2,k1,25971
     5d0:	7370696d 	s16sdi	xr5,k1,52,
     5d4:	2f747773 	sltiu	s4,k1,30579
     5d8:	6c697562 	0x6c697562
     5dc:	30322d64 	andi	s2,at,0x2d64
     5e0:	302e3531 	andi	t6,at,0x3531
     5e4:	35302d36 	ori	s0,t1,0x2d36
     5e8:	736e692f 	0x736e692f
     5ec:	6c6c6174 	0x6c6c6174
     5f0:	70696d2d 	s16sdi	xr4,v1,182,ptn1
     5f4:	746d2d73 	jalx	1b4b5cc <__memory_size+0x1b2bdcc>
     5f8:	6c652d69 	0x6c652d69
     5fc:	696c2f66 	0x696c2f66
     600:	63672f62 	0x63672f62
     604:	696d2f63 	0x696d2f63
     608:	6d2d7370 	0x6d2d7370
     60c:	652d6974 	0x652d6974
     610:	342f666c 	ori	t7,at,0x666c
     614:	322e392e 	andi	t6,s1,0x392e
     618:	636e692f 	0x636e692f
     61c:	6564756c 	0x6564756c
     620:	73752f00 	0x73752f00
     624:	6d2f7265 	0x6d2f7265
     628:	73737069 	0x73737069
     62c:	672f7477 	0x672f7477
     630:	6e2f7469 	0x6e2f7469
     634:	696c7765 	0x696c7765
     638:	656e2f62 	0x656e2f62
     63c:	62696c77 	0x62696c77
     640:	62696c2f 	0x62696c2f
     644:	6e692f63 	0x6e692f63
     648:	64756c63 	0x64756c63
     64c:	79732f65 	st.h	$w29,742(a1)
     650:	752f0073 	jalx	4bc01cc <__memory_size+0x4ba09cc>
     654:	2f726573 	sltiu	s2,k1,25971
     658:	7370696d 	s16sdi	xr5,k1,52,
     65c:	2f747773 	sltiu	s4,k1,30579
     660:	2f746967 	sltiu	s4,k1,26983
     664:	6c77656e 	0x6c77656e
     668:	6e2f6269 	0x6e2f6269
     66c:	696c7765 	0x696c7765
     670:	696c2f62 	0x696c2f62
     674:	692f6362 	0x692f6362
     678:	756c636e 	jalx	5b18db8 <__memory_size+0x5af95b8>
     67c:	00006564 	0x6564
     680:	74615f5f 	jalx	1857d7c <__memory_size+0x183857c>
     684:	74697865 	jalx	1a5e194 <__memory_size+0x1a3e994>
     688:	0100632e 	0x100632e
     68c:	74730000 	jalx	1cc0000 <__memory_size+0x1ca0800>
     690:	66656464 	0x66656464
     694:	0200682e 	0x200682e
     698:	6f6c0000 	0x6f6c0000
     69c:	682e6b63 	0x682e6b63
     6a0:	00000300 	sll	zero,zero,0xc
     6a4:	7079745f 	udi15	v1,t9,t6,0x11
     6a8:	682e7365 	0x682e7365
     6ac:	00000300 	sll	zero,zero,0xc
     6b0:	6e656572 	0x6e656572
     6b4:	00682e74 	teq	v1,t0,0xb9
     6b8:	61000003 	0x61000003
     6bc:	69786574 	0x69786574
     6c0:	00682e74 	teq	v1,t0,0xb9
     6c4:	73000001 	maddu	t8,zero
     6c8:	696c6474 	0x696c6474
     6cc:	00682e62 	0x682e62
     6d0:	00000004 	sllv	zero,zero,zero
     6d4:	fc020500 	sdc3	$2,1280(zero)
     6d8:	03800008 	jr	gp
     6dc:	1a0100c7 	0x1a0100c7
     6e0:	8a4a7803 	lwl	t2,30723(s2)
     6e4:	084a7803 	j	129e00c <__memory_size+0x127e80c>
     6e8:	83834bec 	lb	v1,19436(gp)
     6ec:	8a83f5f9 	lwl	v1,-2567(s4)
     6f0:	4c4b4b49 	0x4c4b4b49
     6f4:	1803514b 	0x1803514b
     6f8:	484db9ba 	0x484db9ba
     6fc:	08bc83bc 	j	2f20ef0 <__memory_size+0x2f016f0>
     700:	20024b78 	addi	v0,zero,19320
     704:	bb010100 	swr	at,256(t8)
     708:	02000001 	movf	zero,s0,$fcc0
     70c:	00014000 	sll	t0,at,0x0
     710:	fb010100 	sdc2	$1,256(t8)
     714:	01000d0e 	0x1000d0e
     718:	00010101 	0x10101
     71c:	00010000 	sll	zero,at,0x0
     720:	752f0100 	jalx	4bc0400 <__memory_size+0x4ba0c00>
     724:	2f726573 	sltiu	s2,k1,25971
     728:	7370696d 	s16sdi	xr5,k1,52,
     72c:	2f747773 	sltiu	s4,k1,30579
     730:	2f746967 	sltiu	s4,k1,26983
     734:	6c77656e 	0x6c77656e
     738:	6e2f6269 	0x6e2f6269
     73c:	696c7765 	0x696c7765
     740:	696c2f62 	0x696c2f62
     744:	732f6362 	s8ldd	xr13,t9,-40,ptn3
     748:	696c6474 	0x696c6474
     74c:	752f0062 	jalx	4bc0188 <__memory_size+0x4ba0988>
     750:	2f726573 	sltiu	s2,k1,25971
     754:	7370696d 	s16sdi	xr5,k1,52,
     758:	2f747773 	sltiu	s4,k1,30579
     75c:	2f746967 	sltiu	s4,k1,26983
     760:	6c77656e 	0x6c77656e
     764:	6e2f6269 	0x6e2f6269
     768:	696c7765 	0x696c7765
     76c:	696c2f62 	0x696c2f62
     770:	692f6362 	0x692f6362
     774:	756c636e 	jalx	5b18db8 <__memory_size+0x5af95b8>
     778:	732f6564 	s8ldi	xr5,t9,-39,ptn3
     77c:	2f007379 	sltiu	zero,t8,29561
     780:	72657375 	q16slr	xr13,xr12,xr5,xr9,9
     784:	70696d2f 	0x70696d2f
     788:	74777373 	jalx	1ddcdcc <__memory_size+0x1dbd5cc>
     78c:	6975622f 	0x6975622f
     790:	322d646c 	andi	t5,s1,0x646c
     794:	2e353130 	sltiu	s5,s1,12592
     798:	302d3630 	andi	t5,at,0x3630
     79c:	6e692f35 	0x6e692f35
     7a0:	6c617473 	0x6c617473
     7a4:	696d2d6c 	0x696d2d6c
     7a8:	6d2d7370 	0x6d2d7370
     7ac:	652d6974 	0x652d6974
     7b0:	6c2f666c 	0x6c2f666c
     7b4:	672f6269 	0x672f6269
     7b8:	6d2f6363 	0x6d2f6363
     7bc:	2d737069 	sltiu	s3,t3,28777
     7c0:	2d69746d 	sltiu	t1,t3,29805
     7c4:	2f666c65 	sltiu	a2,k1,27749
     7c8:	2e392e34 	sltiu	t9,s1,11828
     7cc:	6e692f32 	0x6e692f32
     7d0:	64756c63 	0x64756c63
     7d4:	752f0065 	jalx	4bc0194 <__memory_size+0x4ba0994>
     7d8:	2f726573 	sltiu	s2,k1,25971
     7dc:	7370696d 	s16sdi	xr5,k1,52,
     7e0:	2f747773 	sltiu	s4,k1,30579
     7e4:	2f746967 	sltiu	s4,k1,26983
     7e8:	6c77656e 	0x6c77656e
     7ec:	6e2f6269 	0x6e2f6269
     7f0:	696c7765 	0x696c7765
     7f4:	696c2f62 	0x696c2f62
     7f8:	692f6362 	0x692f6362
     7fc:	756c636e 	jalx	5b18db8 <__memory_size+0x5af95b8>
     800:	00006564 	0x6564
     804:	61635f5f 	0x61635f5f
     808:	615f6c6c 	0x615f6c6c
     80c:	69786574 	0x69786574
     810:	00632e74 	teq	v1,v1,0xb9
     814:	6c000001 	0x6c000001
     818:	2e6b636f 	sltiu	t3,s3,25455
     81c:	00020068 	0x20068
     820:	79745f00 	ori.b	$w28,$w11,0x74
     824:	2e736570 	sltiu	s3,s3,25968
     828:	00020068 	0x20068
     82c:	64747300 	0x64747300
     830:	2e666564 	sltiu	a2,s3,25956
     834:	00030068 	0x30068
     838:	65657200 	0x65657200
     83c:	682e746e 	0x682e746e
     840:	00000200 	sll	zero,zero,0x8
     844:	6c647473 	0x6c647473
     848:	682e6269 	0x682e6269
     84c:	00000400 	sll	zero,zero,0x10
     850:	02050000 	0x2050000
     854:	80000a04 	lb	zero,2564(zero)
     858:	0100c303 	0x100c303
     85c:	03010f03 	0x3010f03
     860:	0f034a71 	jal	c0d29c4 <__memory_size+0xc0b31c4>
     864:	4a71034a 	c2	0x71034a
     868:	4a00c403 	c2	0xc403
     86c:	4a7fbc03 	c2	0x7fbc03
     870:	034a1c03 	0x34a1c03
     874:	bc034a28 	cache	0x3,18984(zero)
     878:	0f034a7f 	jal	c0d29fc <__memory_size+0xc0b31fc>
     87c:	83012802 	lb	at,10242(t8)
     880:	00894c49 	0x894c49
     884:	06010402 	bgez	s0,1890 <__isr_vec_space+0x1870>
     888:	008906f2 	tlt	a0,t1,0x1b
     88c:	06020402 	bltzl	s0,1898 <__isr_vec_space+0x1878>
     890:	08c00682 	j	3001a08 <__memory_size+0x2fe2208>
     894:	f3884d77 	0xf3884d77
     898:	00820903 	0x820903
     89c:	06010402 	bgez	s0,18a8 <__isr_vec_space+0x1888>
     8a0:	040200ba 	bltzl	zero,b8c <__isr_vec_space+0xb6c>
     8a4:	5d030602 	0x5d030602
     8a8:	ba2c03ba 	swr	t4,954(s1)
     8ac:	04020087 	bltzl	zero,acc <__isr_vec_space+0xaac>
     8b0:	06ba0601 	0x6ba0601
     8b4:	4b86838a 	c2	0x186838a
     8b8:	f3825c03 	0xf3825c03
     8bc:	240387f4 	li	v1,-30732
     8c0:	002c0282 	ror	zero,t4,0xa
     8c4:	010d0101 	0x10d0101
     8c8:	00020000 	sll	zero,v0,0x0
     8cc:	000000ca 	0xca
     8d0:	0efb0101 	jal	bec0404 <__memory_size+0xbea0c04>
     8d4:	0101000d 	break	0x101
     8d8:	00000101 	0x101
     8dc:	00000100 	sll	zero,zero,0x4
     8e0:	73752f01 	0x73752f01
     8e4:	6d2f7265 	0x6d2f7265
     8e8:	73737069 	0x73737069
     8ec:	672f7477 	0x672f7477
     8f0:	6e2f7469 	0x6e2f7469
     8f4:	696c7765 	0x696c7765
     8f8:	696c2f62 	0x696c2f62
     8fc:	6f6c6762 	0x6f6c6762
     900:	6d2f7373 	0x6d2f7373
     904:	00737069 	0x737069
     908:	6573752f 	0x6573752f
     90c:	696d2f72 	0x696d2f72
     910:	77737370 	jalx	dcdcdc0 <__memory_size+0xdcbd5c0>
     914:	69672f74 	0x69672f74
     918:	656e2f74 	0x656e2f74
     91c:	62696c77 	0x62696c77
     920:	77656e2f 	jalx	d95b8bc <__memory_size+0xd93c0bc>
     924:	2f62696c 	sltiu	v0,k1,26988
     928:	6362696c 	0x6362696c
     92c:	636e692f 	0x636e692f
     930:	6564756c 	0x6564756c
     934:	63616d2f 	0x63616d2f
     938:	656e6968 	0x656e6968
     93c:	73752f00 	0x73752f00
     940:	6d2f7265 	0x6d2f7265
     944:	73737069 	0x73737069
     948:	672f7477 	0x672f7477
     94c:	6e2f7469 	0x6e2f7469
     950:	696c7765 	0x696c7765
     954:	656e2f62 	0x656e2f62
     958:	62696c77 	0x62696c77
     95c:	62696c2f 	0x62696c2f
     960:	6e692f63 	0x6e692f63
     964:	64756c63 	0x64756c63
     968:	75000065 	jalx	4000194 <__memory_size+0x3fe0994>
     96c:	655f6968 	0x655f6968
     970:	2e746978 	sltiu	s4,s3,27000
     974:	00010063 	0x10063
     978:	65645f00 	0x65645f00
     97c:	6c756166 	0x6c756166
     980:	79745f74 	0x79745f74
     984:	2e736570 	sltiu	s3,s3,25968
     988:	00020068 	0x20068
     98c:	64747300 	0x64747300
     990:	2e746e69 	sltiu	s4,s3,28265
     994:	00030068 	0x30068
     998:	05000000 	bltz	t0,99c <__isr_vec_space+0x97c>
     99c:	000b8402 	srl	s0,t3,0x10
     9a0:	013c0380 	0x13c0380
     9a4:	03821603 	0x3821603
     9a8:	14034a6a 	bne	zero,v1,13354 <__isr_vec_space+0x13334>
     9ac:	4a6c034a 	c2	0x6c034a
     9b0:	4c4a1203 	0x4c4a1203
     9b4:	034a6c03 	0x34a6c03
     9b8:	6e034a12 	0x6e034a12
     9bc:	4a16034a 	c2	0x16034a
     9c0:	4b4a6a03 	c2	0x14a6a03
     9c4:	034c4b4b 	0x34c4b4b
     9c8:	83be4a0d 	lb	s8,18957(sp)
     9cc:	0383837e 	0x383837e
     9d0:	0802f26d 	j	bc9b4 <__memory_size+0x9d1b4>
     9d4:	87010100 	lh	at,256(t8)
     9d8:	02000000 	0x2000000
     9dc:	00004b00 	sll	t1,zero,0xc
     9e0:	fb010100 	sdc2	$1,256(t8)
     9e4:	01000d0e 	0x1000d0e
     9e8:	00010101 	0x10101
     9ec:	00010000 	sll	zero,at,0x0
     9f0:	752f0100 	jalx	4bc0400 <__memory_size+0x4ba0c00>
     9f4:	2f726573 	sltiu	s2,k1,25971
     9f8:	7370696d 	s16sdi	xr5,k1,52,
     9fc:	2f747773 	sltiu	s4,k1,30579
     a00:	2f746967 	sltiu	s4,k1,26983
     a04:	6c77656e 	0x6c77656e
     a08:	6c2f6269 	0x6c2f6269
     a0c:	6c676269 	0x6c676269
     a10:	2f73736f 	sltiu	s3,k1,29551
     a14:	7370696d 	s16sdi	xr5,k1,52,
     a18:	68750000 	0x68750000
     a1c:	65675f69 	0x65675f69
     a20:	67726174 	0x67726174
     a24:	00532e73 	tltu	v0,s3,0xb9
     a28:	00000001 	movf	zero,zero,$fcc0
     a2c:	0c020500 	jal	81400 <__memory_size+0x61c00>
     a30:	0380000c 	syscall	0xe0000
     a34:	4c4b012a 	0x4c4b012a
     a38:	844d4c4b 	lh	t5,19531(v0)
     a3c:	834b4b4b 	lb	t3,19275(k0)
     a40:	4b4e4b4b 	c2	0x14e4b4b
     a44:	844c4c4b 	lh	t4,19531(v0)
     a48:	4b834b4b 	c2	0x1834b4b
     a4c:	4b4c4b4b 	c2	0x14c4b4b
     a50:	4c4c4b4b 	0x4c4c4b4b
     a54:	854b4b84 	lh	t3,19332(t2)
     a58:	4b4b4e4b 	c2	0x14b4e4b
     a5c:	00080214 	0x80214
     a60:	00f40101 	0xf40101
     a64:	00020000 	sll	zero,v0,0x0
     a68:	000000d3 	0xd3
     a6c:	0efb0101 	jal	bec0404 <__memory_size+0xbea0c04>
     a70:	0101000d 	break	0x101
     a74:	00000101 	0x101
     a78:	00000100 	sll	zero,zero,0x4
     a7c:	73752f01 	0x73752f01
     a80:	6d2f7265 	0x6d2f7265
     a84:	73737069 	0x73737069
     a88:	672f7477 	0x672f7477
     a8c:	6e2f7469 	0x6e2f7469
     a90:	696c7765 	0x696c7765
     a94:	696c2f62 	0x696c2f62
     a98:	6f6c6762 	0x6f6c6762
     a9c:	6d2f7373 	0x6d2f7373
     aa0:	00737069 	0x737069
     aa4:	6573752f 	0x6573752f
     aa8:	696d2f72 	0x696d2f72
     aac:	77737370 	jalx	dcdcdc0 <__memory_size+0xdcbd5c0>
     ab0:	69672f74 	0x69672f74
     ab4:	656e2f74 	0x656e2f74
     ab8:	62696c77 	0x62696c77
     abc:	77656e2f 	jalx	d95b8bc <__memory_size+0xd93c0bc>
     ac0:	2f62696c 	sltiu	v0,k1,26988
     ac4:	6362696c 	0x6362696c
     ac8:	636e692f 	0x636e692f
     acc:	6564756c 	0x6564756c
     ad0:	63616d2f 	0x63616d2f
     ad4:	656e6968 	0x656e6968
     ad8:	73752f00 	0x73752f00
     adc:	6d2f7265 	0x6d2f7265
     ae0:	73737069 	0x73737069
     ae4:	672f7477 	0x672f7477
     ae8:	6e2f7469 	0x6e2f7469
     aec:	696c7765 	0x696c7765
     af0:	656e2f62 	0x656e2f62
     af4:	62696c77 	0x62696c77
     af8:	62696c2f 	0x62696c2f
     afc:	6e692f63 	0x6e692f63
     b00:	64756c63 	0x64756c63
     b04:	75000065 	jalx	4000194 <__memory_size+0x3fe0994>
     b08:	675f6968 	0x675f6968
     b0c:	725f7465 	s8sdi	xr1,s2,-35,
     b10:	725f6d61 	0x725f6d61
     b14:	65676e61 	0x65676e61
     b18:	0100632e 	0x100632e
     b1c:	645f0000 	0x645f0000
     b20:	75616665 	jalx	5859994 <__memory_size+0x583a194>
     b24:	745f746c 	jalx	17dd1b0 <__memory_size+0x17bd9b0>
     b28:	73657079 	0x73657079
     b2c:	0200682e 	0x200682e
     b30:	74730000 	jalx	1cc0000 <__memory_size+0x1ca0800>
     b34:	746e6964 	jalx	1b9a590 <__memory_size+0x1b7ad90>
     b38:	0300682e 	0x300682e
     b3c:	00000000 	nop
     b40:	0cc40205 	jal	3100814 <__memory_size+0x30e1014>
     b44:	27038000 	addiu	v1,t8,-32768
     b48:	4f451701 	c3	0x1451701
     b4c:	bc4e4b45 	cache	0xe,19269(v0)
     b50:	50864c83 	beql	a0,a2,13d60 <__isr_vec_space+0x13d40>
     b54:	00080284 	0x80284
     b58:	01040101 	0x1040101
     b5c:	00020000 	sll	zero,v0,0x0
     b60:	0000005d 	0x5d
     b64:	0efb0101 	jal	bec0404 <__memory_size+0xbea0c04>
     b68:	0101000d 	break	0x101
     b6c:	00000101 	0x101
     b70:	00000100 	sll	zero,zero,0x4
     b74:	73752f01 	0x73752f01
     b78:	6d2f7265 	0x6d2f7265
     b7c:	73737069 	0x73737069
     b80:	672f7477 	0x672f7477
     b84:	6e2f7469 	0x6e2f7469
     b88:	696c7765 	0x696c7765
     b8c:	696c2f62 	0x696c2f62
     b90:	6f6c6762 	0x6f6c6762
     b94:	6d2f7373 	0x6d2f7373
     b98:	2f737069 	sltiu	s3,k1,28777
     b9c:	2f6c6168 	sltiu	t4,k1,24936
     ba0:	2f62696c 	sltiu	v0,k1,26988
     ba4:	7370696d 	s16sdi	xr5,k1,52,
     ba8:	696d0000 	0x696d0000
     bac:	655f7370 	0x655f7370
     bb0:	74706378 	jalx	1c18de0 <__memory_size+0x1bf95e0>
     bb4:	746e655f 	jalx	1b9957c <__memory_size+0x1b79d7c>
     bb8:	532e7972 	beql	t9,t6,1f184 <__isr_vec_space+0x1f164>
     bbc:	00000100 	sll	zero,zero,0x4
     bc0:	02050000 	0x2050000
     bc4:	80000000 	lb	zero,0(zero)
     bc8:	0100c203 	0x100c203
     bcc:	84854b83 	lh	a1,19331(a0)
     bd0:	54028383 	bnel	zero,v0,fffe19e0 <__entry+0x403e19e0>
     bd4:	02838318 	0x2838318
     bd8:	83831770 	lb	v1,6000(gp)
     bdc:	4d167002 	0x4d167002
     be0:	00080283 	sra	zero,t0,0xa
     be4:	05000101 	bltz	t0,fec <__isr_vec_space+0xfcc>
     be8:	0018b002 	srl	s6,t8,0x0
     bec:	00f20380 	0xf20380
     bf0:	4b4d4c01 	c2	0x14d4c01
     bf4:	4b4b4b4b 	c2	0x14b4b4b
     bf8:	4b4b4b4b 	c2	0x14b4b4b
     bfc:	4b4b4b4b 	c2	0x14b4b4b
     c00:	4b4b4b4b 	c2	0x14b4b4b
     c04:	4b4b4b4b 	c2	0x14b4b4b
     c08:	4b4b4b4b 	c2	0x14b4b4b
     c0c:	4b4b4b4c 	c2	0x14b4b4c
     c10:	4b4b4d4b 	c2	0x14b4d4b
     c14:	4b4b4f4b 	c2	0x14b4f4b
     c18:	4c4b4b4d 	0x4c4b4b4d
     c1c:	4b4b4b4b 	c2	0x14b4b4b
     c20:	834b4c83 	lb	t3,19587(k0)
     c24:	4d4d4b4c 	0x4d4d4b4c
     c28:	4b4b4b4b 	c2	0x14b4b4b
     c2c:	4d844d4b 	0x4d844d4b
     c30:	88834e4d 	lwl	v1,20045(a0)
     c34:	4d4b4b4b 	0x4d4b4b4b
     c38:	4b4b4b4b 	c2	0x14b4b4b
     c3c:	4b4b4b4b 	c2	0x14b4b4b
     c40:	4b4b4b4b 	c2	0x14b4b4b
     c44:	4b4b4b4b 	c2	0x14b4b4b
     c48:	4b4b4b4b 	c2	0x14b4b4b
     c4c:	4b4b4b4b 	c2	0x14b4b4b
     c50:	4b4b4c4c 	c2	0x14b4c4c
     c54:	4b4b4b4b 	c2	0x14b4b4b
     c58:	4b4b4b4b 	c2	0x14b4b4b
     c5c:	0004024c 	syscall	0x1009
     c60:	02b70101 	0x2b70101
     c64:	00020000 	sll	zero,v0,0x0
     c68:	000001d9 	0x1d9
     c6c:	0efb0101 	jal	bec0404 <__memory_size+0xbea0c04>
     c70:	0101000d 	break	0x101
     c74:	00000101 	0x101
     c78:	00000100 	sll	zero,zero,0x4
     c7c:	73752f01 	0x73752f01
     c80:	6d2f7265 	0x6d2f7265
     c84:	73737069 	0x73737069
     c88:	672f7477 	0x672f7477
     c8c:	6e2f7469 	0x6e2f7469
     c90:	696c7765 	0x696c7765
     c94:	696c2f62 	0x696c2f62
     c98:	6f6c6762 	0x6f6c6762
     c9c:	6d2f7373 	0x6d2f7373
     ca0:	2f737069 	sltiu	s3,k1,28777
     ca4:	2f6c6168 	sltiu	t4,k1,24936
     ca8:	2f62696c 	sltiu	v0,k1,26988
     cac:	7370696d 	s16sdi	xr5,k1,52,
     cb0:	73752f00 	0x73752f00
     cb4:	6d2f7265 	0x6d2f7265
     cb8:	73737069 	0x73737069
     cbc:	622f7477 	0x622f7477
     cc0:	646c6975 	0x646c6975
     cc4:	3130322d 	andi	s0,t1,0x322d
     cc8:	36302e35 	ori	s0,s1,0x2e35
     ccc:	2f35302d 	sltiu	s5,t9,12333
     cd0:	74736e69 	jalx	1cdb9a4 <__memory_size+0x1cbc1a4>
     cd4:	2d6c6c61 	sltiu	t4,t3,27745
     cd8:	7370696d 	s16sdi	xr5,k1,52,
     cdc:	69746d2d 	0x69746d2d
     ce0:	666c652d 	0x666c652d
     ce4:	62696c2f 	0x62696c2f
     ce8:	6363672f 	0x6363672f
     cec:	70696d2f 	0x70696d2f
     cf0:	746d2d73 	jalx	1b4b5cc <__memory_size+0x1b2bdcc>
     cf4:	6c652d69 	0x6c652d69
     cf8:	2e342f66 	sltiu	s4,s1,12134
     cfc:	2f322e39 	sltiu	s2,t9,11833
     d00:	6c636e69 	0x6c636e69
     d04:	00656475 	0x656475
     d08:	6573752f 	0x6573752f
     d0c:	696d2f72 	0x696d2f72
     d10:	77737370 	jalx	dcdcdc0 <__memory_size+0xdcbd5c0>
     d14:	69672f74 	0x69672f74
     d18:	656e2f74 	0x656e2f74
     d1c:	62696c77 	0x62696c77
     d20:	77656e2f 	jalx	d95b8bc <__memory_size+0xd93c0bc>
     d24:	2f62696c 	sltiu	v0,k1,26988
     d28:	6362696c 	0x6362696c
     d2c:	636e692f 	0x636e692f
     d30:	6564756c 	0x6564756c
     d34:	63616d2f 	0x63616d2f
     d38:	656e6968 	0x656e6968
     d3c:	73752f00 	0x73752f00
     d40:	6d2f7265 	0x6d2f7265
     d44:	73737069 	0x73737069
     d48:	672f7477 	0x672f7477
     d4c:	6e2f7469 	0x6e2f7469
     d50:	696c7765 	0x696c7765
     d54:	696c2f62 	0x696c2f62
     d58:	6f6c6762 	0x6f6c6762
     d5c:	6d2f7373 	0x6d2f7373
     d60:	2f737069 	sltiu	s3,k1,28777
     d64:	2f6c6168 	sltiu	t4,k1,24936
     d68:	6c636e69 	0x6c636e69
     d6c:	2f656475 	sltiu	a1,k1,25717
     d70:	7370696d 	s16sdi	xr5,k1,52,
     d74:	73752f00 	0x73752f00
     d78:	6d2f7265 	0x6d2f7265
     d7c:	73737069 	0x73737069
     d80:	672f7477 	0x672f7477
     d84:	6e2f7469 	0x6e2f7469
     d88:	696c7765 	0x696c7765
     d8c:	656e2f62 	0x656e2f62
     d90:	62696c77 	0x62696c77
     d94:	62696c2f 	0x62696c2f
     d98:	6e692f63 	0x6e692f63
     d9c:	64756c63 	0x64756c63
     da0:	752f0065 	jalx	4bc0194 <__memory_size+0x4ba0994>
     da4:	2f726573 	sltiu	s2,k1,25971
     da8:	7370696d 	s16sdi	xr5,k1,52,
     dac:	2f747773 	sltiu	s4,k1,30579
     db0:	2f746967 	sltiu	s4,k1,26983
     db4:	6c77656e 	0x6c77656e
     db8:	6e2f6269 	0x6e2f6269
     dbc:	696c7765 	0x696c7765
     dc0:	696c2f62 	0x696c2f62
     dc4:	692f6362 	0x692f6362
     dc8:	756c636e 	jalx	5b18db8 <__memory_size+0x5af95b8>
     dcc:	732f6564 	s8ldi	xr5,t9,-39,ptn3
     dd0:	00007379 	0x7379
     dd4:	7370696d 	s16sdi	xr5,k1,52,
     dd8:	6378655f 	0x6378655f
     ddc:	685f7470 	0x685f7470
     de0:	6c646e61 	0x6c646e61
     de4:	632e7265 	0x632e7265
     de8:	00000100 	sll	zero,zero,0x4
     dec:	64647473 	0x64647473
     df0:	682e6665 	0x682e6665
     df4:	00000200 	sll	zero,zero,0x8
     df8:	6665645f 	0x6665645f
     dfc:	746c7561 	jalx	1b1d584 <__memory_size+0x1afdd84>
     e00:	7079745f 	udi15	v1,t9,t6,0x11
     e04:	682e7365 	0x682e7365
     e08:	00000300 	sll	zero,zero,0xc
     e0c:	6332336d 	0x6332336d
     e10:	00682e30 	tge	v1,t0,0xb8
     e14:	73000004 	msub	t8,zero
     e18:	6e696474 	0x6e696474
     e1c:	00682e74 	teq	v1,t0,0xb9
     e20:	68000005 	0x68000005
     e24:	682e6c61 	0x682e6c61
     e28:	00000400 	sll	zero,zero,0x10
     e2c:	69727473 	0x69727473
     e30:	682e676e 	0x682e676e
     e34:	00000500 	sll	zero,zero,0x14
     e38:	73696e75 	q16slr	xr9,xr11,xr5,xr10,13
     e3c:	682e6474 	0x682e6474
     e40:	00000600 	sll	zero,zero,0x18
     e44:	02050000 	0x2050000
     e48:	80000d0c 	lb	zero,3340(zero)
     e4c:	08013003 	j	4c00c <__memory_size+0x2c80c>
     e50:	770883b2 	jalx	c220ec8 <__memory_size+0xc2016c8>
     e54:	034a7603 	0x34a7603
     e58:	f3494a0a 	0xf3494a0a
     e5c:	bc84ab08 	cache	0x4,-21752(a0)
     e60:	08750883 	j	1d4220c <__memory_size+0x1d22a0c>
     e64:	19031378 	0x19031378
     e68:	4b491382 	c2	0x1491382
     e6c:	2402f349 	li	v0,-3255
     e70:	bebef515 	cache	0x1e,-2795(s5)
     e74:	bebd3d08 	cache	0x1d,15624(s5)
     e78:	03847508 	0x3847508
     e7c:	f43c080b 	sdc1	$f28,2059(at)
     e80:	4108f5f5 	0x4108f5f5
     e84:	f6854bbc 	sdc1	$f5,19388(s4)
     e88:	bb83edf4 	swr	v1,-4620(gp)
     e8c:	019603f7 	0x19603f7
     e90:	7eed0382 	0x7eed0382
     e94:	bdbdbd82 	cache	0x1d,-17022(t5)
     e98:	40083f08 	0x40083f08
     e9c:	3e08f3f3 	0x3e08f3f3
     ea0:	4b4bbb4b 	c2	0x14bbb4b
     ea4:	f3f3f785 	0xf3f3f785
     ea8:	bb4b3e08 	swr	t3,15880(k0)
     eac:	f5844c4b 	sdc1	$f4,19531(t4)
     eb0:	083f08f5 	j	fc23d4 <__memory_size+0xfa2bd4>
     eb4:	083f083f 	j	fc20fc <__memory_size+0xfa28fc>
     eb8:	f5bdbd3f 	sdc1	$f29,-17089(t5)
     ebc:	3f083f08 	0x3f083f08
     ec0:	3f083f08 	0x3f083f08
     ec4:	ad084008 	sw	t0,16392(t0)
     ec8:	3d083d08 	0x3d083d08
     ecc:	3d083e08 	0x3d083e08
     ed0:	3d083d08 	0x3d083d08
     ed4:	3d083e08 	0x3d083e08
     ed8:	3d083d08 	0x3d083d08
     edc:	3d083e08 	0x3d083e08
     ee0:	3d083d08 	0x3d083d08
     ee4:	3d083e08 	0x3d083e08
     ee8:	3d083d08 	0x3d083d08
     eec:	3d083e08 	0x3d083e08
     ef0:	3d083d08 	0x3d083d08
     ef4:	3d083e08 	0x3d083e08
     ef8:	3d083d08 	0x3d083d08
     efc:	3d083e08 	0x3d083e08
     f00:	3d083d08 	0x3d083d08
     f04:	3d083f08 	0x3d083f08
     f08:	3d083f08 	0x3d083f08
     f0c:	3d083e08 	0x3d083e08
     f10:	3d083d08 	0x3d083d08
     f14:	43083f08 	c0	0x1083f08
     f18:	01001802 	0x1001802
     f1c:	00009801 	movf	s3,zero,$fcc0
     f20:	60000200 	0x60000200
     f24:	01000000 	0x1000000
     f28:	0d0efb01 	jal	43bec04 <__memory_size+0x439f404>
     f2c:	01010100 	0x1010100
     f30:	00000001 	movf	zero,zero,$fcc0
     f34:	01000001 	movf	zero,t0,$fcc0
     f38:	6573752f 	0x6573752f
     f3c:	696d2f72 	0x696d2f72
     f40:	77737370 	jalx	dcdcdc0 <__memory_size+0xdcbd5c0>
     f44:	69672f74 	0x69672f74
     f48:	656e2f74 	0x656e2f74
     f4c:	62696c77 	0x62696c77
     f50:	62696c2f 	0x62696c2f
     f54:	736f6c67 	0x736f6c67
     f58:	696d2f73 	0x696d2f73
     f5c:	682f7370 	0x682f7370
     f60:	6c2f6c61 	0x6c2f6c61
     f64:	6d2f6269 	0x6d2f6269
     f68:	00737069 	0x737069
     f6c:	70696d00 	0x70696d00
     f70:	78655f73 	0x78655f73
     f74:	5f747063 	0x5f747063
     f78:	69676572 	0x69676572
     f7c:	72657473 	d32sar	xr1,xr13,xr5,xr9,9
     f80:	0100532e 	0x100532e
     f84:	00000000 	nop
     f88:	14b40205 	bne	a1,s4,17a0 <__isr_vec_space+0x1780>
     f8c:	35038000 	ori	v1,t0,0x8000
     f90:	4b4b4f01 	c2	0x14b4f01
     f94:	4b838352 	c2	0x1838352
     f98:	844b4d83 	lh	t3,19843(v0)
     f9c:	864a0903 	lh	t2,2307(s2)
     fa0:	4d4d4b4b 	0x4d4d4b4b
     fa4:	4c4b4b85 	0x4c4b4b85
     fa8:	134b4b85 	beq	k0,t3,13dc0 <__isr_vec_space+0x13da0>
     fac:	4b4b8586 	c2	0x14b8586
     fb0:	4c854b4d 	0x4c854b4d
     fb4:	01000802 	0x1000802
     fb8:	00010901 	0x10901
     fbc:	5c000200 	bgtzl	zero,17c0 <__isr_vec_space+0x17a0>
     fc0:	01000000 	0x1000000
     fc4:	0d0efb01 	jal	43bec04 <__memory_size+0x439f404>
     fc8:	01010100 	0x1010100
     fcc:	00000001 	movf	zero,zero,$fcc0
     fd0:	01000001 	movf	zero,t0,$fcc0
     fd4:	6573752f 	0x6573752f
     fd8:	696d2f72 	0x696d2f72
     fdc:	77737370 	jalx	dcdcdc0 <__memory_size+0xdcbd5c0>
     fe0:	69672f74 	0x69672f74
     fe4:	656e2f74 	0x656e2f74
     fe8:	62696c77 	0x62696c77
     fec:	62696c2f 	0x62696c2f
     ff0:	736f6c67 	0x736f6c67
     ff4:	696d2f73 	0x696d2f73
     ff8:	682f7370 	0x682f7370
     ffc:	6c2f6c61 	0x6c2f6c61
    1000:	6d2f6269 	0x6d2f6269
    1004:	00737069 	0x737069
    1008:	70696d00 	0x70696d00
    100c:	78655f73 	0x78655f73
    1010:	5f747063 	0x5f747063
    1014:	746f6f62 	jalx	1bdbd88 <__memory_size+0x1bbc588>
    1018:	0100532e 	0x100532e
    101c:	00000000 	nop
    1020:	15640205 	bne	t3,a0,1838 <__isr_vec_space+0x1818>
    1024:	cf038000 	pref	0x3,-32768(t8)
    1028:	4b830100 	c2	0x1830100
    102c:	4b4b4b4c 	c2	0x14b4b4c
    1030:	4b4b4b4b 	c2	0x14b4b4b
    1034:	4b4b4b4b 	c2	0x14b4b4b
    1038:	4b4f4c4b 	c2	0x14f4c4b
    103c:	4b4d4b4d 	c2	0x14d4b4d
    1040:	4d4b874b 	0x4d4b874b
    1044:	0e03134d 	jal	80c4d34 <__memory_size+0x80a5534>
    1048:	4b4c4b82 	c2	0x14c4b82
    104c:	4d4b4b4b 	0x4d4b4b4b
    1050:	4c4b4c83 	0x4c4b4c83
    1054:	4d4b854b 	0x4d4b854b
    1058:	4b4b4b83 	c2	0x14b4b83
    105c:	4b4b4b4b 	c2	0x14b4b4b
    1060:	4b4b4b4b 	c2	0x14b4b4b
    1064:	4b524b4b 	c2	0x1524b4b
    1068:	4d4b4d4c 	0x4d4b4d4c
    106c:	82100313 	lb	s0,787(s0)
    1070:	4b4b4b4d 	c2	0x14b4b4d
    1074:	4b4b8315 	c2	0x14b8315
    1078:	4b4b4d4b 	c2	0x14b4d4b
    107c:	4b4b4b4b 	c2	0x14b4b4b
    1080:	4b4b4b4b 	c2	0x14b4b4b
    1084:	4b4b4b4b 	c2	0x14b4b4b
    1088:	4b4b4b4b 	c2	0x14b4b4b
    108c:	4b4b4b4b 	c2	0x14b4b4b
    1090:	4b4b4b4b 	c2	0x14b4b4b
    1094:	4b834d4b 	c2	0x1834d4b
    1098:	4b4a1503 	c2	0x14a1503
    109c:	820f034d 	lb	t7,845(s0)
    10a0:	134b4b83 	beq	k0,t3,13eb0 <__isr_vec_space+0x13e90>
    10a4:	85821103 	lh	v0,4355(t4)
    10a8:	854b4b83 	lh	t3,19331(t2)
    10ac:	844b4b4b 	lh	t3,19275(v0)
    10b0:	4e4b4b4b 	c3	0x4b4b4b
    10b4:	8483524b 	lh	v1,21067(a0)
    10b8:	4b4b4c84 	c2	0x14b4c84
    10bc:	4c4b844b 	0x4c4b844b
    10c0:	0008024c 	syscall	0x2009
    10c4:	008a0101 	0x8a0101
    10c8:	00020000 	sll	zero,v0,0x0
    10cc:	0000005b 	0x5b
    10d0:	0efb0101 	jal	bec0404 <__memory_size+0xbea0c04>
    10d4:	0101000d 	break	0x101
    10d8:	00000101 	0x101
    10dc:	00000100 	sll	zero,zero,0x4
    10e0:	73752f01 	0x73752f01
    10e4:	6d2f7265 	0x6d2f7265
    10e8:	73737069 	0x73737069
    10ec:	672f7477 	0x672f7477
    10f0:	6e2f7469 	0x6e2f7469
    10f4:	696c7765 	0x696c7765
    10f8:	696c2f62 	0x696c2f62
    10fc:	6f6c6762 	0x6f6c6762
    1100:	6d2f7373 	0x6d2f7373
    1104:	2f737069 	sltiu	s3,k1,28777
    1108:	2f6c6168 	sltiu	t4,k1,24936
    110c:	2f62696c 	sltiu	v0,k1,26988
    1110:	7370696d 	s16sdi	xr5,k1,52,
    1114:	696d0000 	0x696d0000
    1118:	655f7370 	0x655f7370
    111c:	74706378 	jalx	1c18de0 <__memory_size+0x1bf95e0>
    1120:	7273695f 	udi15	s3,s3,t5,0x5
    1124:	0100532e 	0x100532e
    1128:	00000000 	nop
    112c:	02000205 	0x2000205
    1130:	2d038000 	sltiu	v1,t0,-32768
    1134:	f6838301 	sdc1	$f3,-31999(s4)
    1138:	83f68383 	lb	s6,-31869(ra)
    113c:	8383f683 	lb	v1,-2429(gp)
    1140:	f68383f6 	sdc1	$f3,-31754(s4)
    1144:	83f68383 	lb	s6,-31869(ra)
    1148:	8383f683 	lb	v1,-2429(gp)
    114c:	028383f7 	0x28383f7
    1150:	01010008 	0x1010008
    1154:	00000019 	multu	zero,zero
    1158:	00130002 	srl	zero,s3,0x0
    115c:	01010000 	0x1010000
    1160:	000d0efb 	0xd0efb
    1164:	01010101 	0x1010101
    1168:	01000000 	0x1000000
    116c:	00010000 	sll	zero,at,0x0
    1170:	00018800 	sll	s1,at,0x0
    1174:	6a000200 	0x6a000200
    1178:	01000001 	movf	zero,t0,$fcc0
    117c:	0d0efb01 	jal	43bec04 <__memory_size+0x439f404>
    1180:	01010100 	0x1010100
    1184:	00000001 	movf	zero,zero,$fcc0
    1188:	01000001 	movf	zero,t0,$fcc0
    118c:	6573752f 	0x6573752f
    1190:	696d2f72 	0x696d2f72
    1194:	77737370 	jalx	dcdcdc0 <__memory_size+0xdcbd5c0>
    1198:	69672f74 	0x69672f74
    119c:	656e2f74 	0x656e2f74
    11a0:	62696c77 	0x62696c77
    11a4:	62696c2f 	0x62696c2f
    11a8:	736f6c67 	0x736f6c67
    11ac:	696d2f73 	0x696d2f73
    11b0:	2f007370 	sltiu	zero,t8,29552
    11b4:	72657375 	q16slr	xr13,xr12,xr5,xr9,9
    11b8:	70696d2f 	0x70696d2f
    11bc:	74777373 	jalx	1ddcdcc <__memory_size+0x1dbd5cc>
    11c0:	7469672f 	jalx	1a59cbc <__memory_size+0x1a3a4bc>
    11c4:	77656e2f 	jalx	d95b8bc <__memory_size+0xd93c0bc>
    11c8:	2f62696c 	sltiu	v0,k1,26988
    11cc:	6c77656e 	0x6c77656e
    11d0:	6c2f6269 	0x6c2f6269
    11d4:	2f636269 	sltiu	v1,k1,25193
    11d8:	6c636e69 	0x6c636e69
    11dc:	2f656475 	sltiu	a1,k1,25717
    11e0:	6863616d 	0x6863616d
    11e4:	00656e69 	0x656e69
    11e8:	6573752f 	0x6573752f
    11ec:	696d2f72 	0x696d2f72
    11f0:	77737370 	jalx	dcdcdc0 <__memory_size+0xdcbd5c0>
    11f4:	69672f74 	0x69672f74
    11f8:	656e2f74 	0x656e2f74
    11fc:	62696c77 	0x62696c77
    1200:	77656e2f 	jalx	d95b8bc <__memory_size+0xd93c0bc>
    1204:	2f62696c 	sltiu	v0,k1,26988
    1208:	6362696c 	0x6362696c
    120c:	636e692f 	0x636e692f
    1210:	6564756c 	0x6564756c
    1214:	73752f00 	0x73752f00
    1218:	6d2f7265 	0x6d2f7265
    121c:	73737069 	0x73737069
    1220:	622f7477 	0x622f7477
    1224:	646c6975 	0x646c6975
    1228:	3130322d 	andi	s0,t1,0x322d
    122c:	36302e35 	ori	s0,s1,0x2e35
    1230:	2f35302d 	sltiu	s5,t9,12333
    1234:	74736e69 	jalx	1cdb9a4 <__memory_size+0x1cbc1a4>
    1238:	2d6c6c61 	sltiu	t4,t3,27745
    123c:	7370696d 	s16sdi	xr5,k1,52,
    1240:	69746d2d 	0x69746d2d
    1244:	666c652d 	0x666c652d
    1248:	62696c2f 	0x62696c2f
    124c:	6363672f 	0x6363672f
    1250:	70696d2f 	0x70696d2f
    1254:	746d2d73 	jalx	1b4b5cc <__memory_size+0x1b2bdcc>
    1258:	6c652d69 	0x6c652d69
    125c:	2e342f66 	sltiu	s4,s1,12134
    1260:	2f322e39 	sltiu	s2,t9,11833
    1264:	6c636e69 	0x6c636e69
    1268:	00656475 	0x656475
    126c:	6573752f 	0x6573752f
    1270:	696d2f72 	0x696d2f72
    1274:	77737370 	jalx	dcdcdc0 <__memory_size+0xdcbd5c0>
    1278:	69672f74 	0x69672f74
    127c:	656e2f74 	0x656e2f74
    1280:	62696c77 	0x62696c77
    1284:	77656e2f 	jalx	d95b8bc <__memory_size+0xd93c0bc>
    1288:	2f62696c 	sltiu	v0,k1,26988
    128c:	6362696c 	0x6362696c
    1290:	636e692f 	0x636e692f
    1294:	6564756c 	0x6564756c
    1298:	7379732f 	0x7379732f
    129c:	68750000 	0x68750000
    12a0:	72775f69 	0x72775f69
    12a4:	2e657469 	sltiu	a1,s3,29801
    12a8:	00010063 	0x10063
    12ac:	65645f00 	0x65645f00
    12b0:	6c756166 	0x6c756166
    12b4:	79745f74 	0x79745f74
    12b8:	2e736570 	sltiu	s3,s3,25968
    12bc:	00020068 	0x20068
    12c0:	64747300 	0x64747300
    12c4:	2e746e69 	sltiu	s4,s3,28265
    12c8:	00030068 	0x30068
    12cc:	64747300 	0x64747300
    12d0:	2e666564 	sltiu	a2,s3,25956
    12d4:	00040068 	0x40068
    12d8:	72726500 	0x72726500
    12dc:	682e6f6e 	0x682e6f6e
    12e0:	00000500 	sll	zero,zero,0x14
    12e4:	02050000 	0x2050000
    12e8:	800017fc 	lb	zero,6140(zero)
    12ec:	4e013403 	c3	0x13403
    12f0:	52454f46 	beql	s2,a1,1500c <__isr_vec_space+0x14fec>
    12f4:	f64bf650 	sdc1	$f11,-2480(s2)
    12f8:	01001402 	0x1001402
    12fc:	00013401 	0x13401
    1300:	1b000200 	blez	t8,1b04 <__isr_vec_space+0x1ae4>
    1304:	01000001 	movf	zero,t0,$fcc0
    1308:	0d0efb01 	jal	43bec04 <__memory_size+0x439f404>
    130c:	01010100 	0x1010100
    1310:	00000001 	movf	zero,zero,$fcc0
    1314:	01000001 	movf	zero,t0,$fcc0
    1318:	6573752f 	0x6573752f
    131c:	696d2f72 	0x696d2f72
    1320:	77737370 	jalx	dcdcdc0 <__memory_size+0xdcbd5c0>
    1324:	69672f74 	0x69672f74
    1328:	656e2f74 	0x656e2f74
    132c:	62696c77 	0x62696c77
    1330:	62696c2f 	0x62696c2f
    1334:	736f6c67 	0x736f6c67
    1338:	696d2f73 	0x696d2f73
    133c:	2f007370 	sltiu	zero,t8,29552
    1340:	72657375 	q16slr	xr13,xr12,xr5,xr9,9
    1344:	70696d2f 	0x70696d2f
    1348:	74777373 	jalx	1ddcdcc <__memory_size+0x1dbd5cc>
    134c:	7469672f 	jalx	1a59cbc <__memory_size+0x1a3a4bc>
    1350:	77656e2f 	jalx	d95b8bc <__memory_size+0xd93c0bc>
    1354:	2f62696c 	sltiu	v0,k1,26988
    1358:	6c77656e 	0x6c77656e
    135c:	6c2f6269 	0x6c2f6269
    1360:	2f636269 	sltiu	v1,k1,25193
    1364:	6c636e69 	0x6c636e69
    1368:	2f656475 	sltiu	a1,k1,25717
    136c:	6863616d 	0x6863616d
    1370:	00656e69 	0x656e69
    1374:	6573752f 	0x6573752f
    1378:	696d2f72 	0x696d2f72
    137c:	77737370 	jalx	dcdcdc0 <__memory_size+0xdcbd5c0>
    1380:	69672f74 	0x69672f74
    1384:	656e2f74 	0x656e2f74
    1388:	62696c77 	0x62696c77
    138c:	77656e2f 	jalx	d95b8bc <__memory_size+0xd93c0bc>
    1390:	2f62696c 	sltiu	v0,k1,26988
    1394:	6362696c 	0x6362696c
    1398:	636e692f 	0x636e692f
    139c:	6564756c 	0x6564756c
    13a0:	73752f00 	0x73752f00
    13a4:	6d2f7265 	0x6d2f7265
    13a8:	73737069 	0x73737069
    13ac:	672f7477 	0x672f7477
    13b0:	6e2f7469 	0x6e2f7469
    13b4:	696c7765 	0x696c7765
    13b8:	696c2f62 	0x696c2f62
    13bc:	6f6c6762 	0x6f6c6762
    13c0:	6d2f7373 	0x6d2f7373
    13c4:	2f737069 	sltiu	s3,k1,28777
    13c8:	2f6c6168 	sltiu	t4,k1,24936
    13cc:	6c636e69 	0x6c636e69
    13d0:	2f656475 	sltiu	a1,k1,25717
    13d4:	7370696d 	s16sdi	xr5,k1,52,
    13d8:	68750000 	0x68750000
    13dc:	78655f69 	0x78655f69
    13e0:	74706563 	jalx	1c1958c <__memory_size+0x1bf9d8c>
    13e4:	2e6e6f69 	sltiu	t6,s3,28521
    13e8:	00010063 	0x10063
    13ec:	65645f00 	0x65645f00
    13f0:	6c756166 	0x6c756166
    13f4:	79745f74 	0x79745f74
    13f8:	2e736570 	sltiu	s3,s3,25968
    13fc:	00020068 	0x20068
    1400:	64747300 	0x64747300
    1404:	2e746e69 	sltiu	s4,s3,28265
    1408:	00030068 	0x30068
    140c:	32336d00 	andi	s3,s1,0x6d00
    1410:	682e3063 	0x682e3063
    1414:	00000400 	sll	zero,zero,0x10
    1418:	2e6c6168 	sltiu	t4,s3,24936
    141c:	00040068 	0x40068
    1420:	05000000 	bltz	t0,1424 <__isr_vec_space+0x1404>
    1424:	00184c02 	srl	t1,t8,0x10
    1428:	01340380 	0x1340380
    142c:	504c4b15 	beql	v0,t4,14084 <__isr_vec_space+0x14064>
    1430:	01000802 	0x1000802
    1434:	00013f01 	0x13f01
    1438:	1a000200 	blez	s0,1c3c <__isr_vec_space+0x1c1c>
    143c:	01000001 	movf	zero,t0,$fcc0
    1440:	0d0efb01 	jal	43bec04 <__memory_size+0x439f404>
    1444:	01010100 	0x1010100
    1448:	00000001 	movf	zero,zero,$fcc0
    144c:	01000001 	movf	zero,t0,$fcc0
    1450:	6573752f 	0x6573752f
    1454:	696d2f72 	0x696d2f72
    1458:	77737370 	jalx	dcdcdc0 <__memory_size+0xdcbd5c0>
    145c:	69672f74 	0x69672f74
    1460:	656e2f74 	0x656e2f74
    1464:	62696c77 	0x62696c77
    1468:	62696c2f 	0x62696c2f
    146c:	736f6c67 	0x736f6c67
    1470:	696d2f73 	0x696d2f73
    1474:	2f007370 	sltiu	zero,t8,29552
    1478:	72657375 	q16slr	xr13,xr12,xr5,xr9,9
    147c:	70696d2f 	0x70696d2f
    1480:	74777373 	jalx	1ddcdcc <__memory_size+0x1dbd5cc>
    1484:	7469672f 	jalx	1a59cbc <__memory_size+0x1a3a4bc>
    1488:	77656e2f 	jalx	d95b8bc <__memory_size+0xd93c0bc>
    148c:	2f62696c 	sltiu	v0,k1,26988
    1490:	6762696c 	0x6762696c
    1494:	73736f6c 	s16ldi	xr13,k1,438,ptn2
    1498:	70696d2f 	0x70696d2f
    149c:	61682f73 	0x61682f73
    14a0:	6e692f6c 	0x6e692f6c
    14a4:	64756c63 	0x64756c63
    14a8:	696d2f65 	0x696d2f65
    14ac:	2f007370 	sltiu	zero,t8,29552
    14b0:	72657375 	q16slr	xr13,xr12,xr5,xr9,9
    14b4:	70696d2f 	0x70696d2f
    14b8:	74777373 	jalx	1ddcdcc <__memory_size+0x1dbd5cc>
    14bc:	7469672f 	jalx	1a59cbc <__memory_size+0x1a3a4bc>
    14c0:	77656e2f 	jalx	d95b8bc <__memory_size+0xd93c0bc>
    14c4:	2f62696c 	sltiu	v0,k1,26988
    14c8:	6c77656e 	0x6c77656e
    14cc:	6c2f6269 	0x6c2f6269
    14d0:	2f636269 	sltiu	v1,k1,25193
    14d4:	6c636e69 	0x6c636e69
    14d8:	2f656475 	sltiu	a1,k1,25717
    14dc:	6863616d 	0x6863616d
    14e0:	00656e69 	0x656e69
    14e4:	6573752f 	0x6573752f
    14e8:	696d2f72 	0x696d2f72
    14ec:	77737370 	jalx	dcdcdc0 <__memory_size+0xdcbd5c0>
    14f0:	69672f74 	0x69672f74
    14f4:	656e2f74 	0x656e2f74
    14f8:	62696c77 	0x62696c77
    14fc:	77656e2f 	jalx	d95b8bc <__memory_size+0xd93c0bc>
    1500:	2f62696c 	sltiu	v0,k1,26988
    1504:	6362696c 	0x6362696c
    1508:	636e692f 	0x636e692f
    150c:	6564756c 	0x6564756c
    1510:	68750000 	0x68750000
    1514:	6e695f69 	0x6e695f69
    1518:	65726964 	0x65726964
    151c:	632e7463 	0x632e7463
    1520:	00000100 	sll	zero,zero,0x4
    1524:	6332336d 	0x6332336d
    1528:	00682e30 	tge	v1,t0,0xb8
    152c:	5f000002 	bgtzl	t8,1538 <__isr_vec_space+0x1518>
    1530:	61666564 	0x61666564
    1534:	5f746c75 	0x5f746c75
    1538:	65707974 	0x65707974
    153c:	00682e73 	tltu	v1,t0,0xb9
    1540:	73000003 	0x73000003
    1544:	6e696474 	0x6e696474
    1548:	00682e74 	teq	v1,t0,0xb9
    154c:	68000004 	0x68000004
    1550:	682e6c61 	0x682e6c61
    1554:	00000200 	sll	zero,zero,0x8
    1558:	02050000 	0x2050000
    155c:	80001860 	lb	zero,6240(zero)
    1560:	01012303 	0x1012303
    1564:	4b464f4b 	c2	0x1464f4b
    1568:	4f4e4b4b 	c3	0x14e4b4b
    156c:	4d4b464f 	0x4d4b464f
    1570:	024d4c48 	0x24d4c48
    1574:	01010008 	0x1010008
    1578:	0000011f 	0x11f
    157c:	01090002 	0x1090002
    1580:	01010000 	0x1010000
    1584:	000d0efb 	0xd0efb
    1588:	01010101 	0x1010101
    158c:	01000000 	0x1000000
    1590:	2f010000 	sltiu	at,t8,0
    1594:	72657375 	q16slr	xr13,xr12,xr5,xr9,9
    1598:	70696d2f 	0x70696d2f
    159c:	74777373 	jalx	1ddcdcc <__memory_size+0x1dbd5cc>
    15a0:	7469672f 	jalx	1a59cbc <__memory_size+0x1a3a4bc>
    15a4:	77656e2f 	jalx	d95b8bc <__memory_size+0xd93c0bc>
    15a8:	2f62696c 	sltiu	v0,k1,26988
    15ac:	6c77656e 	0x6c77656e
    15b0:	6c2f6269 	0x6c2f6269
    15b4:	2f636269 	sltiu	v1,k1,25193
    15b8:	6e727265 	0x6e727265
    15bc:	752f006f 	jalx	4bc01bc <__memory_size+0x4ba09bc>
    15c0:	2f726573 	sltiu	s2,k1,25971
    15c4:	7370696d 	s16sdi	xr5,k1,52,
    15c8:	2f747773 	sltiu	s4,k1,30579
    15cc:	2f746967 	sltiu	s4,k1,26983
    15d0:	6c77656e 	0x6c77656e
    15d4:	6e2f6269 	0x6e2f6269
    15d8:	696c7765 	0x696c7765
    15dc:	696c2f62 	0x696c2f62
    15e0:	692f6362 	0x692f6362
    15e4:	756c636e 	jalx	5b18db8 <__memory_size+0x5af95b8>
    15e8:	732f6564 	s8ldi	xr5,t9,-39,ptn3
    15ec:	2f007379 	sltiu	zero,t8,29561
    15f0:	72657375 	q16slr	xr13,xr12,xr5,xr9,9
    15f4:	70696d2f 	0x70696d2f
    15f8:	74777373 	jalx	1ddcdcc <__memory_size+0x1dbd5cc>
    15fc:	6975622f 	0x6975622f
    1600:	322d646c 	andi	t5,s1,0x646c
    1604:	2e353130 	sltiu	s5,s1,12592
    1608:	302d3630 	andi	t5,at,0x3630
    160c:	6e692f35 	0x6e692f35
    1610:	6c617473 	0x6c617473
    1614:	696d2d6c 	0x696d2d6c
    1618:	6d2d7370 	0x6d2d7370
    161c:	652d6974 	0x652d6974
    1620:	6c2f666c 	0x6c2f666c
    1624:	672f6269 	0x672f6269
    1628:	6d2f6363 	0x6d2f6363
    162c:	2d737069 	sltiu	s3,t3,28777
    1630:	2d69746d 	sltiu	t1,t3,29805
    1634:	2f666c65 	sltiu	a2,k1,27749
    1638:	2e392e34 	sltiu	t9,s1,11828
    163c:	6e692f32 	0x6e692f32
    1640:	64756c63 	0x64756c63
    1644:	65000065 	0x65000065
    1648:	6f6e7272 	0x6f6e7272
    164c:	0100632e 	0x100632e
    1650:	6f6c0000 	0x6f6c0000
    1654:	682e6b63 	0x682e6b63
    1658:	00000200 	sll	zero,zero,0x8
    165c:	7079745f 	udi15	v1,t9,t6,0x11
    1660:	682e7365 	0x682e7365
    1664:	00000200 	sll	zero,zero,0x8
    1668:	64647473 	0x64647473
    166c:	682e6665 	0x682e6665
    1670:	00000300 	sll	zero,zero,0xc
    1674:	6e656572 	0x6e656572
    1678:	00682e74 	teq	v1,t0,0xb9
    167c:	65000002 	0x65000002
    1680:	6f6e7272 	0x6f6e7272
    1684:	0200682e 	0x200682e
    1688:	00000000 	nop
    168c:	18a40205 	0x18a40205
    1690:	0b038000 	j	c0e0000 <__memory_size+0xc0c0800>
    1694:	0c021401 	jal	85004 <__memory_size+0x65804>
    1698:	Address 0x0000000000001698 is out of bounds.


Disassembly of section .debug_frame:

00000000 <.debug_frame>:
   0:	0000000c 	syscall
   4:	ffffffff 	sdc3	$31,-1(ra)
   8:	7c010001 	0x7c010001
   c:	001d0d1f 	0x1d0d1f
  10:	0000000c 	syscall
  14:	00000000 	nop
  18:	8000075c 	lb	zero,1884(zero)
  1c:	000000a8 	0xa8
  20:	00000014 	0x14
  24:	00000000 	nop
  28:	80000804 	lb	zero,2052(zero)
  2c:	0000004c 	syscall	0x1
  30:	02080e44 	0x2080e44
  34:	00000e48 	0xe48
  38:	0000000c 	syscall
  3c:	ffffffff 	sdc3	$31,-1(ra)
  40:	7c010001 	0x7c010001
  44:	001d0d1f 	0x1d0d1f
  48:	00000018 	mult	zero,zero
  4c:	00000038 	0x38
  50:	80000898 	lb	zero,2200(zero)
  54:	00000028 	0x28
  58:	4c180e44 	0x4c180e44
  5c:	0e58019f 	jal	960067c <__memory_size+0x95e0e7c>
  60:	0000df00 	sll	k1,zero,0x1c
  64:	0000000c 	syscall
  68:	ffffffff 	sdc3	$31,-1(ra)
  6c:	7c010001 	0x7c010001
  70:	001d0d1f 	0x1d0d1f
  74:	00000014 	0x14
  78:	00000064 	0x64
  7c:	800008c0 	lb	zero,2240(zero)
  80:	0000003c 	0x3c
  84:	4c180e44 	0x4c180e44
  88:	019f0290 	0x19f0290
  8c:	0000000c 	syscall
  90:	ffffffff 	sdc3	$31,-1(ra)
  94:	7c010001 	0x7c010001
  98:	001d0d1f 	0x1d0d1f
  9c:	0000002c 	0x2c
  a0:	0000008c 	syscall	0x2
  a4:	800008fc 	lb	zero,2300(zero)
  a8:	00000108 	0x108
  ac:	44280e48 	0x44280e48
  b0:	94480690 	lhu	t0,1680(v0)
  b4:	03934802 	0x3934802
  b8:	4c049248 	0x4c049248
  bc:	019f0591 	0x19f0591
  c0:	000ed802 	srl	k1,t6,0x0
  c4:	d3d2d1d0 	0xd3d2d1d0
  c8:	0000dfd4 	0xdfd4
  cc:	0000000c 	syscall
  d0:	ffffffff 	sdc3	$31,-1(ra)
  d4:	7c010001 	0x7c010001
  d8:	001d0d1f 	0x1d0d1f
  dc:	00000038 	0x38
  e0:	000000cc 	syscall	0x3
  e4:	80000a04 	lb	zero,2564(zero)
  e8:	00000180 	sll	zero,zero,0x6
  ec:	48400e48 	0x48400e48
  f0:	97480793 	lhu	t0,1939(k0)
  f4:	04965003 	0x4965003
  f8:	9f600694 	0x9f600694
  fc:	95029e01 	lhu	v0,-25087(t0)
 100:	91089205 	lbu	t0,-28155(t0)
 104:	030a9009 	0x30a9009
 108:	000e0138 	0xe0138
 10c:	d3d2d1d0 	0xd3d2d1d0
 110:	d7d6d5d4 	ldc1	$f22,-10796(s8)
 114:	0000dfde 	0xdfde
 118:	0000000c 	syscall
 11c:	ffffffff 	sdc3	$31,-1(ra)
 120:	7c010001 	0x7c010001
 124:	001d0d1f 	0x1d0d1f
 128:	00000020 	add	zero,zero,zero
 12c:	00000118 	0x118
 130:	80000b84 	lb	zero,2948(zero)
 134:	00000088 	0x88
 138:	44280e44 	0x44280e44
 13c:	91480392 	lbu	t0,914(t2)
 140:	05904804 	bltzal	t4,12154 <__isr_vec_space+0x12134>
 144:	9f029354 	0x9f029354
 148:	00000001 	movf	zero,zero,$fcc0
 14c:	0000000c 	syscall
 150:	ffffffff 	sdc3	$31,-1(ra)
 154:	7c010001 	0x7c010001
 158:	001d0d1f 	0x1d0d1f
 15c:	0000000c 	syscall
 160:	0000014c 	syscall	0x5
 164:	80000cc4 	lb	zero,3268(zero)
 168:	00000048 	0x48
 16c:	0000000c 	syscall
 170:	ffffffff 	sdc3	$31,-1(ra)
 174:	7c010001 	0x7c010001
 178:	001d0d1f 	0x1d0d1f
 17c:	00000024 	and	zero,zero,zero
 180:	0000016c 	0x16c
 184:	80000d0c 	lb	zero,3340(zero)
 188:	000000c0 	ehb
 18c:	44280e44 	0x44280e44
 190:	91480292 	lbu	t0,658(t2)
 194:	04904803 	bltzal	a0,121a4 <__isr_vec_space+0x12184>
 198:	02019f4c 	syscall	0x8067d
 19c:	d0000e9c 	0xd0000e9c
 1a0:	00dfd2d1 	0xdfd2d1
 1a4:	0000000c 	syscall
 1a8:	0000016c 	0x16c
 1ac:	80000dcc 	lb	zero,3532(zero)
 1b0:	00000008 	jr	zero
 1b4:	00000024 	and	zero,zero,zero
 1b8:	0000016c 	0x16c
 1bc:	80000dd4 	lb	zero,3540(zero)
 1c0:	000006dc 	0x6dc
 1c4:	48200e48 	0x48200e48
 1c8:	9f4c0490 	0x9f4c0490
 1cc:	48029201 	0x48029201
 1d0:	b8030391 	swr	v1,913(zero)
 1d4:	d0000e06 	0xd0000e06
 1d8:	00dfd2d1 	0xdfd2d1
 1dc:	0000000c 	syscall
 1e0:	ffffffff 	sdc3	$31,-1(ra)
 1e4:	7c010001 	0x7c010001
 1e8:	001d0d1f 	0x1d0d1f
 1ec:	0000001c 	0x1c
 1f0:	000001dc 	0x1dc
 1f4:	800017fc 	lb	zero,6140(zero)
 1f8:	00000050 	0x50
 1fc:	50200e44 	beqzl	at,3b10 <__isr_vec_space+0x3af0>
 200:	0290019f 	0x290019f
 204:	d0000e7c 	0xd0000e7c
 208:	000000df 	0xdf
 20c:	0000000c 	syscall
 210:	ffffffff 	sdc3	$31,-1(ra)
 214:	7c010001 	0x7c010001
 218:	001d0d1f 	0x1d0d1f
 21c:	0000000c 	syscall
 220:	0000020c 	syscall	0x8
 224:	8000184c 	lb	zero,6220(zero)
 228:	00000014 	0x14
 22c:	0000000c 	syscall
 230:	ffffffff 	sdc3	$31,-1(ra)
 234:	7c010001 	0x7c010001
 238:	001d0d1f 	0x1d0d1f
 23c:	0000000c 	syscall
 240:	0000022c 	0x22c
 244:	80001860 	lb	zero,6240(zero)
 248:	00000044 	0x44
 24c:	0000000c 	syscall
 250:	ffffffff 	sdc3	$31,-1(ra)
 254:	7c010001 	0x7c010001
 258:	001d0d1f 	0x1d0d1f
 25c:	0000000c 	syscall
 260:	0000024c 	syscall	0x9
 264:	800018a4 	lb	zero,6308(zero)
 268:	0000000c 	syscall

Disassembly of section .debug_str:

00000000 <.debug_str>:
   0:	445f464d 	0x445f464d
   4:	5f505349 	0x5f505349
   8:	304c5443 	andi	t4,v0,0x5443
   c:	5f464d00 	0x5f464d00
  10:	50534944 	beql	v0,s3,12524 <__isr_vec_space+0x12504>
  14:	4c54435f 	0x4c54435f
  18:	4e470031 	nmadd.d	$f0,$f18,$f0,$f7
  1c:	20432055 	addi	v1,v0,8277
  20:	2e392e34 	sltiu	t9,s1,11828
  24:	6d2d2032 	0x6d2d2032
  28:	2d206c65 	sltiu	zero,t1,27749
  2c:	666f736d 	0x666f736d
  30:	6c662d74 	0x6c662d74
  34:	2074616f 	addi	s4,v1,24943
  38:	72616d2d 	s16sdi	xr4,s3,182,ptn0
  3c:	6d3d6863 	0x6d3d6863
  40:	636b3431 	0x636b3431
  44:	706d2d20 	0x706d2d20
  48:	2d20746c 	sltiu	zero,t1,29804
  4c:	7370696d 	s16sdi	xr5,k1,52,
  50:	32723233 	andi	s2,s3,0x3233
  54:	736d2d20 	0x736d2d20
  58:	69636e79 	0x69636e79
  5c:	616d2d20 	0x616d2d20
  60:	333d6962 	andi	sp,t9,0x6962
  64:	672d2032 	0x672d2032
  68:	314f2d20 	andi	t7,t2,0x2d20
  6c:	5f464d00 	0x5f464d00
  70:	50534944 	beql	v0,s3,12584 <__isr_vec_space+0x12564>
  74:	4c41505f 	0x4c41505f
  78:	5341425f 	beql	k0,at,109f8 <__isr_vec_space+0x109d8>
  7c:	65640045 	0x65640045
  80:	0079616c 	0x79616c
  84:	5f6d7266 	0x5f6d7266
  88:	00727470 	tge	v1,s2,0x1d1
  8c:	6e69616d 	0x6e69616d
  90:	4d00632e 	msub.ps	$f12,$f8,$f12,$f0
  94:	49445f46 	0x49445f46
  98:	465f5053 	c1	0x5f5053
  9c:	425f4d52 	c0	0x5f4d52
  a0:	00455341 	0x455341
  a4:	555c3a43 	bnel	t2,gp,e9b4 <__isr_vec_space+0xe994>
  a8:	73726573 	d32sar	xr5,xr9,xr9,xr12,13
  ac:	74614d5c 	jalx	1853570 <__memory_size+0x1833d70>
  b0:	72505c74 	q16sll	xr1,xr7,xr1,xr4,9
  b4:	63656a6f 	0x63656a6f
  b8:	6d5c7374 	0x6d5c7374
  bc:	66737069 	0x66737069
  c0:	2d616770 	sltiu	at,t3,26480
  c4:	70736964 	s8ldi	xr5,v1,-38,ptn4
  c8:	5c79616c 	0x5c79616c
  cc:	5c637273 	0x5c637273
  d0:	61625c63 	0x61625c63
  d4:	5f636973 	0x5f636973
  d8:	00746f64 	0x746f64
  dc:	6e69616d 	0x6e69616d
  e0:	6c617000 	0x6c617000
  e4:	7274705f 	udi15	s3,s4,t6,0x1
  e8:	6e6f6c00 	0x6e6f6c00
  ec:	6f6c2067 	0x6f6c2067
  f0:	6920676e 	0x6920676e
  f4:	7300746e 	0x7300746e
  f8:	74726f68 	jalx	1c9bda0 <__memory_size+0x1c7c5a0>
  fc:	736e7520 	0x736e7520
 100:	656e6769 	0x656e6769
 104:	6e692064 	0x6e692064
 108:	5f5f0074 	0x5f5f0074
 10c:	78657461 	ld.h	$w17,202(t6)
 110:	745f7469 	jalx	17dd1a4 <__memory_size+0x17bd9a4>
 114:	73657079 	0x73657079
 118:	73752f00 	0x73752f00
 11c:	6d2f7265 	0x6d2f7265
 120:	73737069 	0x73737069
 124:	672f7477 	0x672f7477
 128:	6e2f7469 	0x6e2f7469
 12c:	696c7765 	0x696c7765
 130:	656e2f62 	0x656e2f62
 134:	62696c77 	0x62696c77
 138:	62696c2f 	0x62696c2f
 13c:	74732f63 	jalx	1ccbd8c <__memory_size+0x1cac58c>
 140:	62696c64 	0x62696c64
 144:	6574612f 	0x6574612f
 148:	2e746978 	sltiu	s4,s3,27000
 14c:	6f6c0063 	0x6f6c0063
 150:	6c20676e 	0x6c20676e
 154:	20676e6f 	addi	a3,v1,28271
 158:	69736e75 	0x69736e75
 15c:	64656e67 	0x64656e67
 160:	746e6920 	jalx	1b9a480 <__memory_size+0x1b7ac80>
 164:	554e4700 	bnel	t2,t6,11d68 <__isr_vec_space+0x11d48>
 168:	34204320 	ori	zero,at,0x4320
 16c:	322e392e 	andi	t6,s1,0x392e
 170:	656d2d20 	0x656d2d20
 174:	6d2d206c 	0x6d2d206c
 178:	74666f73 	jalx	199bdcc <__memory_size+0x197c5cc>
 17c:	6f6c662d 	0x6f6c662d
 180:	2d207461 	sltiu	zero,t1,29793
 184:	746e696d 	jalx	1b9a5b4 <__memory_size+0x1b7adb4>
 188:	696c7265 	0x696c7265
 18c:	6d2d6b6e 	0x6d2d6b6e
 190:	31737069 	andi	s3,t3,0x7069
 194:	6d2d2036 	0x6d2d2036
 198:	65646f63 	0x65646f63
 19c:	6165722d 	0x6165722d
 1a0:	6c626164 	0x6c626164
 1a4:	63703d65 	0x63703d65
 1a8:	206c6572 	addi	t4,v1,25970
 1ac:	6f6e6d2d 	0x6f6e6d2d
 1b0:	6f70672d 	0x6f70672d
 1b4:	2d207470 	sltiu	zero,t1,29808
 1b8:	666f736d 	0x666f736d
 1bc:	6c662d74 	0x6c662d74
 1c0:	2074616f 	addi	s4,v1,24943
 1c4:	72616d2d 	s16sdi	xr4,s3,182,ptn0
 1c8:	6d3d6863 	0x6d3d6863
 1cc:	33737069 	andi	s3,k1,0x7069
 1d0:	20327232 	addi	s2,at,29234
 1d4:	6c706d2d 	0x6c706d2d
 1d8:	6d2d2074 	0x6d2d2074
 1dc:	33737069 	andi	s3,k1,0x7069
 1e0:	20327232 	addi	s2,at,29234
 1e4:	79736d2d 	0x79736d2d
 1e8:	2069636e 	addi	t1,v1,25454
 1ec:	62616d2d 	0x62616d2d
 1f0:	32333d69 	andi	s3,s1,0x3d69
 1f4:	20672d20 	addi	a3,v1,11552
 1f8:	20324f2d 	addi	s2,at,20269
 1fc:	20734f2d 	addi	s3,v1,20269
 200:	6f6e662d 	0x6f6e662d
 204:	6975622d 	0x6975622d
 208:	6e69746c 	0x6e69746c
 20c:	736e7500 	0x736e7500
 210:	656e6769 	0x656e6769
 214:	68632064 	0x68632064
 218:	5f007261 	bgtzl	t8,1cba0 <__isr_vec_space+0x1cb80>
 21c:	6765725f 	0x6765725f
 220:	65747369 	0x65747369
 224:	78655f72 	0x78655f72
 228:	72707469 	0x72707469
 22c:	5f00636f 	bgtzl	t8,18fec <__isr_vec_space+0x18fcc>
 230:	5f74655f 	0x5f74655f
 234:	78656e6f 	0x78656e6f
 238:	5f007469 	bgtzl	t8,1d3e0 <__isr_vec_space+0x1d3c0>
 23c:	5f74655f 	0x5f74655f
 240:	00617863 	0x617863
 244:	726f6873 	d32sar	xr1,xr10,xr13,xr11,9
 248:	6e692074 	0x6e692074
 24c:	5f5f0074 	0x5f5f0074
 250:	615f7465 	0x615f7465
 254:	69786574 	0x69786574
 258:	69730074 	0x69730074
 25c:	7974657a 	0x7974657a
 260:	5f006570 	bgtzl	t8,19824 <__isr_vec_space+0x19804>
 264:	5f6f7364 	0x5f6f7364
 268:	646e6168 	0x646e6168
 26c:	5f00656c 	bgtzl	t8,19820 <__isr_vec_space+0x19800>
 270:	72616e66 	s32mulu	xr9,xr11,s3,at
 274:	5f007367 	bgtzl	t8,1d014 <__isr_vec_space+0x1cff4>
 278:	646e6172 	0x646e6172
 27c:	5f003834 	bgtzl	t8,e350 <__isr_vec_space+0xe330>
 280:	72656d65 	s8sdi	xr5,s3,91,ptn1
 284:	636e6567 	0x636e6567
 288:	775f0079 	jalx	d7c01e4 <__memory_size+0xd7a09e4>
 28c:	6f747263 	0x6f747263
 290:	735f626d 	s16sdi	xr9,k0,-80,
 294:	65746174 	0x65746174
 298:	63775f00 	0x63775f00
 29c:	6f747273 	0x6f747273
 2a0:	5f73626d 	0x5f73626d
 2a4:	74617473 	jalx	185d1cc <__memory_size+0x183d9cc>
 2a8:	6c5f0065 	0x6c5f0065
 2ac:	69736662 	0x69736662
 2b0:	5f00657a 	bgtzl	t8,1989c <__isr_vec_space+0x1987c>
 2b4:	7472626d 	jalx	1c989b4 <__memory_size+0x1c791b4>
 2b8:	5f63776f 	0x5f63776f
 2bc:	74617473 	jalx	185d1cc <__memory_size+0x183d9cc>
 2c0:	775f0065 	jalx	d7c0194 <__memory_size+0xd7a0994>
 2c4:	6d6f7463 	0x6d6f7463
 2c8:	74735f62 	jalx	1cd7d88 <__memory_size+0x1cb8588>
 2cc:	00657461 	0x657461
 2d0:	6d745f5f 	0x6d745f5f
 2d4:	6365735f 	0x6365735f
 2d8:	62755f00 	0x62755f00
 2dc:	5f006675 	bgtzl	t8,19cb4 <__isr_vec_space+0x19c94>
 2e0:	5f6d745f 	0x5f6d745f
 2e4:	72756f68 	lxhu	t5,s3,s5,3
 2e8:	735f5f00 	0x735f5f00
 2ec:	6f5f0066 	0x6f5f0066
 2f0:	78655f6e 	0x78655f6e
 2f4:	615f7469 	0x615f7469
 2f8:	00736772 	tlt	v1,s3,0x19d
 2fc:	6f6f635f 	0x6f6f635f
 300:	0065696b 	0x65696b
 304:	67735f5f 	0x67735f5f
 308:	0065756c 	0x65756c
 30c:	616c665f 	0x616c665f
 310:	5f007367 	bgtzl	t8,1d0b0 <__isr_vec_space+0x1d090>
 314:	635f7369 	0x635f7369
 318:	5f006178 	bgtzl	t8,188fc <__isr_vec_space+0x188dc>
 31c:	69647473 	0x69647473
 320:	625f006e 	0x625f006e
 324:	69736b6c 	0x69736b6c
 328:	5f00657a 	bgtzl	t8,19914 <__isr_vec_space+0x198f4>
 32c:	62747663 	0x62747663
 330:	5f006675 	bgtzl	t8,19d08 <__isr_vec_space+0x19ce8>
 334:	7366666f 	0x7366666f
 338:	5f007465 	bgtzl	t8,1d4d0 <__isr_vec_space+0x1d4b0>
 33c:	7273626d 	s16sdi	xr9,s3,432,
 340:	63776f74 	0x63776f74
 344:	74735f73 	jalx	1cd7dcc <__memory_size+0x1cb85cc>
 348:	00657461 	0x657461
 34c:	72626d5f 	udi15	s3,v0,t5,0x15
 350:	5f6e656c 	0x5f6e656c
 354:	74617473 	jalx	185d1cc <__memory_size+0x183d9cc>
 358:	752f0065 	jalx	4bc0194 <__memory_size+0x4ba0994>
 35c:	2f726573 	sltiu	s2,k1,25971
 360:	7370696d 	s16sdi	xr5,k1,52,
 364:	2f747773 	sltiu	s4,k1,30579
 368:	2f746967 	sltiu	s4,k1,26983
 36c:	6c77656e 	0x6c77656e
 370:	6e2f6269 	0x6e2f6269
 374:	696c7765 	0x696c7765
 378:	696c2f62 	0x696c2f62
 37c:	732f6362 	s8ldd	xr13,t9,-40,ptn3
 380:	696c6474 	0x696c6474
 384:	78652f62 	ld.w	$w29,404(a1)
 388:	632e7469 	0x632e7469
 38c:	6e665f00 	0x6e665f00
 390:	735f0073 	d32sar	xr1,xr0,xr12,xr7,13
 394:	006e6769 	0x6e6769
 398:	6f6c665f 	0x6f6c665f
 39c:	745f6b63 	jalx	17dad8c <__memory_size+0x17bb58c>
 3a0:	74735f00 	jalx	1cd7c00 <__memory_size+0x1cb8400>
 3a4:	72726564 	s8ldi	xr5,s3,-103,ptn4
 3a8:	69425f00 	0x69425f00
 3ac:	746e6967 	jalx	1b9a59c <__memory_size+0x1b7ad9c>
 3b0:	61675f00 	0x61675f00
 3b4:	5f616d6d 	0x5f616d6d
 3b8:	6e676973 	0x6e676973
 3bc:	006d6167 	0x6d6167
 3c0:	6165725f 	0x6165725f
 3c4:	725f0064 	s8ldi	xr1,s2,-64,ptn7
 3c8:	6c757365 	0x6c757365
 3cc:	006b5f74 	teq	v1,t3,0x17d
 3d0:	6d745f5f 	0x6d745f5f
 3d4:	775f5f00 	jalx	d7d7c00 <__memory_size+0xd7b8400>
 3d8:	00626863 	0x626863
 3dc:	6474735f 	0x6474735f
 3e0:	0074756f 	0x74756f
 3e4:	7476635f 	jalx	1d98d7c <__memory_size+0x1d7957c>
 3e8:	006e656c 	0x6e656c
 3ec:	6c69665f 	0x6c69665f
 3f0:	6e5f0065 	0x6e5f0065
 3f4:	73626f69 	0x73626f69
 3f8:	74615f00 	jalx	1857c00 <__memory_size+0x1838400>
 3fc:	74697865 	jalx	1a5e194 <__memory_size+0x1a3e994>
 400:	735f0030 	d32sll	xr0,xr0,xr12,xr7,13
 404:	616e6769 	0x616e6769
 408:	75625f6c 	jalx	5897db0 <__memory_size+0x58785b0>
 40c:	615f0066 	0x615f0066
 410:	69746373 	0x69746373
 414:	625f656d 	0x625f656d
 418:	5f006675 	bgtzl	t8,19df0 <__isr_vec_space+0x19dd0>
 41c:	75736572 	jalx	5cd95c8 <__memory_size+0x5cb9dc8>
 420:	5f00746c 	bgtzl	t8,1d5d4 <__isr_vec_space+0x1d5b4>
 424:	6863775f 	0x6863775f
 428:	6e697700 	0x6e697700
 42c:	00745f74 	teq	v1,s4,0x17d
 430:	616c665f 	0x616c665f
 434:	00327367 	0x327367
 438:	6972775f 	0x6972775f
 43c:	5f006574 	bgtzl	t8,19a10 <__isr_vec_space+0x199f0>
 440:	7478656e 	jalx	1e195b8 <__memory_size+0x1df9db8>
 444:	5f5f0066 	0x5f5f0066
 448:	6d5f6d74 	0x6d5f6d74
 44c:	5f006e6f 	bgtzl	t8,1be0c <__isr_vec_space+0x1bdec>
 450:	6964735f 	0x6964735f
 454:	696e6964 	0x696e6964
 458:	6f5f0074 	0x6f5f0074
 45c:	745f6666 	jalx	17d9998 <__memory_size+0x17ba198>
 460:	635f5f00 	0x635f5f00
 464:	5f6c6c61 	0x5f6c6c61
 468:	74697865 	jalx	1a5e194 <__memory_size+0x1a3e994>
 46c:	636f7270 	0x636f7270
 470:	665f0073 	0x665f0073
 474:	6c656572 	0x6c656572
 478:	00747369 	0x747369
 47c:	434f4c5f 	c0	0x14f4c5f
 480:	45525f4b 	0x45525f4b
 484:	53525543 	beql	k0,s2,15994 <__isr_vec_space+0x15974>
 488:	5f455649 	0x5f455649
 48c:	6e5f0054 	0x6e5f0054
 490:	5f007765 	bgtzl	t8,1e228 <__isr_vec_space+0x1e208>
 494:	72655f68 	lxhu	t3,s3,a1,3
 498:	006f6e72 	tlt	v1,t7,0x1b9
 49c:	6d745f5f 	0x6d745f5f
 4a0:	6164795f 	0x6164795f
 4a4:	5f5f0079 	0x5f5f0079
 4a8:	66756273 	0x66756273
 4ac:	6f695f00 	0x6f695f00
 4b0:	5f007362 	bgtzl	t8,1d23c <__isr_vec_space+0x1d21c>
 4b4:	4c49465f 	0x4c49465f
 4b8:	6d5f0045 	0x6d5f0045
 4bc:	61747362 	0x61747362
 4c0:	745f6574 	jalx	17d95d0 <__memory_size+0x17b9dd0>
 4c4:	735f5f00 	0x735f5f00
 4c8:	454c4946 	bc1any4f	$fcc3,129e4 <__isr_vec_space+0x129c4>
 4cc:	626d5f00 	0x626d5f00
 4d0:	74617473 	jalx	185d1cc <__memory_size+0x183d9cc>
 4d4:	725f0065 	s8sdi	xr1,s2,-64,
 4d8:	5f646e61 	0x5f646e61
 4dc:	7478656e 	jalx	1e195b8 <__memory_size+0x1df9db8>
 4e0:	626d5f00 	0x626d5f00
 4e4:	5f6e656c 	0x5f6e656c
 4e8:	74617473 	jalx	185d1cc <__memory_size+0x183d9cc>
 4ec:	695f0065 	0x695f0065
 4f0:	5f00636e 	bgtzl	t8,192ac <__isr_vec_space+0x1928c>
 4f4:	00646e69 	0x646e69
 4f8:	7275635f 	udi15	s3,s5,t4,0xd
 4fc:	746e6572 	jalx	1b995c8 <__memory_size+0x1b79dc8>
 500:	636f6c5f 	0x636f6c5f
 504:	00656c61 	0x656c61
 508:	6c635f5f 	0x6c635f5f
 50c:	756e6165 	jalx	5b98594 <__memory_size+0x5b78d94>
 510:	6d5f0070 	0x6d5f0070
 514:	64777861 	0x64777861
 518:	725f0073 	d32sar	xr1,xr0,xr12,xr7,9
 51c:	746e6565 	jalx	1b99594 <__memory_size+0x1b79d94>
 520:	65735f00 	0x65735f00
 524:	5f006465 	bgtzl	t8,196bc <__isr_vec_space+0x1969c>
 528:	756f635f 	jalx	5bd8d7c <__memory_size+0x5bb957c>
 52c:	5f00746e 	bgtzl	t8,1d6e8 <__isr_vec_space+0x1d6c8>
 530:	6c61765f 	0x6c61765f
 534:	5f006575 	bgtzl	t8,19b0c <__isr_vec_space+0x19aec>
 538:	6b656573 	0x6b656573
 53c:	70665f00 	0x70665f00
 540:	745f736f 	jalx	17dcdbc <__memory_size+0x17bd5bc>
 544:	745f5f00 	jalx	17d7c00 <__memory_size+0x17b8400>
 548:	65795f6d 	0x65795f6d
 54c:	5f007261 	bgtzl	t8,1ced4 <__isr_vec_space+0x1ceb4>
 550:	5f6d745f 	0x5f6d745f
 554:	006e696d 	0x6e696d
 558:	6c756d5f 	0x6c756d5f
 55c:	735f0074 	q16sll	xr1,xr0,xr12,xr7,13
 560:	6f747274 	0x6f747274
 564:	616c5f6b 	0x616c5f6b
 568:	5f007473 	bgtzl	t8,1d738 <__isr_vec_space+0x1d718>
 56c:	79746e66 	st.w	$w25,1488(t5)
 570:	00736570 	tge	v1,s3,0x195
 574:	6464615f 	0x6464615f
 578:	555f5f00 	bnel	t2,ra,1817c <__isr_vec_space+0x1815c>
 57c:	676e6f4c 	0x676e6f4c
 580:	65675f00 	0x65675f00
 584:	74616474 	jalx	18591d0 <__memory_size+0x18399d0>
 588:	72655f65 	s8sdi	xr13,s3,87,ptn1
 58c:	675f0072 	0x675f0072
 590:	61626f6c 	0x61626f6c
 594:	6d695f6c 	0x6d695f6c
 598:	65727570 	0x65727570
 59c:	7274705f 	udi15	s3,s4,t6,0x1
 5a0:	75635f00 	jalx	58d7c00 <__memory_size+0x58b8400>
 5a4:	6e657272 	0x6e657272
 5a8:	61635f74 	0x61635f74
 5ac:	6f676574 	0x6f676574
 5b0:	5f007972 	bgtzl	t8,1eb7c <__isr_vec_space+0x1eb5c>
 5b4:	73756e75 	q16slr	xr9,xr11,xr5,xr13,13
 5b8:	725f6465 	s8sdi	xr1,s2,-39,
 5bc:	00646e61 	0x646e61
 5c0:	7364775f 	udi15	k1,a0,t6,0x1d
 5c4:	745f5f00 	jalx	17d7c00 <__memory_size+0x17b8400>
 5c8:	64775f6d 	0x64775f6d
 5cc:	5f007961 	bgtzl	t8,1eb54 <__isr_vec_space+0x1eb34>
 5d0:	65756c67 	0x65756c67
 5d4:	6d6e5f00 	0x6d6e5f00
 5d8:	6f6c6c61 	0x6f6c6c61
 5dc:	6c5f0063 	0x6c5f0063
 5e0:	5f613436 	0x5f613436
 5e4:	00667562 	0x667562
 5e8:	6769735f 	0x6769735f
 5ec:	6e75665f 	0x6e75665f
 5f0:	6e5f0063 	0x6e5f0063
 5f4:	00667562 	0x667562
 5f8:	756e755f 	jalx	5b9d57c <__memory_size+0x5b7dd7c>
 5fc:	00646573 	tltu	v1,a0,0x195
 600:	6d745f5f 	0x6d745f5f
 604:	6473695f 	0x6473695f
 608:	5f007473 	bgtzl	t8,1d7d8 <__isr_vec_space+0x1d7b8>
 60c:	61636f6c 	0x61636f6c
 610:	6d69746c 	0x6d69746c
 614:	75625f65 	jalx	5897d94 <__memory_size+0x5878594>
 618:	635f0066 	0x635f0066
 61c:	65736f6c 	0x65736f6c
 620:	34725f00 	ori	s2,v1,0x5f00
 624:	6d5f0038 	0x6d5f0038
 628:	776f7462 	jalx	dbdd188 <__memory_size+0xdbbd988>
 62c:	74735f63 	jalx	1cd7d8c <__memory_size+0x1cb858c>
 630:	00657461 	0x657461
 634:	7335705f 	udi15	t9,s5,t6,0x1
 638:	745f5f00 	jalx	17d7c00 <__memory_size+0x17b8400>
 63c:	646d5f6d 	0x646d5f6d
 640:	69007961 	0x69007961
 644:	7275706d 	s16sdi	xr1,s3,-328,
 648:	61645f65 	0x61645f65
 64c:	2f006174 	sltiu	zero,t8,24948
 650:	72657375 	q16slr	xr13,xr12,xr5,xr9,9
 654:	70696d2f 	0x70696d2f
 658:	74777373 	jalx	1ddcdcc <__memory_size+0x1dbd5cc>
 65c:	7469672f 	jalx	1a59cbc <__memory_size+0x1a3a4bc>
 660:	77656e2f 	jalx	d95b8bc <__memory_size+0xd93c0bc>
 664:	2f62696c 	sltiu	v0,k1,26988
 668:	6c77656e 	0x6c77656e
 66c:	6c2f6269 	0x6c2f6269
 670:	2f636269 	sltiu	v1,k1,25193
 674:	6e656572 	0x6e656572
 678:	6d692f74 	0x6d692f74
 67c:	65727570 	0x65727570
 680:	7300632e 	0x7300632e
 684:	5f657a69 	0x5f657a69
 688:	752f0074 	jalx	4bc01d0 <__memory_size+0x4ba09d0>
 68c:	2f726573 	sltiu	s2,k1,25971
 690:	7370696d 	s16sdi	xr5,k1,52,
 694:	2f747773 	sltiu	s4,k1,30579
 698:	2f746967 	sltiu	s4,k1,26983
 69c:	6c77656e 	0x6c77656e
 6a0:	6e2f6269 	0x6e2f6269
 6a4:	696c7765 	0x696c7765
 6a8:	696c2f62 	0x696c2f62
 6ac:	732f6362 	s8ldd	xr13,t9,-40,ptn3
 6b0:	696c6474 	0x696c6474
 6b4:	5f5f2f62 	0x5f5f2f62
 6b8:	78657461 	ld.h	$w17,202(t6)
 6bc:	632e7469 	0x632e7469
 6c0:	65726600 	0x65726600
 6c4:	616c0065 	0x616c0065
 6c8:	00707473 	tltu	v1,s0,0x1d1
 6cc:	74736572 	jalx	1cd95c8 <__memory_size+0x1cb9dc8>
 6d0:	00747261 	0x747261
 6d4:	6573752f 	0x6573752f
 6d8:	696d2f72 	0x696d2f72
 6dc:	77737370 	jalx	dcdcdc0 <__memory_size+0xdcbd5c0>
 6e0:	69672f74 	0x69672f74
 6e4:	656e2f74 	0x656e2f74
 6e8:	62696c77 	0x62696c77
 6ec:	77656e2f 	jalx	d95b8bc <__memory_size+0xd93c0bc>
 6f0:	2f62696c 	sltiu	v0,k1,26988
 6f4:	6362696c 	0x6362696c
 6f8:	6474732f 	0x6474732f
 6fc:	2f62696c 	sltiu	v0,k1,26988
 700:	61635f5f 	0x61635f5f
 704:	615f6c6c 	0x615f6c6c
 708:	69786574 	0x69786574
 70c:	00632e74 	teq	v1,v1,0xb9
 710:	74615f5f 	jalx	1857d7c <__memory_size+0x183857c>
 714:	74697865 	jalx	1a5e194 <__memory_size+0x1a3e994>
 718:	636f6c5f 	0x636f6c5f
 71c:	4e47006b 	c3	0x47006b
 720:	20432055 	addi	v1,v0,8277
 724:	2e392e34 	sltiu	t9,s1,11828
 728:	6d2d2032 	0x6d2d2032
 72c:	2d206c65 	sltiu	zero,t1,27749
 730:	646f636d 	0x646f636d
 734:	65722d65 	0x65722d65
 738:	62616461 	0x62616461
 73c:	703d656c 	s16ldi	xr5,at,-334,ptn3
 740:	6c657263 	0x6c657263
 744:	696d2d20 	0x696d2d20
 748:	7265746e 	0x7265746e
 74c:	6b6e696c 	0x6b6e696c
 750:	70696d2d 	s16sdi	xr4,v1,182,ptn1
 754:	20363173 	addi	s6,at,12659
 758:	6f636d2d 	0x6f636d2d
 75c:	722d6564 	s8ldi	xr5,s1,89,ptn3
 760:	61646165 	0x61646165
 764:	3d656c62 	0x3d656c62
 768:	65726370 	0x65726370
 76c:	6d2d206c 	0x6d2d206c
 770:	672d6f6e 	0x672d6f6e
 774:	74706f70 	jalx	1c1bdc0 <__memory_size+0x1bfc5c0>
 778:	736d2d20 	0x736d2d20
 77c:	2d74666f 	sltiu	s4,t3,26223
 780:	616f6c66 	0x616f6c66
 784:	6d2d2074 	0x6d2d2074
 788:	68637261 	0x68637261
 78c:	70696d3d 	0x70696d3d
 790:	72323373 	d32sar	xr13,xr12,xr8,xr12,8
 794:	6d2d2032 	0x6d2d2032
 798:	20746c70 	addi	s4,v1,27760
 79c:	70696d2d 	s16sdi	xr4,v1,182,ptn1
 7a0:	72323373 	d32sar	xr13,xr12,xr8,xr12,8
 7a4:	6d2d2032 	0x6d2d2032
 7a8:	636e7973 	0x636e7973
 7ac:	6d2d2069 	0x6d2d2069
 7b0:	3d696261 	0x3d696261
 7b4:	2d203233 	sltiu	zero,t1,12851
 7b8:	672d2067 	0x672d2067
 7bc:	324f2d20 	andi	t7,s2,0x2d20
 7c0:	734f2d20 	0x734f2d20
 7c4:	324f2d20 	andi	t7,s2,0x2d20
 7c8:	324f2d20 	andi	t7,s2,0x2d20
 7cc:	734f2d20 	0x734f2d20
 7d0:	725f5f00 	0x725f5f00
 7d4:	72757465 	s8sdi	xr1,s3,93,
 7d8:	6f745f6e 	0x6f745f6e
 7dc:	6f6f625f 	0x6f6f625f
 7e0:	78650074 	0x78650074
 7e4:	635f7469 	0x635f7469
 7e8:	0065646f 	0x65646f
 7ec:	78655f5f 	0x78655f5f
 7f0:	5f007469 	bgtzl	t8,1d998 <__isr_vec_space+0x1d978>
 7f4:	6573755f 	0x6573755f
 7f8:	6378655f 	0x6378655f
 7fc:	625f7470 	0x625f7470
 800:	00746f6f 	0x746f6f
 804:	6e695f5f 	0x6e695f5f
 808:	5f323374 	0x5f323374
 80c:	72610074 	q16sll	xr1,xr0,xr4,xr8,9
 810:	2f003167 	sltiu	zero,t8,12647
 814:	72657375 	q16slr	xr13,xr12,xr5,xr9,9
 818:	70696d2f 	0x70696d2f
 81c:	74777373 	jalx	1ddcdcc <__memory_size+0x1dbd5cc>
 820:	7469672f 	jalx	1a59cbc <__memory_size+0x1a3a4bc>
 824:	77656e2f 	jalx	d95b8bc <__memory_size+0xd93c0bc>
 828:	2f62696c 	sltiu	v0,k1,26988
 82c:	6762696c 	0x6762696c
 830:	73736f6c 	s16ldi	xr13,k1,438,ptn2
 834:	70696d2f 	0x70696d2f
 838:	68752f73 	0x68752f73
 83c:	78655f69 	0x78655f69
 840:	632e7469 	0x632e7469
 844:	675f5f00 	0x675f5f00
 848:	735f7465 	s8sdi	xr1,k0,-35,
 84c:	74726174 	jalx	1c985d0 <__memory_size+0x1c78dd0>
 850:	425f7075 	c0	0x5f7075
 854:	2f005645 	sltiu	zero,t8,22085
 858:	72657375 	q16slr	xr13,xr12,xr5,xr9,9
 85c:	70696d2f 	0x70696d2f
 860:	74777373 	jalx	1ddcdcc <__memory_size+0x1dbd5cc>
 864:	7469672f 	jalx	1a59cbc <__memory_size+0x1a3a4bc>
 868:	77656e2f 	jalx	d95b8bc <__memory_size+0xd93c0bc>
 86c:	2f62696c 	sltiu	v0,k1,26988
 870:	6762696c 	0x6762696c
 874:	73736f6c 	s16ldi	xr13,k1,438,ptn2
 878:	70696d2f 	0x70696d2f
 87c:	68752f73 	0x68752f73
 880:	65675f69 	0x65675f69
 884:	61725f74 	0x61725f74
 888:	61725f6d 	0x61725f6d
 88c:	2e65676e 	sltiu	a1,s3,26478
 890:	5f5f0063 	0x5f5f0063
 894:	6f6d656d 	0x6f6d656d
 898:	735f7972 	0x735f7972
 89c:	00657a69 	0x657a69
 8a0:	78655f72 	0x78655f72
 8a4:	746e6574 	jalx	1b995d0 <__memory_size+0x1b79dd0>
 8a8:	6d617200 	0x6d617200
 8ac:	7478655f 	jalx	1e1957c <__memory_size+0x1df9d7c>
 8b0:	00746e65 	0x746e65
 8b4:	656d5f5f 	0x656d5f5f
 8b8:	79726f6d 	0x79726f6d
 8bc:	7361625f 	udi15	k1,at,t4,0x9
 8c0:	5f720065 	0x5f720065
 8c4:	65736162 	0x65736162
 8c8:	6d617200 	0x6d617200
 8cc:	7361625f 	udi15	k1,at,t4,0x9
 8d0:	675f0065 	0x675f0065
 8d4:	725f7465 	s8sdi	xr1,s2,-35,
 8d8:	725f6d61 	0x725f6d61
 8dc:	65676e61 	0x65676e61
 8e0:	74757000 	jalx	1d5c000 <__memory_size+0x1d3c800>
 8e4:	00736e73 	tltu	v1,s3,0x1b9
 8e8:	68635f5f 	0x68635f5f
 8ec:	5f6e6961 	0x5f6e6961
 8f0:	5f696875 	0x5f696875
 8f4:	70637865 	s8sdi	xr1,v1,-34,ptn0
 8f8:	5f5f0074 	0x5f5f0074
 8fc:	5f696875 	0x5f696875
 900:	69646e69 	0x69646e69
 904:	74636572 	jalx	18d95c8 <__memory_size+0x18b9dc8>
 908:	75616300 	jalx	5858c00 <__memory_size+0x5839400>
 90c:	5f006573 	bgtzl	t8,19edc <__isr_vec_space+0x19ebc>
 910:	6378655f 	0x6378655f
 914:	69747065 	0x69747065
 918:	685f6e6f 	0x685f6e6f
 91c:	6c646e61 	0x6c646e61
 920:	65765f65 	0x65765f65
 924:	736f6272 	0x736f6272
 928:	6f640065 	0x6f640065
 92c:	656c6275 	0x656c6275
 930:	69687300 	0x69687300
 934:	6c007466 	0x6c007466
 938:	636b6e69 	0x636b6e69
 93c:	5f007874 	bgtzl	t8,1eb10 <__isr_vec_space+0x1eaf0>
 940:	6e69755f 	0x6e69755f
 944:	5f323374 	0x5f323374
 948:	696c0074 	0x696c0074
 94c:	73006b6e 	0x73006b6e
 950:	656c7274 	0x656c7274
 954:	6f70006e 	0x6f70006e
 958:	67007473 	0x67007473
 95c:	78746370 	0x78746370
 960:	64616200 	0x64616200
 964:	64646176 	0x64646176
 968:	6c660072 	0x6c660072
 96c:	0074616f 	0x74616f
 970:	67657273 	0x67657273
 974:	5f00745f 	bgtzl	t8,1daf4 <__isr_vec_space+0x1dad4>
 978:	6968755f 	0x6968755f
 97c:	6378655f 	0x6378655f
 980:	69747065 	0x69747065
 984:	5f006e6f 	bgtzl	t8,1c344 <__isr_vec_space+0x1c324>
 988:	756c665f 	jalx	5b1997c <__memory_size+0x5afa17c>
 98c:	745f6873 	jalx	17da1cc <__memory_size+0x17ba9cc>
 990:	657a5f6f 	0x657a5f6f
 994:	70006f72 	d32sarl	xr13,xr11,xr1,0
 998:	6e737475 	0x6e737475
 99c:	64007364 	0x64007364
 9a0:	74696769 	jalx	1a59da4 <__memory_size+0x1a3a5a4>
 9a4:	74730073 	jalx	1cc01cc <__memory_size+0x1ca09cc>
 9a8:	73757461 	0x73757461
 9ac:	64616200 	0x64616200
 9b0:	736e6970 	d32sll	xr5,xr10,xr9,xr11,13
 9b4:	62007274 	0x62007274
 9b8:	6e696461 	0x6e696461
 9bc:	00727473 	tltu	v1,s2,0x1d1
 9c0:	6573752f 	0x6573752f
 9c4:	696d2f72 	0x696d2f72
 9c8:	77737370 	jalx	dcdcdc0 <__memory_size+0xdcbd5c0>
 9cc:	69672f74 	0x69672f74
 9d0:	656e2f74 	0x656e2f74
 9d4:	62696c77 	0x62696c77
 9d8:	62696c2f 	0x62696c2f
 9dc:	736f6c67 	0x736f6c67
 9e0:	696d2f73 	0x696d2f73
 9e4:	682f7370 	0x682f7370
 9e8:	6c2f6c61 	0x6c2f6c61
 9ec:	6d2f6269 	0x6d2f6269
 9f0:	2f737069 	sltiu	s3,k1,28777
 9f4:	7370696d 	s16sdi	xr5,k1,52,
 9f8:	6378655f 	0x6378655f
 9fc:	685f7470 	0x685f7470
 a00:	6c646e61 	0x6c646e61
 a04:	632e7265 	0x632e7265
 a08:	73752f00 	0x73752f00
 a0c:	6d2f7265 	0x6d2f7265
 a10:	73737069 	0x73737069
 a14:	672f7477 	0x672f7477
 a18:	6e2f7469 	0x6e2f7469
 a1c:	696c7765 	0x696c7765
 a20:	656e2f62 	0x656e2f62
 a24:	62696c77 	0x62696c77
 a28:	62696c2f 	0x62696c2f
 a2c:	616d2f63 	0x616d2f63
 a30:	6e696863 	0x6e696863
 a34:	696d2f65 	0x696d2f65
 a38:	732f7370 	d32sll	xr13,xr12,xr13,xr11,12
 a3c:	656c7274 	0x656c7274
 a40:	00632e6e 	0x632e6e
 a44:	5f77656e 	0x5f77656e
 a48:	6e727265 	0x6e727265
 a4c:	7261006f 	0x7261006f
 a50:	2f003267 	sltiu	zero,t8,12903
 a54:	72657375 	q16slr	xr13,xr12,xr5,xr9,9
 a58:	70696d2f 	0x70696d2f
 a5c:	74777373 	jalx	1ddcdcc <__memory_size+0x1dbd5cc>
 a60:	7469672f 	jalx	1a59cbc <__memory_size+0x1a3a4bc>
 a64:	77656e2f 	jalx	d95b8bc <__memory_size+0xd93c0bc>
 a68:	2f62696c 	sltiu	v0,k1,26988
 a6c:	6762696c 	0x6762696c
 a70:	73736f6c 	s16ldi	xr13,k1,438,ptn2
 a74:	70696d2f 	0x70696d2f
 a78:	68752f73 	0x68752f73
 a7c:	72775f69 	0x72775f69
 a80:	2e657469 	sltiu	a1,s3,29801
 a84:	72610063 	s8std	xr1,s3,64,ptn0
 a88:	5f003367 	bgtzl	t8,d828 <__isr_vec_space+0xd808>
 a8c:	7272655f 	udi15	s3,s2,t4,0x15
 a90:	65006f6e 	0x65006f6e
 a94:	6f6e7272 	0x6f6e7272
 a98:	706d745f 	udi15	v1,t5,t6,0x11
 a9c:	73752f00 	0x73752f00
 aa0:	6d2f7265 	0x6d2f7265
 aa4:	73737069 	0x73737069
 aa8:	672f7477 	0x672f7477
 aac:	6e2f7469 	0x6e2f7469
 ab0:	696c7765 	0x696c7765
 ab4:	696c2f62 	0x696c2f62
 ab8:	6f6c6762 	0x6f6c6762
 abc:	6d2f7373 	0x6d2f7373
 ac0:	2f737069 	sltiu	s3,k1,28777
 ac4:	5f696875 	0x5f696875
 ac8:	65637865 	0x65637865
 acc:	6f697470 	0x6f697470
 ad0:	00632e6e 	0x632e6e
 ad4:	31746572 	andi	s4,t3,0x6572
 ad8:	74657200 	jalx	195c800 <__memory_size+0x193d000>
 adc:	72610032 	0x72610032
 ae0:	2f003467 	sltiu	zero,t8,13415
 ae4:	72657375 	q16slr	xr13,xr12,xr5,xr9,9
 ae8:	70696d2f 	0x70696d2f
 aec:	74777373 	jalx	1ddcdcc <__memory_size+0x1dbd5cc>
 af0:	7469672f 	jalx	1a59cbc <__memory_size+0x1a3a4bc>
 af4:	77656e2f 	jalx	d95b8bc <__memory_size+0xd93c0bc>
 af8:	2f62696c 	sltiu	v0,k1,26988
 afc:	6762696c 	0x6762696c
 b00:	73736f6c 	s16ldi	xr13,k1,438,ptn2
 b04:	70696d2f 	0x70696d2f
 b08:	68752f73 	0x68752f73
 b0c:	6e695f69 	0x6e695f69
 b10:	65726964 	0x65726964
 b14:	632e7463 	0x632e7463
 b18:	73752f00 	0x73752f00
 b1c:	6d2f7265 	0x6d2f7265
 b20:	73737069 	0x73737069
 b24:	672f7477 	0x672f7477
 b28:	6e2f7469 	0x6e2f7469
 b2c:	696c7765 	0x696c7765
 b30:	656e2f62 	0x656e2f62
 b34:	62696c77 	0x62696c77
 b38:	62696c2f 	0x62696c2f
 b3c:	72652f63 	s8std	xr13,s3,75,ptn1
 b40:	2f6f6e72 	sltiu	t7,k1,28274
 b44:	6e727265 	0x6e727265
 b48:	00632e6f 	0x632e6f

Disassembly of section .debug_loc:

00000000 <.debug_loc>:
   0:	00000000 	nop
   4:	00000010 	mfhi	zero
   8:	049e0006 	0x49e0006
   c:	b0d0fa00 	0xb0d0fa00
  10:	00000010 	mfhi	zero
  14:	0000001c 	0x1c
  18:	049e0006 	0x49e0006
  1c:	b0d0fa04 	0xb0d0fa04
  20:	0000001c 	0x1c
  24:	00000024 	and	zero,zero,zero
  28:	049e0006 	0x49e0006
  2c:	b0d0fa08 	0xb0d0fa08
  30:	00000024 	and	zero,zero,zero
  34:	0000002c 	0x2c
  38:	049e0006 	0x49e0006
  3c:	b0d0fa0c 	0xb0d0fa0c
  40:	0000002c 	0x2c
  44:	00000034 	teq	zero,zero
  48:	049e0006 	0x49e0006
  4c:	b0d0fa10 	0xb0d0fa10
  50:	00000034 	teq	zero,zero
  54:	000000a8 	0xa8
  58:	049e0006 	0x49e0006
  5c:	b0d0fa14 	0xb0d0fa14
	...
  6c:	00000040 	ssnop
  70:	049e0006 	0x49e0006
  74:	b0d00000 	0xb0d00000
  78:	00000040 	ssnop
  7c:	00000044 	0x44
  80:	049e0006 	0x49e0006
  84:	b0d00004 	0xb0d00004
  88:	00000044 	0x44
  8c:	00000048 	0x48
  90:	049e0006 	0x49e0006
  94:	b0d00008 	0xb0d00008
  98:	00000048 	0x48
  9c:	0000004c 	syscall	0x1
  a0:	049e0006 	0x49e0006
  a4:	b0d0000c 	0xb0d0000c
  a8:	0000004c 	syscall	0x1
  ac:	00000058 	0x58
  b0:	049e0006 	0x49e0006
  b4:	b0d00010 	0xb0d00010
  b8:	00000058 	0x58
  bc:	0000005c 	0x5c
  c0:	049e0006 	0x49e0006
  c4:	b0d00014 	0xb0d00014
  c8:	0000005c 	0x5c
  cc:	00000060 	0x60
  d0:	049e0006 	0x49e0006
  d4:	b0d00018 	0xb0d00018
  d8:	00000060 	0x60
  dc:	00000064 	0x64
  e0:	049e0006 	0x49e0006
  e4:	b0d0001c 	0xb0d0001c
  e8:	00000064 	0x64
  ec:	00000070 	tge	zero,zero,0x1
  f0:	049e0006 	0x49e0006
  f4:	b0d00020 	0xb0d00020
  f8:	00000070 	tge	zero,zero,0x1
  fc:	00000074 	teq	zero,zero,0x1
 100:	049e0006 	0x49e0006
 104:	b0d00024 	0xb0d00024
 108:	00000074 	teq	zero,zero,0x1
 10c:	00000078 	0x78
 110:	049e0006 	0x49e0006
 114:	b0d00028 	0xb0d00028
 118:	00000078 	0x78
 11c:	0000007c 	0x7c
 120:	049e0006 	0x49e0006
 124:	b0d0002c 	0xb0d0002c
 128:	0000007c 	0x7c
 12c:	00000088 	0x88
 130:	049e0006 	0x49e0006
 134:	b0d00030 	0xb0d00030
 138:	00000088 	0x88
 13c:	0000008c 	syscall	0x2
 140:	049e0006 	0x49e0006
 144:	b0d00034 	0xb0d00034
 148:	0000008c 	syscall	0x2
 14c:	00000090 	0x90
 150:	049e0006 	0x49e0006
 154:	b0d00038 	0xb0d00038
 158:	00000090 	0x90
 15c:	00000094 	0x94
 160:	049e0006 	0x49e0006
 164:	b0d0003c 	0xb0d0003c
 168:	00000094 	0x94
 16c:	000000a8 	0xa8
 170:	049e0006 	0x49e0006
 174:	b0d00040 	0xb0d00040
	...
 184:	00000040 	ssnop
 188:	9f300002 	0x9f300002
 18c:	00000040 	ssnop
 190:	00000044 	0x44
 194:	9f310002 	0x9f310002
 198:	00000044 	0x44
 19c:	00000048 	0x48
 1a0:	9f320002 	0x9f320002
 1a4:	00000048 	0x48
 1a8:	0000004c 	syscall	0x1
 1ac:	9f330002 	0x9f330002
 1b0:	0000004c 	syscall	0x1
 1b4:	00000058 	0x58
 1b8:	9f300002 	0x9f300002
 1bc:	00000058 	0x58
 1c0:	0000005c 	0x5c
 1c4:	9f310002 	0x9f310002
 1c8:	0000005c 	0x5c
 1cc:	00000060 	0x60
 1d0:	9f320002 	0x9f320002
 1d4:	00000060 	0x60
 1d8:	00000064 	0x64
 1dc:	9f330002 	0x9f330002
 1e0:	00000064 	0x64
 1e4:	00000070 	tge	zero,zero,0x1
 1e8:	9f300002 	0x9f300002
 1ec:	00000070 	tge	zero,zero,0x1
 1f0:	00000074 	teq	zero,zero,0x1
 1f4:	9f310002 	0x9f310002
 1f8:	00000074 	teq	zero,zero,0x1
 1fc:	00000078 	0x78
 200:	9f320002 	0x9f320002
 204:	00000078 	0x78
 208:	0000007c 	0x7c
 20c:	9f330002 	0x9f330002
 210:	0000007c 	0x7c
 214:	00000088 	0x88
 218:	9f300002 	0x9f300002
 21c:	00000088 	0x88
 220:	0000008c 	syscall	0x2
 224:	9f310002 	0x9f310002
 228:	0000008c 	syscall	0x2
 22c:	00000090 	0x90
 230:	9f320002 	0x9f320002
 234:	00000090 	0x90
 238:	00000094 	0x94
 23c:	9f330002 	0x9f330002
 240:	00000094 	0x94
 244:	000000a8 	0xa8
 248:	9f340002 	0x9f340002
	...
 258:	00000014 	0x14
 25c:	14540001 	bne	v0,s4,264 <__isr_vec_space+0x244>
 260:	1b000000 	blez	t8,264 <__isr_vec_space+0x244>
 264:	01000000 	0x1000000
 268:	001b5500 	sll	t2,k1,0x14
 26c:	00280000 	0x280000
 270:	00040000 	sll	zero,a0,0x0
 274:	9f5401f3 	0x9f5401f3
	...
 284:	00000017 	0x17
 288:	17540001 	bne	k0,s4,290 <__isr_vec_space+0x270>
 28c:	3c000000 	lui	zero,0x0
 290:	01000000 	0x1000000
 294:	00006000 	sll	t4,zero,0x0
	...
 2a0:	00640000 	0x640000
 2a4:	00010000 	sll	zero,at,0x0
 2a8:	00006454 	0x6454
 2ac:	0000fc00 	sll	ra,zero,0x10
 2b0:	61000100 	0x61000100
 2b4:	000000fc 	0xfc
 2b8:	00000108 	0x108
 2bc:	01f30004 	sllv	zero,s3,t7
 2c0:	00009f54 	0x9f54
	...
 2cc:	00640000 	0x640000
 2d0:	00010000 	sll	zero,at,0x0
 2d4:	00006455 	0x6455
 2d8:	00006b00 	sll	t5,zero,0xc
 2dc:	55000100 	bnezl	t0,6e0 <__isr_vec_space+0x6c0>
 2e0:	0000006b 	0x6b
 2e4:	000000f8 	0xf8
 2e8:	f8620001 	sdc2	$2,1(v1)
 2ec:	08000000 	j	0 <hardware_exit_hook>
 2f0:	04000001 	bltz	zero,2f8 <__isr_vec_space+0x2d8>
 2f4:	5501f300 	bnel	t0,at,ffffcef8 <__entry+0x403fcef8>
 2f8:	0000009f 	0x9f
	...
 304:	00006400 	sll	t4,zero,0x10
 308:	56000100 	bnezl	s0,70c <__isr_vec_space+0x6ec>
 30c:	00000064 	0x64
 310:	0000006b 	0x6b
 314:	6b560001 	0x6b560001
 318:	f0000000 	0xf0000000
 31c:	01000000 	0x1000000
 320:	00f06400 	0xf06400
 324:	01080000 	0x1080000
 328:	00040000 	sll	zero,a0,0x0
 32c:	9f5601f3 	0x9f5601f3
	...
 33c:	00000064 	0x64
 340:	64570001 	0x64570001
 344:	6b000000 	0x6b000000
 348:	01000000 	0x1000000
 34c:	006b5700 	0x6b5700
 350:	00f40000 	0xf40000
 354:	00010000 	sll	zero,at,0x0
 358:	0000f463 	0xf463
 35c:	00010800 	sll	at,at,0x0
 360:	f3000400 	0xf3000400
 364:	009f5701 	0x9f5701
 368:	00000000 	nop
 36c:	94000000 	lhu	zero,0(zero)
 370:	cc000000 	pref	0x0,0(zero)
 374:	04000000 	bltz	zero,378 <__isr_vec_space+0x358>
 378:	01887200 	0x1887200
 37c:	0000009f 	0x9f
 380:	00000000 	nop
 384:	00003400 	sll	a2,zero,0x10
 388:	00005800 	sll	t3,zero,0x0
 38c:	52000100 	beqzl	s0,790 <__isr_vec_space+0x770>
 390:	00000058 	0x58
 394:	0000006b 	0x6b
 398:	c8800003 	lwc2	$0,3(a0)
 39c:	00006c02 	srl	t5,zero,0x10
 3a0:	0000e000 	sll	gp,zero,0x0
 3a4:	52000100 	beqzl	s0,7a8 <__isr_vec_space+0x788>
 3a8:	00000000 	nop
	...
 3b4:	0000004c 	syscall	0x1
 3b8:	4c540001 	ldxc1	$f0,s4(v0)
 3bc:	60000000 	0x60000000
 3c0:	01000001 	movf	zero,t0,$fcc0
 3c4:	01606600 	0x1606600
 3c8:	01800000 	0x1800000
 3cc:	00040000 	sll	zero,a0,0x0
 3d0:	9f5401f3 	0x9f5401f3
	...
 3e0:	0000004c 	syscall	0x1
 3e4:	4c550001 	ldxc1	$f0,s5(v0)
 3e8:	68000000 	0x68000000
 3ec:	01000001 	movf	zero,t0,$fcc0
 3f0:	01686400 	0x1686400
 3f4:	01800000 	0x1800000
 3f8:	00040000 	sll	zero,a0,0x0
 3fc:	9f5501f3 	0x9f5501f3
	...
 408:	00000110 	0x110
 40c:	00000118 	0x118
 410:	00820002 	0x820002
 414:	0000011c 	0x11c
 418:	00000124 	0x124
 41c:	00520001 	0x520001
 420:	00000000 	nop
 424:	58000000 	blezl	zero,428 <__isr_vec_space+0x408>
 428:	1c000000 	bgtz	zero,42c <__isr_vec_space+0x40c>
 42c:	01000001 	movf	zero,t0,$fcc0
 430:	011c6200 	0x11c6200
 434:	01240000 	0x1240000
 438:	00010000 	sll	zero,at,0x0
 43c:	00012452 	0x12452
 440:	00017000 	sll	t6,at,0x0
 444:	62000100 	0x62000100
	...
 450:	00000110 	0x110
 454:	00000118 	0x118
 458:	00820007 	srav	zero,v0,a0
 45c:	01882306 	0x1882306
 460:	00011c9f 	0x11c9f
 464:	00012400 	sll	a0,at,0x10
 468:	72000400 	0x72000400
 46c:	009f0188 	0x9f0188
 470:	00000000 	nop
 474:	68000000 	0x68000000
 478:	54000000 	bnezl	zero,47c <__isr_vec_space+0x45c>
 47c:	01000001 	movf	zero,t0,$fcc0
 480:	00006500 	sll	t4,zero,0x14
 484:	00000000 	nop
 488:	00780000 	0x780000
 48c:	00e40000 	0xe40000
 490:	00050000 	sll	zero,a1,0x0
 494:	24008531 	li	zero,-31439
 498:	0000e49f 	0xe49f
 49c:	0000ec00 	sll	sp,zero,0x10
 4a0:	31000500 	andi	zero,t0,0x500
 4a4:	9f240185 	0x9f240185
 4a8:	00000124 	0x124
 4ac:	00000154 	0x154
 4b0:	85310005 	lh	s1,5(t1)
 4b4:	009f2400 	0x9f2400
 4b8:	00000000 	nop
 4bc:	90000000 	lbu	zero,0(zero)
 4c0:	c7000000 	lwc1	$f0,0(t8)
 4c4:	01000000 	0x1000000
 4c8:	01245300 	0x1245300
 4cc:	013b0000 	0x13b0000
 4d0:	00010000 	sll	zero,at,0x0
 4d4:	00014453 	0x14453
 4d8:	00014b00 	sll	t1,at,0xc
 4dc:	53000100 	beqzl	t8,8e0 <__isr_vec_space+0x8c0>
 4e0:	00000000 	nop
 4e4:	00000000 	nop
 4e8:	000000b4 	teq	zero,zero,0x2
 4ec:	000000e0 	0xe0
 4f0:	246e0001 	addiu	t6,v1,1
 4f4:	54000001 	bnezl	zero,4fc <__isr_vec_space+0x4dc>
 4f8:	01000001 	movf	zero,t0,$fcc0
 4fc:	00006e00 	sll	t5,zero,0x18
	...
 508:	00340000 	0x340000
 50c:	00010000 	sll	zero,at,0x0
 510:	00003454 	0x3454
 514:	00008800 	sll	s1,zero,0x0
 518:	63000100 	0x63000100
	...
 528:	00000038 	0x38
 52c:	38540001 	xori	s4,v0,0x1
 530:	48000000 	mfc2	zero,$0
 534:	01000000 	0x1000000
 538:	00005600 	sll	t2,zero,0x18
	...
 544:	00380000 	0x380000
 548:	00010000 	sll	zero,at,0x0
 54c:	00003855 	0x3855
 550:	00004800 	sll	t1,zero,0x0
 554:	57000100 	bnezl	t8,958 <__isr_vec_space+0x938>
 558:	00000000 	nop
	...
 564:	0000002b 	sltu	zero,zero,zero
 568:	2b540001 	slti	s4,k0,1
 56c:	b4000000 	0xb4000000
 570:	01000000 	0x1000000
 574:	00b46100 	0xb46100
 578:	00c00000 	0xc00000
 57c:	00040000 	sll	zero,a0,0x0
 580:	9f5401f3 	0x9f5401f3
	...
 590:	0000002b 	sltu	zero,zero,zero
 594:	2b550001 	slti	s5,k0,1
 598:	b0000000 	0xb0000000
 59c:	01000000 	0x1000000
 5a0:	00b06200 	0xb06200
 5a4:	00c00000 	0xc00000
 5a8:	00040000 	sll	zero,a0,0x0
 5ac:	9f5501f3 	0x9f5501f3
	...
 5bc:	0000002b 	sltu	zero,zero,zero
 5c0:	2b560001 	slti	s6,k0,1
 5c4:	b8000000 	swr	zero,0(zero)
 5c8:	01000000 	0x1000000
 5cc:	00b86000 	0xb86000
 5d0:	00c00000 	0xc00000
 5d4:	00040000 	sll	zero,a0,0x0
 5d8:	9f5601f3 	0x9f5601f3
	...
 5e4:	00000004 	sllv	zero,zero,zero
 5e8:	00000054 	0x54
 5ec:	68910002 	0x68910002
 5f0:	00000054 	0x54
 5f4:	00000087 	0x87
 5f8:	00750002 	0x750002
 5fc:	00000087 	0x87
 600:	000000b8 	0xb8
 604:	68910002 	0x68910002
 608:	000000b8 	0xb8
 60c:	000000c0 	ehb
 610:	688d0002 	0x688d0002
	...
 61c:	0000003c 	0x3c
 620:	0000004c 	syscall	0x1
 624:	9f4c0002 	0x9f4c0002
 628:	00000060 	0x60
 62c:	00000068 	0x68
 630:	68520001 	0x68520001
 634:	74000000 	jalx	0 <hardware_exit_hook>
 638:	09000000 	j	4000000 <__memory_size+0x3fe0800>
 63c:	00733100 	0x733100
 640:	2324321c 	addi	a0,t9,12828
 644:	00749f1c 	0x749f1c
 648:	00870000 	0x870000
 64c:	00080000 	sll	zero,t0,0x0
 650:	fc090073 	sdc3	$9,115(zero)
 654:	9f1c231e 	0x9f1c231e
	...
 660:	00000004 	sllv	zero,zero,zero
 664:	0000004c 	syscall	0x1
 668:	9f300002 	0x9f300002
 66c:	00000060 	0x60
 670:	00000087 	0x87
 674:	00530001 	0x530001
 678:	00000000 	nop
 67c:	c0000000 	ll	zero,0(zero)
 680:	c7000000 	lwc1	$f0,0(t8)
 684:	01000000 	0x1000000
 688:	00c75400 	0xc75400
 68c:	00c80000 	0xc80000
 690:	00040000 	sll	zero,a0,0x0
 694:	9f5401f3 	0x9f5401f3
	...
 6a0:	000000c0 	ehb
 6a4:	000000c7 	0xc7
 6a8:	c7550001 	lwc1	$f21,1(k0)
 6ac:	c8000000 	lwc2	$0,0(zero)
 6b0:	04000000 	bltz	zero,6b4 <__isr_vec_space+0x694>
 6b4:	5501f300 	bnel	t0,at,ffffd2b8 <__entry+0x403fd2b8>
 6b8:	0000009f 	0x9f
 6bc:	00000000 	nop
 6c0:	0000c000 	sll	t8,zero,0x0
 6c4:	0000c700 	sll	t8,zero,0x1c
 6c8:	56000100 	bnezl	s0,acc <__isr_vec_space+0xaac>
 6cc:	000000c7 	0xc7
 6d0:	000000c8 	0xc8
 6d4:	01f30004 	sllv	zero,s3,t7
 6d8:	00009f56 	0x9f56
 6dc:	00000000 	nop
 6e0:	00c80000 	0xc80000
 6e4:	01100000 	0x1100000
 6e8:	00010000 	sll	zero,at,0x0
 6ec:	00011054 	0x11054
 6f0:	00011800 	sll	v1,at,0x0
 6f4:	60000100 	0x60000100
 6f8:	00000118 	0x118
 6fc:	0000011c 	0x11c
 700:	1c540001 	0x1c540001
 704:	24000001 	li	zero,1
 708:	01000001 	movf	zero,t0,$fcc0
 70c:	01246000 	0x1246000
 710:	01280000 	0x1280000
 714:	00010000 	sll	zero,at,0x0
 718:	00012854 	0x12854
 71c:	00013000 	sll	a2,at,0x0
 720:	60000100 	0x60000100
 724:	00000130 	tge	zero,zero,0x4
 728:	00000134 	teq	zero,zero,0x4
 72c:	34540001 	ori	s4,v0,0x1
 730:	50000001 	beqzl	zero,738 <__isr_vec_space+0x718>
 734:	01000001 	movf	zero,t0,$fcc0
 738:	01506000 	0x1506000
 73c:	01540000 	0x1540000
 740:	00010000 	sll	zero,at,0x0
 744:	00015454 	0x15454
 748:	00015c00 	sll	t3,at,0x10
 74c:	60000100 	0x60000100
 750:	0000015c 	0x15c
 754:	00000164 	0x164
 758:	64540001 	0x64540001
 75c:	7c000001 	0x7c000001
 760:	01000001 	movf	zero,t0,$fcc0
 764:	017c6000 	0x17c6000
 768:	01840000 	0x1840000
 76c:	00010000 	sll	zero,at,0x0
 770:	00018454 	0x18454
 774:	00019000 	sll	s2,at,0x0
 778:	60000100 	0x60000100
 77c:	00000190 	0x190
 780:	000001a8 	0x1a8
 784:	a8540001 	swl	s4,1(v0)
 788:	ec000001 	swc3	$0,1(zero)
 78c:	01000001 	movf	zero,t0,$fcc0
 790:	01ec6000 	0x1ec6000
 794:	01fc0000 	0x1fc0000
 798:	00010000 	sll	zero,at,0x0
 79c:	0001fc54 	0x1fc54
 7a0:	00021c00 	sll	v1,v0,0x10
 7a4:	60000100 	0x60000100
 7a8:	0000021c 	0x21c
 7ac:	00000237 	0x237
 7b0:	37540001 	ori	s4,k0,0x1
 7b4:	50000002 	beqzl	zero,7c0 <__isr_vec_space+0x7a0>
 7b8:	01000002 	0x1000002
 7bc:	02506000 	0x2506000
 7c0:	02540000 	0x2540000
 7c4:	00010000 	sll	zero,at,0x0
 7c8:	00025454 	0x25454
 7cc:	00025c00 	sll	t3,v0,0x10
 7d0:	60000100 	0x60000100
 7d4:	0000025c 	0x25c
 7d8:	00000260 	0x260
 7dc:	60540001 	0x60540001
 7e0:	68000002 	0x68000002
 7e4:	01000002 	0x1000002
 7e8:	02686000 	0x2686000
 7ec:	026c0000 	0x26c0000
 7f0:	00010000 	sll	zero,at,0x0
 7f4:	00026c54 	0x26c54
 7f8:	00027400 	sll	t6,v0,0x10
 7fc:	60000100 	0x60000100
 800:	00000274 	teq	zero,zero,0x9
 804:	0000027c 	0x27c
 808:	7c540001 	0x7c540001
 80c:	88000002 	lwl	zero,2(zero)
 810:	01000002 	0x1000002
 814:	02886000 	0x2886000
 818:	02900000 	0x2900000
 81c:	00010000 	sll	zero,at,0x0
 820:	00029054 	0x29054
 824:	00029c00 	sll	s3,v0,0x10
 828:	60000100 	0x60000100
 82c:	0000029c 	0x29c
 830:	000002d8 	0x2d8
 834:	d8540001 	ldc2	$20,1(v0)
 838:	f0000002 	0xf0000002
 83c:	01000002 	0x1000002
 840:	02f06000 	0x2f06000
 844:	02f40000 	0x2f40000
 848:	00010000 	sll	zero,at,0x0
 84c:	0002f454 	0x2f454
 850:	00030000 	sll	zero,v1,0x0
 854:	60000100 	0x60000100
 858:	00000300 	sll	zero,zero,0xc
 85c:	0000033c 	0x33c
 860:	3c540001 	0x3c540001
 864:	54000003 	bnezl	zero,874 <__isr_vec_space+0x854>
 868:	01000003 	0x1000003
 86c:	03546000 	0x3546000
 870:	03580000 	0x3580000
 874:	00010000 	sll	zero,at,0x0
 878:	00035854 	0x35854
 87c:	00036400 	sll	t4,v1,0x10
 880:	60000100 	0x60000100
 884:	00000364 	0x364
 888:	0000036c 	0x36c
 88c:	6c540001 	0x6c540001
 890:	74000003 	jalx	c <ABIFlags_ases>
 894:	01000003 	0x1000003
 898:	03746000 	0x3746000
 89c:	037c0000 	0x37c0000
 8a0:	00010000 	sll	zero,at,0x0
 8a4:	00037c54 	0x37c54
 8a8:	00038800 	sll	s1,v1,0x0
 8ac:	60000100 	0x60000100
 8b0:	00000388 	0x388
 8b4:	00000390 	0x390
 8b8:	90540001 	lbu	s4,1(v0)
 8bc:	9c000003 	0x9c000003
 8c0:	01000003 	0x1000003
 8c4:	039c6000 	0x39c6000
 8c8:	03a40000 	0x3a40000
 8cc:	00010000 	sll	zero,at,0x0
 8d0:	0003a454 	0x3a454
 8d4:	0003b000 	sll	s6,v1,0x0
 8d8:	60000100 	0x60000100
 8dc:	000003b0 	tge	zero,zero,0xe
 8e0:	000003b8 	0x3b8
 8e4:	b8540001 	swr	s4,1(v0)
 8e8:	c4000003 	lwc1	$f0,3(zero)
 8ec:	01000003 	0x1000003
 8f0:	03c46000 	0x3c46000
 8f4:	03c80000 	0x3c80000
 8f8:	00010000 	sll	zero,at,0x0
 8fc:	0003c854 	0x3c854
 900:	0003d000 	sll	k0,v1,0x0
 904:	60000100 	0x60000100
 908:	000003d0 	0x3d0
 90c:	000003d4 	0x3d4
 910:	d4540001 	ldc1	$f20,1(v0)
 914:	dc000003 	ldc3	$0,3(zero)
 918:	01000003 	0x1000003
 91c:	03dc6000 	0x3dc6000
 920:	03e00000 	0x3e00000
 924:	00010000 	sll	zero,at,0x0
 928:	0003e054 	0x3e054
 92c:	0003ec00 	sll	sp,v1,0x10
 930:	60000100 	0x60000100
 934:	000003ec 	0x3ec
 938:	000003f4 	teq	zero,zero,0xf
 93c:	f4540001 	sdc1	$f20,1(v0)
 940:	00000003 	sra	zero,zero,0x0
 944:	01000004 	sllv	zero,zero,t0
 948:	04006000 	bltz	zero,1894c <__isr_vec_space+0x1892c>
 94c:	04080000 	tgei	zero,0
 950:	00010000 	sll	zero,at,0x0
 954:	00040854 	0x40854
 958:	00041400 	sll	v0,a0,0x10
 95c:	60000100 	0x60000100
 960:	00000414 	0x414
 964:	0000041c 	0x41c
 968:	1c540001 	0x1c540001
 96c:	28000004 	slti	zero,zero,4
 970:	01000004 	sllv	zero,zero,t0
 974:	04286000 	tgei	at,24576
 978:	04300000 	bltzal	at,97c <__isr_vec_space+0x95c>
 97c:	00010000 	sll	zero,at,0x0
 980:	00043054 	0x43054
 984:	00043c00 	sll	a3,a0,0x10
 988:	60000100 	0x60000100
 98c:	0000043c 	0x43c
 990:	00000440 	sll	zero,zero,0x11
 994:	40540001 	mfhc0	s4,c0_mvpcontrol
 998:	9c000004 	0x9c000004
 99c:	01000007 	srav	zero,zero,t0
 9a0:	079c6000 	0x79c6000
 9a4:	07a40000 	0x7a40000
 9a8:	00040000 	sll	zero,a0,0x0
 9ac:	9f5401f3 	0x9f5401f3
	...
 9b8:	000000c8 	0xc8
 9bc:	0000010c 	syscall	0x4
 9c0:	0c550001 	jal	1540004 <__memory_size+0x1520804>
 9c4:	18000001 	blez	zero,9cc <__isr_vec_space+0x9ac>
 9c8:	04000001 	bltz	zero,9d0 <__isr_vec_space+0x9b0>
 9cc:	5501f300 	bnel	t0,at,ffffd5d0 <__entry+0x403fd5d0>
 9d0:	0001189f 	0x1189f
 9d4:	00013c00 	sll	a3,at,0x10
 9d8:	55000100 	bnezl	t0,ddc <__isr_vec_space+0xdbc>
 9dc:	0000013c 	0x13c
 9e0:	00000150 	0x150
 9e4:	01f30004 	sllv	zero,s3,t7
 9e8:	01509f55 	0x1509f55
 9ec:	01600000 	0x1600000
 9f0:	00010000 	sll	zero,at,0x0
 9f4:	00016055 	0x16055
 9f8:	00017c00 	sll	t7,at,0x10
 9fc:	f3000400 	0xf3000400
 a00:	7c9f5501 	0x7c9f5501
 a04:	80000001 	lb	zero,1(zero)
 a08:	01000001 	movf	zero,t0,$fcc0
 a0c:	01805500 	0x1805500
 a10:	01900000 	0x1900000
 a14:	00040000 	sll	zero,a0,0x0
 a18:	9f5501f3 	0x9f5501f3
 a1c:	00000190 	0x190
 a20:	000001b4 	teq	zero,zero,0x6
 a24:	b4550001 	0xb4550001
 a28:	c0000001 	ll	zero,1(zero)
 a2c:	04000001 	bltz	zero,a34 <__isr_vec_space+0xa14>
 a30:	5501f300 	bnel	t0,at,ffffd634 <__entry+0x403fd634>
 a34:	0001c09f 	0x1c09f
 a38:	0001c400 	sll	t8,at,0x10
 a3c:	55000100 	bnezl	t0,e40 <__isr_vec_space+0xe20>
 a40:	000001c4 	0x1c4
 a44:	000001ec 	0x1ec
 a48:	01f30004 	sllv	zero,s3,t7
 a4c:	01ec9f55 	0x1ec9f55
 a50:	01fc0000 	0x1fc0000
 a54:	00010000 	sll	zero,at,0x0
 a58:	0001fc55 	0x1fc55
 a5c:	00021c00 	sll	v1,v0,0x10
 a60:	f3000400 	0xf3000400
 a64:	1c9f5501 	0x1c9f5501
 a68:	37000002 	ori	zero,t8,0x2
 a6c:	01000002 	0x1000002
 a70:	02375500 	0x2375500
 a74:	02500000 	0x2500000
 a78:	00040000 	sll	zero,a0,0x0
 a7c:	9f5501f3 	0x9f5501f3
 a80:	00000250 	0x250
 a84:	00000278 	0x278
 a88:	78550001 	bmnzi.b	$w0,$w0,0x55
 a8c:	88000002 	lwl	zero,2(zero)
 a90:	04000002 	bltz	zero,a9c <__isr_vec_space+0xa7c>
 a94:	5501f300 	bnel	t0,at,ffffd698 <__entry+0x403fd698>
 a98:	0002889f 	0x2889f
 a9c:	00028c00 	sll	s1,v0,0x10
 aa0:	55000100 	bnezl	t0,ea4 <__isr_vec_space+0xe84>
 aa4:	0000028c 	syscall	0xa
 aa8:	0000029c 	0x29c
 aac:	01f30004 	sllv	zero,s3,t7
 ab0:	029c9f55 	0x29c9f55
 ab4:	02c40000 	0x2c40000
 ab8:	00010000 	sll	zero,at,0x0
 abc:	0002c455 	0x2c455
 ac0:	00030000 	sll	zero,v1,0x0
 ac4:	f3000400 	0xf3000400
 ac8:	009f5501 	0x9f5501
 acc:	28000003 	slti	zero,zero,3
 ad0:	01000003 	0x1000003
 ad4:	03285500 	0x3285500
 ad8:	03640000 	0x3640000
 adc:	00040000 	sll	zero,a0,0x0
 ae0:	9f5501f3 	0x9f5501f3
 ae4:	00000364 	0x364
 ae8:	00000368 	0x368
 aec:	68550001 	0x68550001
 af0:	74000003 	jalx	c <ABIFlags_ases>
 af4:	04000003 	bltz	zero,b04 <__isr_vec_space+0xae4>
 af8:	5501f300 	bnel	t0,at,ffffd6fc <__entry+0x403fd6fc>
 afc:	0003749f 	0x3749f
 b00:	00037800 	sll	t7,v1,0x0
 b04:	55000100 	bnezl	t0,f08 <__isr_vec_space+0xee8>
 b08:	00000378 	0x378
 b0c:	00000388 	0x388
 b10:	01f30004 	sllv	zero,s3,t7
 b14:	03889f55 	0x3889f55
 b18:	038c0000 	0x38c0000
 b1c:	00010000 	sll	zero,at,0x0
 b20:	00038c55 	0x38c55
 b24:	00039c00 	sll	s3,v1,0x10
 b28:	f3000400 	0xf3000400
 b2c:	9c9f5501 	0x9c9f5501
 b30:	a0000003 	sb	zero,3(zero)
 b34:	01000003 	0x1000003
 b38:	03a05500 	0x3a05500
 b3c:	03b00000 	0x3b00000
 b40:	00040000 	sll	zero,a0,0x0
 b44:	9f5501f3 	0x9f5501f3
 b48:	000003b0 	tge	zero,zero,0xe
 b4c:	000003b4 	teq	zero,zero,0xe
 b50:	b4550001 	0xb4550001
 b54:	c4000003 	lwc1	$f0,3(zero)
 b58:	04000003 	bltz	zero,b68 <__isr_vec_space+0xb48>
 b5c:	5501f300 	bnel	t0,at,ffffd760 <__entry+0x403fd760>
 b60:	0003c49f 	0x3c49f
 b64:	0003e400 	sll	gp,v1,0x10
 b68:	55000100 	bnezl	t0,f6c <__isr_vec_space+0xf4c>
 b6c:	000003e4 	0x3e4
 b70:	000003ec 	0x3ec
 b74:	01f30004 	sllv	zero,s3,t7
 b78:	03ec9f55 	0x3ec9f55
 b7c:	03f00000 	0x3f00000
 b80:	00010000 	sll	zero,at,0x0
 b84:	0003f055 	0x3f055
 b88:	00040000 	sll	zero,a0,0x0
 b8c:	f3000400 	0xf3000400
 b90:	009f5501 	0x9f5501
 b94:	04000004 	bltz	zero,ba8 <__isr_vec_space+0xb88>
 b98:	01000004 	sllv	zero,zero,t0
 b9c:	04045500 	0x4045500
 ba0:	04140000 	0x4140000
 ba4:	00040000 	sll	zero,a0,0x0
 ba8:	9f5501f3 	0x9f5501f3
 bac:	00000414 	0x414
 bb0:	00000418 	0x418
 bb4:	18550001 	0x18550001
 bb8:	28000004 	slti	zero,zero,4
 bbc:	04000004 	bltz	zero,bd0 <__isr_vec_space+0xbb0>
 bc0:	5501f300 	bnel	t0,at,ffffd7c4 <__entry+0x403fd7c4>
 bc4:	0004289f 	0x4289f
 bc8:	00042c00 	sll	a1,a0,0x10
 bcc:	55000100 	bnezl	t0,fd0 <__isr_vec_space+0xfb0>
 bd0:	0000042c 	0x42c
 bd4:	0000043c 	0x43c
 bd8:	01f30004 	sllv	zero,s3,t7
 bdc:	043c9f55 	0x43c9f55
 be0:	04440000 	0x4440000
 be4:	00010000 	sll	zero,at,0x0
 be8:	00044455 	0x44455
 bec:	0007a400 	sll	s4,a3,0x10
 bf0:	f3000400 	0xf3000400
 bf4:	009f5501 	0x9f5501
 bf8:	00000000 	nop
 bfc:	b0000000 	0xb0000000
 c00:	b4000002 	0xb4000002
 c04:	01000002 	0x1000002
 c08:	00005200 	sll	t2,zero,0x8
 c0c:	00000000 	nop
 c10:	02c00000 	0x2c00000
 c14:	02c80000 	0x2c80000
 c18:	00010000 	sll	zero,at,0x0
 c1c:	00000053 	mtlhx	zero
 c20:	00000000 	nop
 c24:	00031400 	sll	v0,v1,0x10
 c28:	00031800 	sll	v1,v1,0x0
 c2c:	52000100 	beqzl	s0,1030 <__isr_vec_space+0x1010>
 c30:	00000000 	nop
 c34:	00000000 	nop
 c38:	00000324 	0x324
 c3c:	0000032c 	0x32c
 c40:	00530001 	0x530001
	...
 c4c:	18000000 	blez	zero,c50 <__isr_vec_space+0xc30>
 c50:	01000000 	0x1000000
 c54:	00185400 	sll	t2,t8,0x10
 c58:	00500000 	0x500000
 c5c:	00040000 	sll	zero,a0,0x0
 c60:	9f5401f3 	0x9f5401f3
	...
 c70:	00000018 	mult	zero,zero
 c74:	18550001 	0x18550001
 c78:	50000000 	beqzl	zero,c7c <__isr_vec_space+0xc5c>
 c7c:	04000000 	bltz	zero,c80 <__isr_vec_space+0xc60>
 c80:	5501f300 	bnel	t0,at,ffffd884 <__entry+0x403fd884>
 c84:	0000009f 	0x9f
	...
 c90:	00003300 	sll	a2,zero,0xc
 c94:	56000100 	bnezl	s0,1098 <__isr_vec_space+0x1078>
 c98:	00000033 	tltu	zero,zero
 c9c:	00000050 	0x50
 ca0:	01f30004 	sllv	zero,s3,t7
 ca4:	00009f56 	0x9f56
	...
 cb0:	00080000 	sll	zero,t0,0x0
 cb4:	00010000 	sll	zero,at,0x0
 cb8:	00000854 	0x854
 cbc:	00004400 	sll	t0,zero,0x10
 cc0:	58000100 	blezl	zero,10c4 <__isr_vec_space+0x10a4>
 cc4:	00000000 	nop
 cc8:	00000000 	nop

Disassembly of section .debug_ranges:

00000000 <.debug_ranges>:
   0:	00000018 	mult	zero,zero
   4:	0000001c 	0x1c
   8:	00000078 	0x78
   c:	000000e0 	0xe0
  10:	00000124 	0x124
  14:	0000014c 	syscall	0x5
	...
  20:	ffffffff 	sdc3	$31,-1(ra)
  24:	00000000 	nop
  28:	80000000 	lb	zero,0(zero)
  2c:	80000194 	lb	zero,404(zero)
  30:	800018b0 	lb	zero,6320(zero)
  34:	80001a78 	lb	zero,6776(zero)
	...

Disassembly of section .reginfo:

00000000 <.reginfo>:
   0:	b200037c 	0xb200037c
	...
  14:	8000a428 	lb	zero,-23512(zero)

Disassembly of section .pdr:

00000000 <.pdr>:
   0:	80000324 	lb	zero,804(zero)
	...
  20:	80000440 	lb	zero,1088(zero)
	...
  40:	800004a4 	lb	zero,1188(zero)
	...
  60:	80000578 	lb	zero,1400(zero)
	...
  80:	9fc00000 	0x9fc00000
	...
  a0:	9fc00014 	0x9fc00014
	...
  c0:	9fc000a8 	0x9fc000a8
	...
  e0:	9fc00100 	0x9fc00100
	...
 100:	9fc00160 	0x9fc00160
	...
 120:	9fc00288 	0x9fc00288
	...
 140:	9fc00308 	0x9fc00308
	...
 160:	8000075c 	lb	zero,1884(zero)
	...
 178:	0000001d 	0x1d
 17c:	0000001f 	0x1f
 180:	80000804 	lb	zero,2052(zero)
	...
 194:	00000008 	jr	zero
 198:	0000001d 	0x1d
 19c:	0000001f 	0x1f
 1a0:	80000898 	lb	zero,2200(zero)
 1a4:	80000000 	lb	zero,0(zero)
 1a8:	fffffffc 	sdc3	$31,-4(ra)
	...
 1b4:	00000018 	mult	zero,zero
 1b8:	0000001d 	0x1d
 1bc:	0000001f 	0x1f
 1c0:	800008c0 	lb	zero,2240(zero)
 1c4:	80010000 	lb	at,0(zero)
 1c8:	fffffffc 	sdc3	$31,-4(ra)
	...
 1d4:	00000018 	mult	zero,zero
 1d8:	0000001d 	0x1d
 1dc:	0000001f 	0x1f
 1e0:	800008fc 	lb	zero,2300(zero)
 1e4:	801f0000 	lb	ra,0(zero)
 1e8:	fffffffc 	sdc3	$31,-4(ra)
	...
 1f4:	00000028 	0x28
 1f8:	0000001d 	0x1d
 1fc:	0000001f 	0x1f
 200:	80000a04 	lb	zero,2564(zero)
 204:	c0ff0000 	ll	ra,0(a3)
 208:	fffffffc 	sdc3	$31,-4(ra)
	...
 214:	00000040 	ssnop
 218:	0000001d 	0x1d
 21c:	0000001f 	0x1f
 220:	80000b84 	lb	zero,2948(zero)
 224:	800f0000 	lb	t7,0(zero)
 228:	fffffffc 	sdc3	$31,-4(ra)
	...
 234:	00000028 	0x28
 238:	0000001d 	0x1d
 23c:	0000001f 	0x1f
 240:	80000c0c 	lb	zero,3084(zero)
	...
 260:	80000cc4 	lb	zero,3268(zero)
	...
 278:	0000001d 	0x1d
 27c:	0000001f 	0x1f
 280:	80000000 	lb	zero,0(zero)
	...
 2a0:	800018b0 	lb	zero,6320(zero)
	...
 2b4:	000000b0 	tge	zero,zero,0x2
 2b8:	0000001d 	0x1d
 2bc:	00000000 	nop
 2c0:	80000d0c 	lb	zero,3340(zero)
 2c4:	80070000 	lb	a3,0(zero)
 2c8:	fffffffc 	sdc3	$31,-4(ra)
	...
 2d4:	00000028 	0x28
 2d8:	0000001d 	0x1d
 2dc:	0000001f 	0x1f
 2e0:	80000dcc 	lb	zero,3532(zero)
	...
 2f8:	0000001d 	0x1d
 2fc:	0000001f 	0x1f
 300:	80000dd4 	lb	zero,3540(zero)
 304:	80070000 	lb	a3,0(zero)
 308:	fffffffc 	sdc3	$31,-4(ra)
	...
 314:	00000020 	add	zero,zero,zero
 318:	0000001d 	0x1d
 31c:	0000001f 	0x1f
 320:	800014b4 	lb	zero,5300(zero)
	...
 340:	80001564 	lb	zero,5476(zero)
	...
 360:	800015e0 	lb	zero,5600(zero)
	...
 380:	80001680 	lb	zero,5760(zero)
	...
 3a0:	80001738 	lb	zero,5944(zero)
	...
 3c0:	80001750 	lb	zero,5968(zero)
	...
 3e0:	80000200 	lb	zero,512(zero)
	...
 400:	800017e0 	lb	zero,6112(zero)
	...
 420:	800017fc 	lb	zero,6140(zero)
 424:	80010000 	lb	at,0(zero)
 428:	fffffffc 	sdc3	$31,-4(ra)
	...
 434:	00000020 	add	zero,zero,zero
 438:	0000001d 	0x1d
 43c:	0000001f 	0x1f
 440:	8000184c 	lb	zero,6220(zero)
	...
 458:	0000001d 	0x1d
 45c:	0000001f 	0x1f
 460:	80001860 	lb	zero,6240(zero)
	...
 478:	0000001d 	0x1d
 47c:	0000001f 	0x1f
 480:	800018a4 	lb	zero,6308(zero)
	...
 498:	0000001d 	0x1d
 49c:	0000001f 	0x1f

Disassembly of section .gnu.attributes:

00000000 <.gnu.attributes>:
   0:	00000f41 	0xf41
   4:	756e6700 	jalx	5b99c00 <__memory_size+0x5b7a400>
   8:	00070100 	sll	zero,a3,0x4
   c:	03040000 	0x3040000

Disassembly of section .comment:

00000000 <.comment>:
   0:	3a434347 	xori	v1,s2,0x4347
   4:	6f432820 	0x6f432820
   8:	63736564 	0x63736564
   c:	20657061 	addi	a1,v1,28769
  10:	20554e47 	addi	s5,v0,20039
  14:	6c6f6f54 	0x6c6f6f54
  18:	30322073 	andi	s2,at,0x2073
  1c:	302e3531 	andi	t6,at,0x3531
  20:	35302d36 	ori	s0,t1,0x2d36
  24:	726f6620 	0x726f6620
  28:	50494d20 	beql	v0,t1,134ac <__isr_vec_space+0x1348c>
  2c:	544d2053 	bnel	v0,t5,817c <__isr_vec_space+0x815c>
  30:	61422049 	0x61422049
  34:	4d206572 	0x4d206572
  38:	6c617465 	0x6c617465
  3c:	2e342029 	sltiu	s4,s1,8233
  40:	00322e39 	0x322e39
